(dp1
S'ambassador'
p2
(lp3
F0
aF8576025794
aF9088027334
aF9984030031
aF10496031571
aF10752032341
asS'humanitarian_volunteer'
p4
(lp5
F11392034264
asS'last_name'
p6
(lp7
F-9.1286211687978127e+18
aF-8.6312916268447017e+18
aF-7.6313086269697024e+18
aF-5.8904792558871183e+18
aF-4.2637007805639736e+18
aF-2.6600966779247222e+18
aF-3.5437157726616902e+17
aF2.2564472063669507e+18
aF4.7194379595643064e+18
aF7.3725185784311951e+18
asS'city_id'
p8
(lp9
F1083249
aF2105747
aF2938224
aF3327469
aF4198101
aF5000778
aF5859563
aF6225824
aF6456049
aF7657706
asS'country_id'
p10
(lp11
F3
aF40
aF68
aF84
aF94
aF142
aF192
aF235
aF244
asS'couch_available'
p12
(lp13
F8576025794
aF9856029644
aF9984030031
aF10752032341
aF11392034264
asS'postal_code'
p14
(lp15
F-9.1969025006820823e+18
aF-6.8304304785014989e+18
aF-3.841772319768171e+18
aF-1.1690139674901202e+18
aF0
aF3.5579477263460397e+17
aF2.0597884448692111e+18
aF3.4619079728517386e+18
aF4.8140377146066104e+18
aF7.0376491726392003e+18
asS'privacy_hide_profile'
p16
(lp17
F9984030031
aF11392034264
asS'lat_lng_specific'
p18
(lp19
F0
aF0.89147399999999999
aF1.2
aF1.3999999999999999
aF1.8999999999999999
aF1.9788749999999999
aF2.8478970000000001
aF3.6000000000000001
asS'occupation'
p20
(lp21
F-9.2071304350770821e+18
aF-6.7601512939659776e+18
aF-5.6362336528426373e+18
aF-4.4420866545605985e+18
aF-2.2053262623045071e+18
aF0
aF3.6747987240016538e+17
aF2.5291764714932777e+18
aF4.7220104540305111e+18
aF6.9840511738068183e+18
aF9.1697788727719475e+18
asS'privacy_only_complete_contact'
p22
(lp23
F9984030031
aF11392034264
asS'verification_level'
p24
(lp25
F0
aF1
aF2
aF3
asS'privacy_hide_email'
p26
(lp27
F9984030031
aF11392034264
asS'languages'
p28
(lp29
I0
aF29
aF35
aF63
aF109
aF162
aF163
aF165
aF172
asS'couch_image_height'
p30
(lp31
I0
aI1
asS'latitude'
p32
(lp33
F-90
aF20.666665999999999
aF35.506672000000002
aF39.961109
aF42.542220999999998
aF45.226695999999997
aF47.498404999999998
aF49.184711
aF51.153979999999997
aF52.516666000000001
asS'last_login_longitude'
p34
(lp35
F-157.93490600000001
aF-114.083298
aF-82.416702000000001
aF-73.738197
aF-4.5332999999999997
aF2.3332999999999999
aF7.3333000000000004
aF11.8833
aF17.833300000000001
aF40.533298000000002
asS'exotic_couch'
p36
(lp37
F0
aF1130486199
aF1197764805
aF1207103872
aF1208067921
aF1236682770
asS'address1'
p38
(lp39
F-9.1941348230046904e+18
aF-6.5829287911683983e+18
aF-4.2330662583557084e+18
aF-3.3474572821653217e+18
aF-2.1342263508898819e+18
aF-9.6835192350326515e+17
aF0
aF1.8849649348065905e+18
aF4.2329847637495142e+18
aF7.0699470101191813e+18
asS'address2'
p40
(lp41
F-9.162770228748842e+18
aF0
asS'pct_email_replied'
p42
(lp43
F-1
aF52
aF86
aF100
asS'contribution_reason'
p44
(lp45
F-9.0295371669015583e+18
aF0
asS'is_validated'
p46
(lp47
F11392034264
asS'tbm'
p48
(lp49
F9984030031
aF11392034264
asS'thumbnail_height'
p50
(lp51
I0
aI1
asS'password'
p52
(lp53
F-9.2069799290477875e+18
aF-7.3690639697534454e+18
aF-5.1575176789785037e+18
aF-3.2591154620093368e+18
aF-1.3722657357052298e+18
aF1.6729493616437731e+17
aF1.9142340811052411e+18
aF3.7786639366035845e+18
aF5.6369700110833193e+18
aF7.4723879670378148e+18
asS'state_province'
p54
(lp55
F-9.1352949242587976e+18
aF-7.3320930974054963e+18
aF-5.6581410470755133e+18
aF-3.5936078804486743e+18
aF-2.2342152461128822e+18
aF-57412083868814032
aF1.6547346389080553e+18
aF3.0198260720957542e+18
aF5.2812056674645187e+18
aF6.8044748236490465e+18
asS'wheelchair_accessible'
p56
(lp57
F9984030031
aF10880032724
aF11392034264
asS'group_post_mod_threshold'
p58
(lp59
F-3.1000000000000001
aI0
asS'last_email_reminder'
p60
(lp61
F0
asS'references_count'
p62
(lp63
F0
aF1
aF3
aF4
aF7
aF10
aF15
aF22
aF43
asS'verification_address_edited_date'
p64
(lp65
F0
aF1269729454
aF1293328043
asS'vouched'
p66
(lp67
F0
aF1
aF2
aF5
asS'email_format'
p68
(lp69
F2.3140582220973906e+18
aF7.7995758774657628e+18
asS'couch_thumbnail_height'
p70
(lp71
F0
aF80
aF90
aF103
aF120
asS'thumbnail_width'
p72
(lp73
I0
aF80
aF90
aF111
aF120
asS'sex'
p74
(lp75
F0
aF8576025794
aF8960026951
aF9856029644
asS'temp2'
p76
(lp77
F-8.8186676443603302e+18
aF0
asS'longitude'
p78
(lp79
F-166.53666699999999
aF-114.36937
aF-82.530829999999995
aF-73.549042
aF-4.1100000000000003
aF2.8208579999999999
aF7.3333329999999997
aF11.58
aF16.372633
aF28.975923999999999
asS'rmd'
p80
(lp81
F0
aF1281735655
aF1293706497
aF1303999103
aF1310504792
aF1314792235
aF1319385639
aF1323639584
aF1327423829
aF1329691479
asS'newsletter'
p82
(lp83
F11392034264
asS'couch_description'
p84
(lp85
I0
aI43
aI88
aI188
aI345
aI533
aI864
aI6299
asS'first_name'
p86
(lp87
F-9.222298252053035e+18
aF-7.1418885240214344e+18
aF-4.9709987816039721e+18
aF-4.3232163947711293e+18
aF-2.5386482556838057e+18
aF-2.3381672903720992e+17
aF1.9245959277654054e+18
aF3.4392345603371438e+18
aF5.6635974847652741e+18
aF7.4227410179737037e+18
asS'home_destination_id'
p88
(lp89
I0
aF898536
aF1003840
aF3895293
aF7206360
asS'privacy_only_show_members'
p90
(lp91
F9984030031
aF11392034264
asS'is_activated'
p92
(lp93
F9984030031
aF11392034264
asS'locations_desired_count'
p94
(lp95
F0
aF1
aF3
aF6
asS'couch_clarification'
p96
(lp97
I0
aI27
aI45
aI52
aI97
aI168
aI880
asS'friend_link_count'
p98
(lp99
F0
aF1
aF3
aF5
aF7
aF11
aF16
aF23
aF45
asS'last_login'
p100
(lp101
F1076798631
aF1298430843
aF1312560959
aF1320871095
aF1325541046
aF1328128487
aF1329842550
aF1330550585
aF1330900927
aF1331044287
asS'locations_going_count'
p102
(lp103
F0
aF1
asS'email'
p104
(lp105
F-9.2139020572470139e+18
aF-8.6253116537597215e+18
aF-6.6800715716915835e+18
aF-5.6252796537257216e+18
aF-3.6523010861882936e+18
aF-1.5397672458128558e+18
aF8.2161250002194893e+17
aF3.4546807099130655e+18
aF5.538107928953259e+18
aF7.3339156713070612e+18
asS'location_converted'
p106
(lp107
F9984030031
aF11392034264
asS'verification_status'
p108
(lp109
F-9.2229627191269796e+18
aF0
aF4.9462848845570222e+18
aF7.2926691777618033e+18
aF8.4054417323676549e+18
asS'timezone_offset'
p110
(lp111
F-780
aF-180
aF-120
aF-60
aF0
aF240
aF300
aF420
asS'locations_going'
p112
(lp113
sS'image_id'
p114
(lp115
I0
aF1603332
aF5518757
aF7539908
aF8382533
aF9196873
aF10239400
aF11042958
aF11862130
aF12679542
asS'session_salt'
p116
(lp117
F1
aF1551
aF263967
aF725666
aF1247544
aF1688284
aF2002226
aF2233203
aF2561723
aF2921675
asS'locations_lived_count'
p118
(lp119
F0
aF1
aF2
aF3
aF4
asS'couch_contact_method'
p120
(lp121
F-3.868274176114558e+18
aF-3.8682741761075579e+18
aF0
aF2.3367673204491674e+18
asS'country'
p122
(lp123
I1
aI2
aI3
aI4
aI5
aI6
aI7
asS'couch_thumbnail_width'
p124
(lp125
F0
aF90
aF117
aF120
asS'directions_to_address'
p126
(lp127
I0
aI1
asS'contribution'
p128
(lp129
F0
aF8.0600000000000005
aF22
aF25
asS'image_count'
p130
(lp131
F0
aF1
aF2
aF3
aF4
aF5
aF7
aF11
aF15
aF29
asS'locations_lived'
p132
(lp133
sS'hometown'
p134
(lp135
F-9.2145352449904681e+18
aF-7.0977187948678431e+18
aF-5.0407209399752387e+18
aF-3.0855926804919224e+18
aF-1.1428865618431174e+18
aF0
aF8.9195130199277274e+17
aF3.0655697339250176e+18
aF4.8765505885892854e+18
aF7.1467138257501645e+18
aF9.1453267781994383e+18
asS'survey_completed'
p136
(lp137
F0
asS'image_width'
p138
(lp139
I0
aF197
aF224
aF225
aF247
aF300
asS'couch_shared'
p140
(lp141
I0
aF8704026181
aF9984030031
aF11392034264
asS'show_optional_icons'
p142
(lp143
F9984030031
aF11392034264
asS'real_first_name'
p144
(lp145
F-9.193415975520468e+18
aF-6.8097408884726876e+18
aF-4.6309684600696545e+18
aF-3.2491321424422886e+18
aF-1.2593101803000371e+18
aF8.730266525832425e+17
aF3.4307391371826156e+18
aF5.4354319072382413e+18
aF6.7140610802325422e+18
aF7.2212850206968596e+18
asS'im_yahoo'
p146
(lp147
F-8.5919428722079406e+18
aF0
aF8.9691167040108974e+18
asS'privacy_show_birthday'
p148
(lp149
F0
aF8320025024
aF8960026951
aF9984030031
asS'city'
p150
(lp151
F-9.1908505565326397e+18
aF-7.1073107572622725e+18
aF-5.1006998058488064e+18
aF-3.480998194339159e+18
aF-1.6400613923086643e+18
aF-65818290831784240
aF2.1521536651614129e+18
aF4.2551250097962685e+18
aF6.0664125915480084e+18
aF7.5853521432961075e+18
asS'user_id'
p152
(lp153
F1
aF1551
aF263967
aF725666
aF1247544
aF1688284
aF2002226
aF2233203
aF2561723
aF2921675
asS'hidden_profile_reminder'
p154
(lp155
F0
aF1207702562
aF1207851244
aF1208412362
aF1236249326
aF1241840286
asS'privacy_hide_search'
p156
(lp157
F9984030031
aF11392034264
asS'couch_surfers_gender'
p158
(lp159
F0
aF8576025794
aF8960026951
aF9856029644
asS'locations_traveled'
p160
(lp161
sS'priority'
p162
(lp163
F-4490
aF-465
aF-312
aF-241
aF-198
aF-155
aF-111
aF-69
aF-9
aF36
asS'seeker'
p164
(lp165
F0
asS'rcd'
p166
(lp167
F0
aF1299007494
asS'user_name'
p168
(lp169
F-9.1816032042300508e+18
aF-8.5210736468941773e+18
aF-6.5491180635967191e+18
aF-5.3918676330696509e+18
aF-3.0362681192713364e+18
aF-1.0344930509564161e+18
aF1.1992580981288486e+18
aF3.4290796455458524e+18
aF5.9497416095475958e+18
aF7.0603464898642555e+18
asS'privacy_hide_name'
p170
(lp171
F9984030031
aF11392034264
asS'website'
p172
(lp173
I0
aI1
asS'amb_city_id'
p174
(lp175
F0
asS'privacy_hide_address'
p176
(lp177
F9984030031
aF11392034264
asS'is_volunteer'
p178
(lp179
F9984030031
aF11392034264
asS'login_count'
p180
(lp181
F1
aF21
aF43
aF71
aF113
aF164
aF239
aF372
aF609
aF1286
asS'last_online'
p182
(lp183
F1214848400
aF1298419368
aF1312526777
aF1320871628
aF1325541230
aF1328132890
aF1329850883
aF1330551767
aF1330904651
aF1331047258
asS'user_type'
p184
(lp185
F10624031954
asS'phone'
p186
(lp187
I0
aI1
asS'is_admin'
p188
(lp189
F0
aF2
aF3
asS'stealth_disable'
p190
(lp191
F9984030031
aF11392034264
asS'bad_email'
p192
(lp193
F9984030031
aF11392034264
asS'couch_image_id'
p194
(lp195
F0
aF28658
aF5776384
aF8635201
aF10808201
asS'volunteer'
p196
(lp197
F9984030031
aF11392034264
asS'is_deleted'
p198
(lp199
F9984030031
aF11392034264
asS'temp'
p200
(lp201
F-3.5983720614552115e+18
aF0
asS'birthdate'
p202
(lp203
F-2139868800
aF16761600
aF252374400
aF347241600
aF414028800
aF466387200
aF517104000
aF558403200
aF594604800
aF632102400
asS'couchsurfing_cares'
p204
(lp205
F11392034264
asS'last_login_latitude'
p206
(lp207
F-54.799999
aF3.1667000000000001
aF32.702598999999999
aF38
aF41.009898999999997
aF43.666697999999997
aF45.950001
aF48.804698999999999
aF50.916697999999997
aF52.466701999999998
asS'state_id'
p208
(lp209
F9
aF484
aF933
aF1025
aF1818
aF3088
aF3547
aF3574
aF3716
aF5151
asS'current_mission'
p210
(lp211
I0
aI10
aI17
aI23
aI30
aI37
aI45
aI56
aI70
aI96
aI246
asS'locations_traveled_count'
p212
(lp213
F0
aF3
aF6
aF8
aF11
aF14
aF18
aF26
asS'region_id'
p214
(lp215
F1
aF6
aF9
asS'name_address_locked'
p216
(lp217
F9984030031
aF11392034264
asS'im_aim'
p218
(lp219
F-8.9742006217630392e+18
aF0
aF5.8420942411526175e+18
asS'updated_at'
p220
(lp221
F734571
aF734572
asS'surf_requests'
p222
(lp223
F0
aF1
aF3
aF6
aF12
aF22
aF25
asS'priority2'
p224
(lp225
F-6
aF8
aF14
aF19
aF20
aF21
aF26
aF30
aF36
asS'privacy_hide_online'
p226
(lp227
F9984030031
aF11392034264
asS'groups_count'
p228
(lp229
F0
aF3
aF4
aF5
aF6
aF8
aF11
aF19
asS'last_login_location'
p230
(lp231
F-9.2204284091101921e+18
aF-7.440668430149077e+18
aF-5.2932750593575731e+18
aF-3.023615552856684e+18
aF-1.2658893137409738e+18
aF0
aF1.5098441485238733e+18
aF3.2213333237547284e+18
aF4.8280677831817984e+18
aF6.8920901431975014e+18
asS'image_caption'
p232
(lp233
F-9.213106882899198e+18
aF-6.1040888908010547e+18
aF-3.0855926804919224e+18
aF0
aF8.1972351534827878e+17
aF3.5073729969227116e+18
aF6.3657712213109934e+18
asS'viewed'
p234
(lp235
F0
aF31
aF84
aF142
aF226
aF351
aF530
aF853
aF1550
aF3258
asS'last_qos_survey'
p236
(lp237
F0
aF1210594552
asS'education'
p238
(lp239
F-9.2165811732575334e+18
aF-6.8173854648414413e+18
aF-4.8185349119575081e+18
aF-2.6066828563277962e+18
aF-4.0205921026797875e+17
aF0
aF4.7162084432205594e+17
aF2.6517644582330158e+18
aF4.5918394656977684e+18
aF6.7908172654697544e+18
aF9.1553039331986012e+18
asS'references_to_count'
p240
(lp241
F0
aF1
aF2
aF4
aF7
aF11
aF16
aF25
aF46
asS'couch_image_width'
p242
(lp243
F0
aF221
aF251
aF300
asS'ethnicity'
p244
(lp245
F-9.1721358259550034e+18
aF-1.5695376331323858e+18
aF0
aF2.3140422221033907e+18
aF8.9433147506989896e+18
asS'privacy_no_newsletter'
p246
(lp247
F9984030031
aF11392034264
asS'profile'
p248
(lp249
sS'max_surfers'
p250
(lp251
F0
aF1
aF2
aF3
asS'emergency_contact'
p252
(lp253
I0
aI1
asS'couch_room'
p254
(lp255
I0
aF8704026181
aF9984030031
aF11392034264
asS'current_destination_id'
p256
(lp257
I0
asS'is_deceased'
p258
(lp259
F9984030031
asS'privacy_no_send_any_emails'
p260
(lp261
F9984030031
aF11392034264
asS'cs_title'
p262
(lp263
F0
aF4.9638467673598382e+18
asS'age'
p264
(lp265
F0
aF23
aF25
aF28
aF33
asS'greetings'
p266
(lp267
F0
aF1
aF2
aF3
aF4
asS'im_skype'
p268
(lp269
F-9.1955661875863941e+18
aF0
aF8.6106615355036191e+18
asS'image_height'
p270
(lp271
I0
aF199
aF201
aF225
aF268
aF300
asS'locations_desired'
p272
(lp273
sS'im_icq'
p274
(lp275
F-8.2583330027442514e+18
aF0
aF7.8765823435247534e+18
asS'im_msn'
p276
(lp277
F-9.118853184147497e+18
aF0
aF8.8339713007772129e+18
as.