(dp1
S'ambassador'
p2
NsS'humanitarian_volunteer'
p3
NsS'last_name'
p4
NsS'city_id'
p5
NsS'country_id'
p6
NsS'couch_available'
p7
NsS'postal_code'
p8
NsS'privacy_hide_profile'
p9
NsS'lat_lng_specific'
p10
NsS'occupation'
p11
NsS'privacy_only_complete_contact'
p12
NsS'verification_level'
p13
NsS'privacy_hide_email'
p14
NsS'languages'
p15
NsS'couch_image_height'
p16
NsS'latitude'
p17
NsS'last_login_longitude'
p18
NsS'exotic_couch'
p19
NsS'address1'
p20
NsS'address2'
p21
NsS'pct_email_replied'
p22
NsS'contribution_reason'
p23
NsS'is_validated'
p24
NsS'tbm'
p25
NsS'thumbnail_height'
p26
NsS'password'
p27
NsS'state_province'
p28
NsS'wheelchair_accessible'
p29
NsS'group_post_mod_threshold'
p30
NsS'last_email_reminder'
p31
NsS'references_count'
p32
NsS'verification_address_edited_date'
p33
NsS'vouched'
p34
NsS'email_format'
p35
NsS'couch_thumbnail_height'
p36
NsS'thumbnail_width'
p37
NsS'sex'
p38
NsS'temp2'
p39
NsS'longitude'
p40
NsS'rmd'
p41
NsS'newsletter'
p42
NsS'couch_description'
p43
NsS'first_name'
p44
NsS'home_destination_id'
p45
NsS'privacy_only_show_members'
p46
NsS'is_activated'
p47
NsS'locations_desired_count'
p48
NsS'couch_clarification'
p49
NsS'friend_link_count'
p50
NsS'last_login'
p51
NsS'locations_going_count'
p52
NsS'email'
p53
NsS'location_converted'
p54
NsS'verification_status'
p55
NsS'timezone_offset'
p56
NsS'locations_going'
p57
NsS'image_id'
p58
NsS'session_salt'
p59
NsS'locations_lived_count'
p60
NsS'couch_contact_method'
p61
NsS'country'
p62
NsS'couch_thumbnail_width'
p63
NsS'directions_to_address'
p64
NsS'contribution'
p65
NsS'image_count'
p66
NsS'locations_lived'
p67
NsS'hometown'
p68
NsS'survey_completed'
p69
NsS'image_width'
p70
NsS'couch_shared'
p71
NsS'show_optional_icons'
p72
NsS'real_first_name'
p73
NsS'im_yahoo'
p74
NsS'privacy_show_birthday'
p75
NsS'city'
p76
NsS'user_id'
p77
NsS'hidden_profile_reminder'
p78
NsS'privacy_hide_search'
p79
NsS'couch_surfers_gender'
p80
NsS'locations_traveled'
p81
NsS'priority'
p82
NsS'seeker'
p83
NsS'rcd'
p84
NsS'user_name'
p85
NsS'privacy_hide_name'
p86
NsS'website'
p87
NsS'amb_city_id'
p88
NsS'privacy_hide_address'
p89
NsS'is_volunteer'
p90
NsS'login_count'
p91
NsS'last_online'
p92
NsS'user_type'
p93
NsS'phone'
p94
NsS'is_admin'
p95
NsS'stealth_disable'
p96
NsS'bad_email'
p97
NsS'couch_image_id'
p98
NsS'volunteer'
p99
NsS'is_deleted'
p100
NsS'temp'
p101
NsS'birthdate'
p102
NsS'couchsurfing_cares'
p103
NsS'last_login_latitude'
p104
NsS'state_id'
p105
NsS'current_mission'
p106
NsS'locations_traveled_count'
p107
NsS'region_id'
p108
NsS'name_address_locked'
p109
NsS'im_aim'
p110
NsS'updated_at'
p111
NsS'surf_requests'
p112
NsS'priority2'
p113
NsS'privacy_hide_online'
p114
NsS'groups_count'
p115
NsS'last_login_location'
p116
NsS'image_caption'
p117
NsS'viewed'
p118
NsS'last_qos_survey'
p119
NsS'education'
p120
NsS'references_to_count'
p121
NsS'couch_image_width'
p122
NsS'ethnicity'
p123
NsS'privacy_no_newsletter'
p124
NsS'max_surfers'
p125
NsS'emergency_contact'
p126
NsS'couch_room'
p127
NsS'current_destination_id'
p128
NsS'is_deceased'
p129
NsS'privacy_no_send_any_emails'
p130
NsS'cs_title'
p131
NsS'age'
p132
NsS'greetings'
p133
NsS'im_skype'
p134
NsS'image_height'
p135
NsS'locations_desired'
p136
NsS'im_icq'
p137
NsS'im_msn'
p138
Ns.