(dp1
S'ambassador'
p2
(lp3
F0
aF8576025794
aF9088027334
aF9984030031
aF10496031571
aF10752032341
asS'humanitarian_volunteer'
p4
(lp5
F11392034264
asS'last_name'
p6
(lp7
F-9.2232032443295642e+18
aF-7.8702434281629553e+18
aF-5.9048846201798113e+18
aF-4.2195330396546688e+18
aF-2.3335566877960018e+18
aF-4.7276680896702618e+17
aF1.4650040098728612e+18
aF3.4383393496828467e+18
aF5.3605364322198927e+18
aF7.3370777518418606e+18
aF9.2138549129412854e+18
asS'city_id'
p8
(lp9
F1083249
aF2061911
aF2910836
aF3360435
aF4230179
aF5011137
aF6064086
aF6238183
aF6430136
aF7616472
aF8437034
asS'country_id'
p10
(lp11
F3
aF40
aF75
aF84
aF94
aF121
aF190
aF223
aF244
aF275
asS'couch_available'
p12
(lp13
F8576025794
aF9856029644
aF9984030031
aF10752032341
aF11392034264
asS'postal_code'
p14
(lp15
F-9.1969025006820823e+18
aF-6.8787059007066778e+18
aF-4.0907653004419471e+18
aF-1.6220439551023849e+18
aF0
aF59781444976211336
aF2.0597824448652111e+18
aF3.4776429022787579e+18
aF4.8140467147556106e+18
aF7.1437333728233349e+18
aF9.160737709807957e+18
asS'privacy_hide_profile'
p16
(lp17
F9984030031
aF11392034264
asS'lat_lng_specific'
p18
(lp19
F0
aF0.89147399999999999
asS'occupation'
p20
(lp21
F-9.2197889937026714e+18
aF-6.8239812186422262e+18
aF-5.6362336528426373e+18
aF-4.6091238916291512e+18
aF-2.1522622024327493e+18
aF0
aF2.1085610751027679e+18
aF4.4960080896531681e+18
aF6.7659551405530051e+18
aF9.1969100420758876e+18
asS'privacy_only_complete_contact'
p22
(lp23
F9984030031
aF11392034264
asS'verification_level'
p24
(lp25
F0
aF1
aF2
aF3
asS'privacy_hide_email'
p26
(lp27
F9984030031
aF11392034264
asS'languages'
p28
(lp29
I0
aF29
aF35
aF47
aF93
aF153
aF163
aF167
aF172
aF281
asS'couch_image_height'
p30
(lp31
F0
aF200
aF225
aF250
aF300
asS'latitude'
p32
(lp33
F-90
aF20.966667000000001
aF35.681969000000002
aF40.215603000000002
aF42.732498
aF45.509726999999998
aF48
aF49.589722000000002
aF51.483333999999999
aF53.2211
aF65.883330999999998
asS'last_login_longitude'
p34
(lp35
F-159.77510100000001
aF-105.264702
aF-79.416702000000001
aF-71.067702999999995
aF-0.63329999999999997
aF3.7166999999999999
aF8.4647000000000006
aF12.833299999999999
aF19.916699999999999
aF54.366698999999997
aF174.78329500000001
asS'exotic_couch'
p36
(lp37
F0
aF1247577955
asS'address1'
p38
(lp39
F-9.2185415724365343e+18
aF-7.1483238640741489e+18
aF-4.9883918340447334e+18
aF-3.1939838222976901e+18
aF-1.2408642158229893e+18
aF0
aF6.1005186096951782e+17
aF2.7753465095470254e+18
aF4.8849959348475904e+18
aF7.2026239250498662e+18
aF9.2057128571935611e+18
asS'address2'
p40
(lp41
F-9.1954750818889656e+18
aF0
aF9.0288594483517788e+18
asS'pct_email_replied'
p42
(lp43
F-1
aF20
aF84
aF100
asS'contribution_reason'
p44
(lp45
F-9.0295371669015583e+18
aF0
aF7.2338725965674404e+18
asS'is_validated'
p46
(lp47
F11392034264
asS'tbm'
p48
(lp49
F9984030031
aF11392034264
asS'thumbnail_height'
p50
(lp51
I0
aF80
aF90
aF120
asS'password'
p52
(lp53
F-9.2228270597299067e+18
aF-7.3954227960235141e+18
aF-5.5064563894812017e+18
aF-3.5302205862150943e+18
aF-1.6501801686563564e+18
aF0
aF1.8166055096943391e+18
aF3.5517993051028731e+18
aF5.4906697054445435e+18
aF7.3440295383411917e+18
aF9.2034357367740877e+18
asS'state_province'
p54
(lp55
F-9.1352949242587976e+18
aF-7.1073157571702723e+18
aF-5.4648637391757752e+18
aF-3.308286263452372e+18
aF-6.0802547290547085e+17
aF4.521549194589175e+17
aF2.2552701426610977e+18
aF3.7547738248222449e+18
aF5.3965349134506732e+18
aF7.0280386781986314e+18
aF9.1586846875274568e+18
asS'wheelchair_accessible'
p56
(lp57
F9984030031
aF10880032724
aF11392034264
asS'group_post_mod_threshold'
p58
(lp59
F-3.1000000000000001
aI0
asS'last_email_reminder'
p60
(lp61
F0
aF1178436816
asS'references_count'
p62
(lp63
F0
aF1
aF3
aF5
aF7
aF10
aF14
aF21
aF36
aF402
asS'verification_address_edited_date'
p64
(lp65
F0
aF1272805508
aF1296697297
aF1330410772
asS'vouched'
p66
(lp67
F0
aF1
aF4
aF112
asS'email_format'
p68
(lp69
F2.3140582220973906e+18
aF7.7995758774657628e+18
asS'couch_thumbnail_height'
p70
(lp71
F0
aF80
aF90
aF117
aF120
asS'thumbnail_width'
p72
(lp73
I0
aF80
aF90
aF110
aF120
asS'sex'
p74
(lp75
F0
aF8576025794
aF8960026951
aF9856029644
asS'temp2'
p76
(lp77
F-9.0202207479173601e+18
aF0
aF7.2151360432595364e+18
asS'longitude'
p78
(lp79
F-166.53666699999999
aF-105.131393
aF-79.381989000000004
aF-69.474441999999996
aF-0.37436199999999997
aF4.4883639999999998
aF8.6333330000000004
aF12.567843999999999
aF18.600000000000001
aF35.299999
aF174.89999399999999
asS'rmd'
p80
(lp81
F0
aF1284238147
aF1297801788
aF1306966869
aF1311877888
aF1315986302
aF1319984832
aF1324129004
aF1327661625
aF1329690954
aF1331082022
asS'newsletter'
p82
(lp83
F11392034264
asS'couch_description'
p84
(lp85
F-8.5600328452562033e+18
aF-2.5786182036989827e+17
aF0
aF4.4414500264543452e+18
aF4.4414520264653455e+18
aF4.4414540264513454e+18
aF4.4414560264643451e+18
aF4.4414570264713452e+18
aF8.5842216844060877e+18
asS'first_name'
p86
(lp87
F-9.222298252053035e+18
aF-7.2755671862043515e+18
aF-5.32321739478413e+18
aF-3.8285935211447327e+18
aF-2.0804754340222884e+18
aF-2.9409707282548627e+17
aF1.6905530869065738e+18
aF3.3911454846643855e+18
aF5.4523214859264113e+18
aF7.3422086795723141e+18
aF9.2100054570038231e+18
asS'home_destination_id'
p88
(lp89
I0
aF1535148
aF4514783
aF7423613
aF9927948
asS'privacy_only_show_members'
p90
(lp91
F9984030031
aF11392034264
asS'is_activated'
p92
(lp93
F9984030031
aF11392034264
asS'locations_desired_count'
p94
(lp95
F0
aF1
aF2
aF5
aF48
asS'couch_clarification'
p96
(lp97
F-7.8797494160106895e+18
aF-6.5165009447361239e+18
aF-6.5165009447351245e+18
aF-5.2360162486369536e+18
aF-5.2360132485249526e+18
aF-5.2360132485159526e+18
aI0
aF5.5617854629061366e+18
asS'friend_link_count'
p98
(lp99
F0
aF1
aF3
aF4
aF7
aF10
aF14
aF21
aF38
aF627
asS'last_login'
p100
(lp101
F0
aF1303090999
aF1314520239
aF1321464260
aF1326048209
aF1328474421
aF1329848490
aF1330543417
aF1330902300
aF1331044318
aF1331094647
asS'locations_going_count'
p102
(lp103
F0
aF1
aF2
aF19
asS'email'
p104
(lp105
F-9.2222249986724198e+18
aF-7.6833499073173176e+18
aF-5.7170956528542423e+18
aF-4.1099597286062065e+18
aF-2.1626951487088527e+18
aF-2.2282059109812122e+17
aF1.707328236213258e+18
aF3.632752751333931e+18
aF5.4681613242493768e+18
aF7.3558831244209132e+18
aF9.2179072995678177e+18
asS'location_converted'
p106
(lp107
F9984030031
aF11392034264
asS'verification_status'
p108
(lp109
F-9.2229627191269796e+18
aF0
aF7.2926691777618033e+18
aF8.4054417323676549e+18
asS'timezone_offset'
p110
(lp111
F-1170
aF-240
aF-120
aF-60
aF0
aF180
aF300
aF420
aF600
asS'locations_going'
p112
(lp113
F-9.1912138854054646e+18
aF-3.9293549457844731e+18
aF0
aF9.1726035986289172e+18
asS'image_id'
p114
(lp115
I0
aF4218825
aF7042598
aF8069675
aF8801043
aF9688024
aF10566468
aF11291790
aF11982491
aF12746202
aF13711954
asS'session_salt'
p116
(lp117
F1
aF366105
aF817321
aF1263866
aF1678863
aF1964002
aF2156288
aF2393872
aF2708517
aF3019694
aF3929889
asS'locations_lived_count'
p118
(lp119
F0
aF1
aF2
aF3
aF4
aF12
asS'couch_contact_method'
p120
(lp121
F-3.868274176114558e+18
aF-3.8682741761075579e+18
aF0
aF2.3367673204491674e+18
asS'country'
p122
(lp123
F-9.0943036641614664e+18
aF-8.5592129678792325e+18
aF-6.6732540599474749e+18
aF-5.3877737255335967e+18
aF-2.0382209784499482e+18
aF-9.095402871749705e+17
aF4.8137543904386899e+17
aF4.0862512257458304e+18
aF9.1431120473110262e+18
asS'couch_thumbnail_width'
p124
(lp125
F0
aF89
aF96
aF120
asS'directions_to_address'
p126
(lp127
F-5.5263961907939779e+18
aF0
aF1.7847421106732326e+18
aF6.529024091847298e+18
aF7.1798773137116221e+18
asS'contribution'
p128
(lp129
F0
aF21.07
aF25
aF115
asS'image_count'
p130
(lp131
F0
aF1
aF2
aF3
aF4
aF5
aF7
aF10
aF14
aF25
aF432
asS'locations_lived'
p132
(lp133
F-9.2181214416915732e+18
aF-6.5903962684825897e+18
aF-5.3877737255335967e+18
aF-1.9362108321982935e+18
aF0
aF1.3544701747236872e+18
aF5.0226644143348797e+18
aF9.1905933422717798e+18
asS'hometown'
p134
(lp135
F-9.2152585908289208e+18
aF-7.1319715793631181e+18
aF-5.0407209399752387e+18
aF-2.9284377102940247e+18
aF-8.7501646818090496e+17
aF0
aF1.378562813013046e+18
aF3.5287848665393101e+18
aF5.1515745008642724e+18
aF7.137984681252566e+18
aF9.2062166947449119e+18
asS'survey_completed'
p136
(lp137
F0
aF1089828008
asS'image_width'
p138
(lp139
I0
aF199
aF225
aF253
aF300
asS'couch_shared'
p140
(lp141
I0
aF8704026181
aF9984030031
aF11392034264
asS'show_optional_icons'
p142
(lp143
F9984030031
aF11392034264
asS'real_first_name'
p144
(lp145
F-9.222469482143274e+18
aF-7.3107435869639956e+18
aF-5.328308034682537e+18
aF-3.6592609151254303e+18
aF-1.5987479448997983e+18
aF3.2051325713640627e+17
aF2.2148528660023731e+18
aF4.0890105592346537e+18
aF5.9597734531420262e+18
aF7.3271363547433554e+18
aF9.2010636235897293e+18
asS'im_yahoo'
p146
(lp147
F-9.1852380570867016e+18
aF0
aF8.9691197041168978e+18
asS'privacy_show_birthday'
p148
(lp149
F0
aF8320025024
aF8960026951
aF9984030031
asS'city'
p150
(lp151
F-9.2192974679673262e+18
aF-6.9455913546072023e+18
aF-5.0909320804249016e+18
aF-3.3417704306415549e+18
aF-1.5308467842068436e+18
aF11500618779161132
aF2.1706121828681518e+18
aF4.1544340091412122e+18
aF5.9301591888507249e+18
aF7.6115488899361812e+18
aF9.1876110852083999e+18
asS'user_id'
p152
(lp153
F1
aF366105
aF817321
aF1263866
aF1678863
aF1964002
aF2156288
aF2393872
aF2708517
aF3019694
aF3929889
asS'hidden_profile_reminder'
p154
(lp155
F0
aF1207702562
aF1207851244
aF1208412362
aF1208460445
aF1210957205
aF1226909913
aF1236249326
aF1241840286
asS'privacy_hide_search'
p156
(lp157
F9984030031
aF11392034264
asS'couch_surfers_gender'
p158
(lp159
F0
aF8576025794
aF8960026951
aF9856029644
asS'locations_traveled'
p160
(lp161
F-9.2229209315309834e+18
aF-6.9978626867184804e+18
aF-4.7723401212742461e+18
aF-2.3440377122715044e+18
aF0
aF2.0793442328578435e+18
aF4.4296543009644001e+18
aF6.8734857982792028e+18
aF9.2198277511401206e+18
asS'priority'
p162
(lp163
F-5907
aF-411
aF-292
aF-229
aF-183
aF-143
aF-102
aF-53
aF0
aF44
aF259
asS'seeker'
p164
(lp165
F0
asS'rcd'
p166
(lp167
F0
aF1289622752
aF1300831686
aF1317249684
asS'user_name'
p168
(lp169
F-9.2186559246546831e+18
aF-7.6069476250151649e+18
aF-5.883427486541866e+18
aF-3.8501419715081308e+18
aF-2.0013049548124526e+18
aF-32513914106439760
aF1.8975820101568323e+18
aF3.7220576714533658e+18
aF5.6207093832238141e+18
aF7.3469507110803384e+18
aF9.1940965619309261e+18
asS'privacy_hide_name'
p170
(lp171
F9984030031
aF11392034264
asS'website'
p172
(lp173
F-9.2166600817121393e+18
aF-1.5240081936737884e+18
aF0
aF1.1196950897084462e+18
aF9.1926264375969966e+18
asS'amb_city_id'
p174
(lp175
F0
aF6363266
asS'privacy_hide_address'
p176
(lp177
F9984030031
aF11392034264
asS'is_volunteer'
p178
(lp179
F9984030031
aF11392034264
asS'login_count'
p180
(lp181
F0
aF20
aF42
aF68
aF104
aF151
aF217
aF323
aF512
aF978
aF14719
asS'last_online'
p182
(lp183
F1214848400
aF1302904416
aF1314458919
aF1321467161
aF1326049759
aF1328478327
aF1329849301
aF1330547090
aF1330909079
aF1331047844
aF1331094755
asS'user_type'
p184
(lp185
F10624031954
asS'phone'
p186
(lp187
F-9.2165336977569178e+18
aF-6.2481681732085002e+18
aF-3.1766222035854751e+18
aF-1.3130761257070085e+17
aF0
aF2.9575653117268777e+18
aF6.1049074977142548e+18
aF9.2054743950973542e+18
asS'is_admin'
p188
(lp189
F0
aF2
aF3
asS'stealth_disable'
p190
(lp191
F9984030031
aF11392034264
asS'bad_email'
p192
(lp193
F9984030031
aF11392034264
asS'couch_image_id'
p194
(lp195
F0
aF425608
aF7319905
aF9240549
aF11221941
aF13678810
asS'volunteer'
p196
(lp197
F9984030031
aF11392034264
asS'is_deleted'
p198
(lp199
F9984030031
aF11392034264
asS'temp'
p200
(lp201
F-3.5983720614552115e+18
aF0
asS'birthdate'
p202
(lp203
F-2147483648
aF165369600
aF324345600
aF400204800
aF456451200
aF499737600
aF536457600
aF570672000
aF603331200
aF642902400
aF746496000
asS'couchsurfing_cares'
p204
(lp205
F11392034264
asS'last_login_latitude'
p206
(lp207
F-54.799999
aF1.2930999999999999
aF32.736801
aF38.107498
aF41.018599999999999
aF43.866698999999997
aF47
aF48.866698999999997
aF51.083302000000003
aF52.516700999999998
aF68.435599999999994
asS'state_id'
p208
(lp209
F9
aF484
aF937
aF1019
aF1615
aF3080
aF3547
aF3574
aF4202
aF5213
aF5645
asS'current_mission'
p210
(lp211
F-9.21654298940066e+18
aF-7.1457172174738063e+18
aF-5.2300353178157384e+18
aF-3.274844950556631e+18
aF-1.2347610048075218e+18
aF0
aF1.2777692647707244e+18
aF3.2480816022945859e+18
aF5.2641326043227494e+18
aF7.2405398875061166e+18
aF9.2123363688946872e+18
asS'locations_traveled_count'
p212
(lp213
F0
aF2
aF5
aF8
aF11
aF14
aF18
aF26
aF113
asS'region_id'
p214
(lp215
F1
aF6
aF9
aF12
asS'name_address_locked'
p216
(lp217
F9984030031
aF11392034264
asS'im_aim'
p218
(lp219
F-9.1180700997921249e+18
aF0
aF8.7670443504167578e+18
asS'updated_at'
p220
(lp221
F734571
aF734572
asS'surf_requests'
p222
(lp223
F0
aF1
aF2
aF5
aF10
aF20
aF25
aF346
asS'priority2'
p224
(lp225
F-6
aF9
aF15
aF20
aF21
aF25
aF30
aF36
aF51
asS'privacy_hide_online'
p226
(lp227
F9984030031
aF11392034264
asS'groups_count'
p228
(lp229
F0
aF3
aF4
aF5
aF6
aF7
aF10
aF17
aF193
asS'last_login_location'
p230
(lp231
F-9.2204284091101921e+18
aF-7.5377370324489841e+18
aF-5.4488118744953344e+18
aF-3.5537167538009825e+18
aF-1.5239057572048878e+18
aF-2.4560279580497584e+17
aF1.2237619969710996e+18
aF3.1725406073660385e+18
aF4.7782996356491448e+18
aF6.8813908384132618e+18
aF9.1655767585219942e+18
asS'image_caption'
p232
(lp233
F-9.2194507271838577e+18
aF-6.2697920489549425e+18
aF-3.4145318630077619e+18
aF-4.5545385623979264e+17
aF0
aF5.3387618967638291e+17
aF3.3328514701809183e+18
aF6.2685588173190461e+18
aF9.189169473805908e+18
asS'viewed'
p234
(lp235
F0
aF29
aF69
aF119
aF186
aF275
aF404
aF609
aF999
aF1956
aF45543
asS'last_qos_survey'
p236
(lp237
F0
aF1217850654
asS'education'
p238
(lp239
F-9.2214499503202058e+18
aF-7.0020619528698245e+18
aF-4.9204566096541594e+18
aF-2.5919074929233684e+18
aF-2.048904056252705e+17
aF0
aF5.2249008250863277e+17
aF2.7990986908529341e+18
aF4.5572938502371523e+18
aF6.7493676500575672e+18
aF9.205597532188372e+18
asS'references_to_count'
p240
(lp241
F0
aF1
aF3
aF5
aF7
aF11
aF15
aF23
aF40
aF450
asS'couch_image_width'
p242
(lp243
F0
aF201
aF225
aF300
asS'ethnicity'
p244
(lp245
F-9.2164040972624435e+18
aF-1.5695376331323858e+18
aF0
aF9.5684614961078938e+17
aF9.1158593611499213e+18
asS'privacy_no_newsletter'
p246
(lp247
F9984030031
aF11392034264
asS'max_surfers'
p248
(lp249
F0
aF1
aF2
aF3
aF99
asS'emergency_contact'
p250
(lp251
F-9.2178297371306834e+18
aF-4.1406520344148972e+18
aF0
aF3.889340266775147e+18
aF9.2011148151146394e+18
asS'couch_room'
p252
(lp253
I0
aF8704026181
aF9984030031
aF11392034264
asS'current_destination_id'
p254
(lp255
I0
asS'is_deceased'
p256
(lp257
F9984030031
asS'privacy_no_send_any_emails'
p258
(lp259
F9984030031
aF11392034264
asS'cs_title'
p260
(lp261
F0
aF2.7452521439507773e+18
aF3.1027938984795003e+18
aF4.9638467673598382e+18
asS'age'
p262
(lp263
F0
aF21
aF23
aF24
aF25
aF26
aF27
aF29
aF31
aF36
aF109
asS'greetings'
p264
(lp265
F0
aF1
aF2
aF3
aF4
aF5
asS'im_skype'
p266
(lp267
F-9.2191274681108859e+18
aF0
aF9.0453737704685763e+18
asS'image_height'
p268
(lp269
I0
aF200
aF210
aF225
aF274
aF300
asS'locations_desired'
p270
(lp271
F-9.2106794880900516e+18
aF-4.3453736557538606e+18
aF0
aF3.6166636580699105e+18
aF9.1687314084446239e+18
asS'im_icq'
p272
(lp273
F-9.0325991033228257e+18
aF0
aF8.974229685426688e+18
asS'im_msn'
p274
(lp275
F-9.1832079512470467e+18
aF0
aF9.0064215330898944e+18
as.