(lp1
(lp2
F3149534.6270051571
aa(lp3
F1681272.1713882661
aa(lp4
F999614.54262608185
aa(lp5
F-12893271872052512
aa(lp6
F1301407609986756.8
aa(lp7
F689936.99119937269
aa(lp8
F685284488.05529535
aa(lp9
F1.4361664006731433e+18
aa(lp10
F15277456.896151926
aa(lp11
F55146.395983669034
aa(lp12
F1.598786986012577e+18
aa(lp13
F788616.60547047365
aa(lp14
F650538682796160.62
aa(lp15
F3.8849074077054331e+18
aa(lp16
F639085533.71682215
aa(lp17
F1.229229716659461
aa(lp18
F3.2308444938696544e+17
aa(lp19
F10562454379.218218
aa(lp20
F9385268278.2950172
aa(lp21
F628967183.9344666
aa(lp22
F-7.2639954269719516
aa(lp23
F306190.91031561024
aa(lp24
F650900275.90158963
aa(lp25
F-5.9761921997387776e+17
aa(lp26
F-1.3135223764040474e+18
aa(lp27
F2183067810487420.8
aa(lp28
F-1773560260260468.5
aa(lp29
F3.0783684374057016e+18
aa(lp30
F8306825983906.9961
aa(lp31
F24906386290782564
aa(lp32
F9645037412.214489
aa(lp33
F26252560506199544
aa(lp34
F165.92261063741591
aa(lp35
F26202638781143500
aa(lp36
F9385550683.1819534
aa(lp37
F3.6280250813570765e+18
aa(lp38
F-2.4550204718819241e+18
aa(lp39
F-3.2767551274569544e+18
aa(lp40
F-761887491081939.88
aa(lp41
F859283720516952.25
aa(lp42
F-1.5035491725359647e+18
aa(lp43
F606490522.26843703
aa(lp44
F-2.9479924747321395e+18
aa(lp45
F563064246.56565702
aa(lp46
F1.6295895218295546e+17
aa(lp47
F22703902.184466638
aa(lp48
F83.871910643210214
aa(lp49
F-4.7671812545076675e+18
aa(lp50
F28.178679036722396
aa(lp51
F2.3501490006117356e+18
aa(lp52
F-1234560375316258
aa(lp53
F9395055193.9140511
aa(lp54
F9383464036.5891991
aa(lp55
F9391059171.923521
aa(lp56
F5076922625.6346121
aa(lp57
F21.869801300594137
aa(lp58
F853363684.60595071
aa(lp59
F194208.03910028125
aa(lp60
F7433909.4479929488
aa(lp61
F277804.76528799825
aa(lp62
F-12.266435471179998
aa(lp63
F0.59248353577194268
aa(lp64
F629023629.46537077
aa(lp65
F79229208.686306328
aa(lp66
F-17892187180863934
aa(lp67
F106.62597321336337
aa(lp68
F82.513866717951757
aa(lp69
F9671250121.3195877
aa(lp70
F1992165.6262307283
aa(lp71
F75149622.037961483
aa(lp72
F79031832.559161872
aa(lp73
F601138698.58533537
aa(lp74
F605007649.20841265
aa(lp75
F10639382684.288858
aa(lp76
F1838429741.9862964
aa(lp77
F-3.7956576070653491e+18
aa(lp78
F600779418.72071946
aa(lp79
F57135.668338385774
aa(lp80
F1840770681.8843772
aa(lp81
F605015753.77974582
aa(lp82
F1280429736.6575398
aa(lp83
F1846477274.0803845
aa(lp84
F10532927121.058624
aa(lp85
F10671205493.173271
aa(lp86
F10554282958.654968
aa(lp87
F9953434972.1345291
aa(lp88
F10013155582.493868
aa(lp89
F10453406042.512001
aa(lp90
F391768.9982762002
aa(lp91
F9981344469.0154018
aa(lp92
F10010102751.050419
aa(lp93
F9420062191.0553246
aa(lp94
F10610281237.430298
aa(lp95
F9772079651.8335514
aa(lp96
F11392032695.081179
aa(lp97
F8669482294.9746189
aa(lp98
F97.30902482182573
aa(lp99
F3932924206.9049568
aa(lp100
F4599146473.6956635
aa(lp101
F19482.989358572646
aa(lp102
F79602.065416363956
aa(lp103
F4.6003089224792435e+17
aa(lp104
F0.35576575934105609
aa(lp105
F9394877906.460165
aa(lp106
F10706662915.332853
aa(lp107
F10706743500.70554
aa(lp108
F9381180104.03755
aa(lp109
F-80192282488403.328
aa(lp110
F7320643139623681
aa(lp111
F9383983333.7788239
aa(lp112
F117761.52521851141
aa(lp113
F505655987.86182523
aa(lp114
F7.242540669887019e+18
aa(lp115
F1.1977188345464189
aa(lp116
F683913262.93844128
aa(lp117
F132307.09289910368
aa(lp118
F11.697706577404963
aa(lp119
F5.3159296373222835
aa(lp120
F-14584016649691212
aa(lp121
F2.3625439592932026e+17
aa(lp122
F-1.0362855958530749e-05
aa(lp123
F685282950.4524312
aa(lp124
F614655052.02777028
aa(lp125
F9392803163.6460819
aa(lp126
F98692.903706782439
aa(lp127
F10692471304.015911
aa.