(lp1
(lp2
F1814043.0312996143
aa(lp3
F-79688897117245584
aa(lp4
F28880364511283224
aa(lp5
F10624031954
aa(lp6
F1.2845316398276254
aa(lp7
F5.8100773354287677e+18
aa(lp8
F351234542.13222951
aa(lp9
F0.00079383080063506468
aa(lp10
F10514147297.223633
aa(lp11
F-187.63653889770924
aa(lp12
F21.772057155817645
aa(lp13
F10991252836.824903
aa(lp14
F9985946117.5044231
aa(lp15
F-66898621383249696
aa(lp16
F2.0187000306809258e+17
aa(lp17
F-3.003068025387209e+17
aa(lp18
F-1.1091250086139512e+17
aa(lp19
F-5383679741657892
aa(lp20
F3.5952360874427405e+17
aa(lp21
F4857110.6494669989
aa(lp22
F2.9164202150561389e+17
aa(lp23
F2652.0440009072354
aa(lp24
F5.3094836683988371e+17
aa(lp25
F17.066795191653437
aa(lp26
F147.44522567475619
aa(lp27
F-3.0435694960381107e+18
aa(lp28
F7.1856430029485141
aa(lp29
F-1.8375757264848861e+17
aa(lp30
F-41776569718608496
aa(lp31
F9997921658.1570644
aa(lp32
F9984030031
aa(lp33
F9999039375.2846451
aa(lp34
F9363348643.7760258
aa(lp35
F28.117146745293716
aa(lp36
F425327456.36289406
aa(lp37
F12.282717169426174
aa(lp38
F9112337.6723746881
aa(lp39
F1050.3702653662963
aa(lp40
F39.141119589589543
aa(lp41
F-13.087847965411624
aa(lp42
F0.0021292603765026082
aa(lp43
F258.21399410297118
aa(lp44
F244.50748469040599
aa(lp45
F104.75062372420049
aa(lp46
F99.332728509866186
aa(lp47
F10254662733.222727
aa(lp48
F3535056.6727149012
aa(lp49
F151.8021093218417
aa(lp50
F137.59843501927875
aa(lp51
F61.74586073939669
aa(lp52
F56.084146064867319
aa(lp53
F10514263423.323883
aa(lp54
F1321840980.7516444
aa(lp55
F-2.0495860726576816e+17
aa(lp56
F36.912089650033792
aa(lp57
F-12.295009536969916
aa(lp58
F1322060695.0560217
aa(lp59
F439.10705375368565
aa(lp60
F1255680624.091404
aa(lp61
F1319087952.5489907
aa(lp62
F10007821438.429916
aa(lp63
F10058597730.797119
aa(lp64
F10144661949.620775
aa(lp65
F9987223508.5073719
aa(lp66
F10247491925.358131
aa(lp67
F9987063834.6320019
aa(lp68
F1105509.5648673167
aa(lp69
F10033369258.488886
aa(lp70
F10084145550.856091
aa(lp71
F10076321530.96303
aa(lp72
F10079195660.719664
aa(lp73
F9417695825.416647
aa(lp74
F11392034264
aa(lp75
F8584953015.2916765
aa(lp76
F2.3888636879110909
aa(lp77
F7081681541.3951006
aa(lp78
F7172768229.2452936
aa(lp79
F10.916647765933318
aa(lp80
F1.5593105012474484
aa(lp81
F1.621002494896802
aa(lp82
F0.56713540485370828
aa(lp83
F10015006762.821501
aa(lp84
F11392034264
aa(lp85
F11392034264
aa(lp86
F9971401279.012928
aa(lp87
F11004.230777954184
aa(lp88
F1.8554093898843276
aa(lp89
F10041672300.008051
aa(lp90
F11372754.345429802
aa(lp91
F2544112.9559990927
aa(lp92
F7.6403229267081185e+18
aa(lp93
F1.2316851893853482
aa(lp94
F17.672601496938082
aa(lp95
F15.89646178271717
aa(lp96
F17.135064640508052
aa(lp97
F8.7339532773871618
aa(lp98
F-17547062672099566
aa(lp99
F3.4037742427795514e+17
aa(lp100
F0
aa(lp101
F55.293263778634611
aa(lp102
F24091870.449421637
aa(lp103
F9986744486.8812656
aa(lp104
F9.2630982082104794
aa(lp105
F11368242856.570084
aa(lp106
F1874740.679972783
aa(lp107
F0
aa(lp108
F6.7688682240870728
aa(lp109
F-1.6628115625949389e+17
aa(lp110
F3858964623543083
aa(lp111
F-0.0014062145611249716
aa(lp112
F11392034264
aa(lp113
F9984828400.3768425
aa(lp114
F116417288.97799955
aa(lp115
F1814043.0312996143
aa(lp116
F734571.11193014286
aa.