(dp1
S'Canada'
p2
S'North America'
p3
sS'East Timor'
p4
S'Asia'
p5
sS'Turkmenistan'
p6
g5
sS''
S''
sS'Saint Pierre and Miquelon'
p7
S'North America'
p8
sS'Ethiopia'
p9
S'Africa'
p10
sS'Swaziland'
p11
g10
sS'Cameroon'
p12
g10
sS'Burkina Faso'
p13
g10
sS'Republic of Ireland'
p14
S'Europe'
p15
sS'Bosnia and Herzegovina'
p16
g15
sS'Sint Eustatius'
p17
g8
sS'Dominica'
p18
g3
sS'Liberia'
p19
g10
sS'Maldives'
p20
g5
sS'Tanzania'
p21
g10
sS'Palestinian Territory'
p22
S'Asia'
p23
sS'S\xc3\xa3o Tom\xc3\xa9 and Pr\xc3\xadncipe'
p24
g10
sS'Seychelles'
p25
g10
sS'Monaco'
p26
g15
sS'Wallis and Futuna'
p27
S'Oceania'
p28
sS'Jersey'
p29
S'Europe'
p30
sS"C\xc3\xb4te d'Ivoire"
p31
g10
sS'South Korea'
p32
g5
sS'Tajikistan'
p33
g5
sS'Turkey'
p34
g5
sS'Afghanistan'
p35
g5
sS'France'
p36
g15
sS'Slovakia'
p37
g15
sS'Vanuatu'
p38
S'Oceania'
p39
sS'Nauru'
p40
g39
sS'Norway'
p41
g15
sS'Malawi'
p42
g10
sS'Montenegro'
p43
g15
sS'Republic of the Congo'
p44
g10
sS'Dominican Republic'
p45
g3
sS'Bahrain'
p46
g5
sS'Cayman Islands'
p47
g8
sS'Libya'
p48
g10
sS'Finland'
p49
g15
sS'Central African Republic'
p50
g10
sS'Ireland (Republic Of)'
p51
g30
sS'Liechtenstein'
p52
g15
sS'Wake Island'
p53
g28
sS'Palau'
p54
g39
sS'United States'
p55
g3
sS'Portugal'
p56
g15
sS'Cyprus'
p57
g5
sS'Malaysia'
p58
g5
sS'Clipperton Island'
p59
g8
sS'Saint Martin'
p60
g8
sS'Guinea'
p61
g10
sS'Panama'
p62
g3
sS'Costa Rica'
p63
g3
sS'Luxembourg'
p64
g15
sS'American Samoa'
p65
g8
sS'Andorra'
p66
g15
sS'Gibraltar'
p67
g30
sS'Wales'
p68
g30
sS'Nigeria'
p69
g10
sS'Ecuador'
p70
S'South America'
p71
sS'US Virgin Islands'
p72
g8
sS'Australia'
p73
g39
sS'El Salvador'
p74
g3
sS'Tuvalu'
p75
g39
sS'Czech Republic'
p76
g15
sS'Thailand'
p77
g5
sS'Belize'
p78
g3
sS'Sierra Leone'
p79
g10
sS'Georgia'
p80
g5
sS'Denmark'
p81
g15
sS'Poland'
p82
g15
sS'Moldova'
p83
g15
sS'Morocco'
p84
g10
sS'Guernsey'
p85
g30
sS'Ireland (Republic of)'
p86
g30
sS'Bonaire'
p87
g8
sS'Estonia'
p88
g15
sS'Kosovo'
p89
g30
sS'Lebanon'
p90
g5
sS'Uzbekistan'
p91
g5
sS'Colombia'
p92
g71
sS'Taiwan'
p93
g23
sS'Fiji'
p94
g39
sS'Barbados'
p95
g3
sS'Falkland Islands (Islas Malvinas)'
p96
S'South America'
p97
sS'Madagascar'
p98
g10
sS'Italy'
p99
g15
sS'Sudan'
p100
g10
sS'Nepal'
p101
g5
sS'Micronesia'
p102
g28
sS'Netherlands'
p103
g30
sS'Suriname'
p104
g71
sS'Kingdom of the Netherlands'
p105
g15
sS'Anguilla'
p106
g8
sS'Israel'
p107
g5
sS'Myanmar (Burma)'
p108
g23
sS'Venezuela'
p109
g71
sS'Senegal'
p110
g10
sS'Papua New Guinea'
p111
g39
sS'Zimbabwe'
p112
g10
sS'Jordan'
p113
g5
sS'Martinique'
p114
g8
sS'Eritrea'
p115
g10
sS'Northern Ireland'
p116
g30
sS'Coral Sea Islands'
p117
g28
sS'Trinidad and Tobago'
p118
g3
sS'Latvia'
p119
g15
sS'Japan'
p120
g5
sS'Syria'
p121
g5
sS'Saba'
p122
g8
sS'Sint Maarten'
p123
g8
sS'Mexico'
p124
g3
sS'Serbia'
p125
g15
sS'United Kingdom'
p126
g15
sS"People's Republic of China"
p127
g5
sS'Greece'
p128
g15
sS'Paraguay'
p129
g71
sS'French Guiana'
p130
g97
sS'Botswana'
p131
g10
sS'Sao Tome and Principe'
p132
S'Africa'
p133
sS'Lithuania'
p134
g15
sS'Cambodia'
p135
g5
sS'Saint Helena, Ascension and Tristan da Cunha'
p136
g133
sS'The Gambia'
p137
g10
sS'Aruba'
p138
g8
sS'Argentina'
p139
g71
sS'Bolivia'
p140
g71
sS'Ghana'
p141
g10
sS'Saudi Arabia'
p142
g5
sS'Cape Verde'
p143
g10
sS'Slovenia'
p144
g15
sS'Guatemala'
p145
g3
sS'The Bahamas'
p146
g8
sS'Saint Barthelemy'
p147
g8
sS'Spain'
p148
g15
sS'Glorioso Islands'
p149
g8
sS'Jamaica'
p150
g3
sS'Oman'
p151
g5
sS'Albania'
p152
g15
sS'Gabon'
p153
g10
sS'Niue'
p154
g28
sS'Vatican'
p155
g30
sS'Bahamas'
p156
g3
sS'England'
p157
g30
sS'New Zealand'
p158
g39
sS'Yemen'
p159
g5
sS'South Sudan Republic'
p160
g133
sS'Pakistan'
p161
g5
sS'Greenland'
p162
g8
sS'Samoa'
p163
g39
sS'Sudan Republic'
p164
g133
sS'British Indian Ocean Territory'
p165
g23
sS'Equatorial Guinea'
p166
g10
sS'Macedonia-FYROM'
p167
g30
sS'United Arab Emirates'
p168
g5
sS'Guam'
p169
g28
sS'India'
p170
g5
sS'Azerbaijan'
p171
g5
sS"Cote D'Ivoire"
p172
g133
sS'Lesotho'
p173
g10
sS'Congo (Brazzaville)'
p174
g133
sS'Saint Vincent and the Grenadines'
p175
g3
sS'Kenya'
p176
g10
sS'Northern Mariana Islands'
p177
g28
sS'Mauritania'
p178
g10
sS'Solomon Islands'
p179
g39
sS'Turks and Caicos Islands'
p180
g8
sS'Saint Lucia'
p181
g3
sS'San Marino'
p182
g15
sS'Mongolia'
p183
g5
sS'Europa Island'
p184
g30
sS'Rwanda'
p185
g10
sS'Somalia'
p186
g10
sS'Peru'
p187
g71
sS'Laos'
p188
g5
sS'Cook Islands'
p189
g28
sS'Benin'
p190
g10
sS'Federated States of Micronesia'
p191
g39
sS'Cuba'
p192
g3
sS'Saint Kitts and Nevis'
p193
g3
sS'Togo'
p194
g10
sS'China'
p195
g23
sS'Armenia'
p196
g5
sS'Ukraine'
p197
g15
sS'Tonga'
p198
g39
sS'Western Sahara'
p199
g133
sS'Indonesia'
p200
g5
sS'Mauritius'
p201
g10
sS'Sweden'
p202
g15
sS'Vietnam'
p203
g5
sS'British Virgin Islands'
p204
g8
sS'Mali'
p205
g10
sS'Vatican City'
p206
g15
sS'Russia'
p207
g15
sS'Bulgaria'
p208
g15
sS'Romania'
p209
g15
sS'Angola'
p210
g10
sS'Chad'
p211
g10
sS'South Africa'
p212
g10
sS'Tokelau'
p213
g28
sS'Brunei Darussalam'
p214
g5
sS'Qatar'
p215
g5
sS'Austria'
p216
g15
sS'Mozambique'
p217
g10
sS'Uganda'
p218
g10
sS'Hungary'
p219
g15
sS'Niger'
p220
g10
sS'Brazil'
p221
g71
sS'Faroe Islands'
p222
g30
sS'Scotland'
p223
g30
sS'Guadeloupe'
p224
g8
sS'Bangladesh'
p225
g5
sS'Belarus'
p226
g15
sS'Iran'
p227
g5
sS'Algeria'
p228
g10
sS'Marshall Islands'
p229
g39
sS'Chile'
p230
g71
sS'Puerto Rico'
p231
g8
sS'Belgium'
p232
g15
sS'Kiribati'
p233
g39
sS'Haiti'
p234
g3
sS'Iraq'
p235
g5
sS'Namibia'
p236
g10
sS'French Polynesia'
p237
g28
sS'Guinea-Bissau'
p238
g10
sS'Switzerland'
p239
g15
sS'Grenada'
p240
g3
sS'Isle of Man'
p241
g30
sS'Uruguay'
p242
g71
sS'Bouvet Island'
p243
S'Antarctica'
p244
sS'Tunisia'
p245
g10
sS'Djibouti'
p246
g10
sS'Bermuda'
p247
g8
sS'Antigua and Barbuda'
p248
g3
sS'Reunion'
p249
g133
sS'Burundi'
p250
g10
sS'Nicaragua'
p251
g3
sS'Curacao'
p252
g8
sS'Bhutan'
p253
g5
sS'Malta'
p254
g15
sS'Democratic Republic of the Congo'
p255
g10
sS'Paracel Islands'
p256
g23
sS'Kuwait'
p257
g5
sS'Iceland'
p258
g15
sS'Zambia'
p259
g10
sS'Germany'
p260
g15
sS'Kazakhstan'
p261
g5
sS'Philippines'
p262
g5
sS'Kyrgyzstan'
p263
g5
sS'Mayotte'
p264
g133
sS'DR Congo (Kinshasa)'
p265
g133
sS'Montserrat'
p266
g8
sS'New Caledonia'
p267
g28
sS'Macedonia'
p268
g15
sS'North Korea'
p269
g5
sS'Guyana'
p270
g71
sS'Honduras'
p271
g3
sS'Myanmar'
p272
g5
sS'Egypt'
p273
g10
sS'French Southern and Antarctic Lands'
p274
g244
sS'Singapore'
p275
g5
sS'Antarctica'
p276
g244
sS'Sri Lanka'
p277
g5
sS'Croatia'
p278
g15
sS'Comoros'
p279
g10
s.