(lp1
S'Canada'
p2
aS''
aS'Saint Helena'
p3
aS'Serbia and Montenegro'
p4
aS'Vatican City (Holy See)'
p5
aS'Southeast Asia... not necessarily in that order.'
p6
aS'Swaziland'
p7
aS'Cameroon'
p8
aS'Burkina Faso'
p9
aS'Cocos (Keeling) Islands'
p10
aS'Atlanta'
p11
aS'Sint Eustatius'
p12
aS'Dominica'
p13
aS'Adriatic Sea coastline'
p14
aS'Alaska'
p15
aS'Wallis and Futuna'
p16
aS'Kingman Reef'
p17
aS'Jersey'
p18
aS'Macau'
p19
aS'Madagascar'
p20
aS'South Korea'
p21
aS'Tajikistan'
p22
aS'Turkey'
p23
aS'Falkland Islands'
p24
aS'Gaza Strip'
p25
aS'Slovakia'
p26
aS'Nauru'
p27
aS'Norway'
p28
aS'I traveled when I was younger to a bunch of places.  But as an adult'
p29
aS'Korea'
p30
aS'Montenegro'
p31
aS'L.A.'
p32
aS'Bethel AK.\r\nNot counting extended visits'
p33
aS'Indonesia'
p34
aS'Libya'
p35
aS'Finland'
p36
aS'Central African Republic'
p37
aS'Liechtenstein'
p38
aS'Wake Island'
p39
aS'Ohio'
p40
aS'Mauritius'
p41
aS'Portugal'
p42
aS'Cyprus'
p43
aS'Blanchard'
p44
aS'Baker Island'
p45
aS'Washington state'
p46
aS'Saint Martin'
p47
aS'Kuwait'
p48
aS'Costa Rica'
p49
aS'Wales'
p50
aS'Nigeria'
p51
aS'Ecuador'
p52
aS'US Virgin Islands'
p53
aS'Australia'
p54
aS'Tuvalu'
p55
aS'Pitcairn Islands'
p56
aS'Netherlands Antilles'
p57
aS'Hong Kong'
p58
aS'Denmark'
p59
aS'Philippines'
p60
aS'Morocco'
p61
aS'everywhere'
p62
aS'Beberibe'
p63
aS'Estonia'
p64
aS'Kosovo'
p65
aS'Lebanon'
p66
aS'anywhere'
p67
aS'Colombia'
p68
aS'South-east Asia'
p69
aS'Palau'
p70
aS'Liberia'
p71
aS'Orlando FL'
p72
aS'Nepal'
p73
aS'Netherlands'
p74
aS'Suriname'
p75
aS'Myanmar (Burma)'
p76
aS'Austria'
p77
aS'Hartford'
p78
aS'Eritrea'
p79
aS'Iraq'
p80
aS'Coral Sea Islands'
p81
aS'Syria'
p82
aS'Mexico'
p83
aS'Just about everywhere'
p84
aS'Jarvis Island'
p85
aS'Northern Ireland'
p86
aS'???'
p87
aS'Sao Tome and Principe'
p88
aS'the Deserts of the US'
p89
aS'Wyoming'
p90
aS'Rio de Janeiro'
p91
aS'Bolivia'
p92
aS'Ghana'
p93
aS'Saudi Arabia'
p94
aS'Micro and Meganesias... Hawaii... Space... Bottom of the ocean... and anywhere else I did not mention.'
p95
aS'Cape Verde'
p96
aS'to delete'
p97
aS'Guatemala'
p98
aS'Johnston Atoll'
p99
aS'Jordan'
p100
aS'Saint Barthelemy'
p101
aS'Spain'
p102
aS'Glorioso Islands'
p103
aS'Namibia'
p104
aS'Oman'
p105
aS'Saint Vincent/Grenadines'
p106
aS'Gabon'
p107
aS'Niue'
p108
aS'Vatican'
p109
aS"I've got my eye on South America and Australia/New Zealand."
p110
aS'Bodies of water'
p111
aS'Greenland'
p112
aS'Sudan Republic'
p113
aS'Macedonia-FYROM'
p114
aS'United Arab Emirates'
p115
aS'India'
p116
aS'Lesotho'
p117
aS'Kenya'
p118
aS'Czech Republic'
p119
aS'Solomon Islands'
p120
aS'San Marino'
p121
aS'French Polynesia'
p122
aS'Europa Island'
p123
aS'Bermuda'
p124
aS'Peru'
p125
aS'Howland Island'
p126
aS'to_delete_1'
p127
aS'Benin'
p128
aS'China'
p129
aS'Ukraine'
p130
aS'Tonga'
p131
aS'Tromelin Island'
p132
aS'Western Sahara'
p133
aS'Palo Alto CA'
p134
aS'Cayman Islands'
p135
aS'United States'
p136
aS'Mali'
p137
aS'Bulgaria'
p138
aS'Angola'
p139
aS'Chad'
p140
aS'South Africa'
p141
aS'Tokelau'
p142
aS'Brunei Darussalam'
p143
aS'Senegal'
p144
aS'Uganda'
p145
aS'Hungary'
p146
aS'Niger'
p147
aS'Brazil'
p148
aS'various cities.'
p149
aS'Puget sound'
p150
aS'Saba'
p151
aS'Iran'
p152
aS'Algeria'
p153
aS'Marshall Islands'
p154
aS'Belgium'
p155
aS'Texas.'
p156
aS'Haiti'
p157
aS"I'm going to Europe in August 03. I'll be stopping in Paris"
p158
aS'Guinea-Bissau'
p159
aS'Kiribati'
p160
aS'Isle of Man'
p161
aS'Colorado'
p162
aS'Equatorial Guinea'
p163
aS'Mouth of the Amazon river and all the beaches in between.\r\nWould really like to tarce some of my Gypsy roots in Romenia.\r\n...and the list goes on...Australia'
p164
aS'Djibouti'
p165
aS'New York'
p166
aS'Antigua and Barbuda'
p167
aS'Reunion'
p168
aS'Nicaragua'
p169
aS'Curacao'
p170
aS'Serbia'
p171
aS'Everywhere!'
p172
aS'Palmyra Atoll'
p173
aS'Southern California'
p174
aS'Paracel Islands'
p175
aS'Venezuela'
p176
aS'Iceland'
p177
aS'Zambia'
p178
aS'Germany'
p179
aS'Kazakhstan'
p180
aS'Kyrgyzstan'
p181
aS'Greece'
p182
aS'Montserrat'
p183
aS'Hawaii'
p184
aS'Arizona'
p185
aS'Guyana'
p186
aS'Burma'
p187
aS'Honduras'
p188
aS'Central America'
p189
aS'Prague'
p190
aS'Antarctica'
p191
aS'Massachusettes'
p192
aS'Brasil: Petropolis'
p193
aS'Amsterdam'
p194
aS'I have not left the American continent yet'
p195
aS'Comoros'
p196
aS'East Timor'
p197
aS'Turkmenistan'
p198
aS'WA'
p199
aS'Rural & suburban Southeastern Pennsylvania - the city of Philadelphia'
p200
aS'Saint Pierre and Miquelon'
p201
aS'Ethiopia'
p202
aS'so that will be happening soon.\r\nLooking fwd to the places I will be visiting by Kayak: Inside Passage'
p203
aS'Republic of Ireland'
p204
aS'Bosnia and Herzegovina'
p205
aS'Holy See (Vatican City)'
p206
aS'Ashmore and Cartier Islands'
p207
aS'Every country in western europe and a few in the east... Canada naturally and a few border towns in Mexico...\r\nDoes Alaska count as foreign?'
p208
aS'Maldives'
p209
aS'Tanzania'
p210
aS'Palestinian Territory'
p211
aS'Christmas Island'
p212
aS'Monaco'
p213
aS'Spratly Islands'
p214
aS'Macedonia - FYROM (Skopje)'
p215
aS'New Jersey'
p216
aS'Svalbard'
p217
aS'Morro Branco\r\nU.S.: Tucson AZ'
p218
aS'Afghanistan'
p219
aS'France'
p220
aS'Vanuatu'
p221
aS'Malawi'
p222
aS'China...Africa...Siberia... Poly'
p223
aS'Wisconsin'
p224
aS'New York City'
p225
aS'Oregon'
p226
aS'Bassas da India'
p227
aS'Virgin Islands'
p228
aS'Dominican Republic'
p229
aS'St. Pierre & Miquelon'
p230
aS'Florida'
p231
aS'Ireland (Republic Of)'
p232
aS'Heard & McDonald Islands'
p233
aS'Panama Canal'
p234
aS"Arraial d'Ajuda"
p235
aS'Palestinian National Authority'
p236
aS'Sea of cortez'
p237
aS'Palestine (Occupied Palestinian Territory)'
p238
aS'North Carolina'
p239
aS'Malaysia'
p240
aS'Clipperton Island'
p241
aS'Palestine (Occupied Territories of)'
p242
aS'Guinea'
p243
aS'Panama'
p244
aS'Luxembourg'
p245
aS'American Samoa'
p246
aS'Bahamas'
p247
aS'Gibraltar'
p248
aS'Ireland'
p249
aS'the US'
p250
aS'USA'
p251
aS'El Salvador'
p252
aS'California'
p253
aS'Thailand'
p254
aS'(Canada)'
p255
aS'Sierra Leone'
p256
aS'Toronto'
p257
aS'Georgia'
p258
aS'Pennsylvania'
p259
aS'Poland'
p260
aS'Moldova'
p261
aS'South Georgia & Sandwich Is.'
p262
aS'Guernsey'
p263
aS'Ireland (Republic of)'
p264
aS'Bonaire'
p265
aS'Uzbekistan'
p266
aS'United Kingdom (to delete)'
p267
aS'Taiwan'
p268
aS'Fiji'
p269
aS'Barbados'
p270
aS'Falkland Islands (Islas Malvinas)'
p271
aS'Qatar'
p272
aS'Italy'
p273
aS'Sudan'
p274
aS'Palestinian Territories'
p275
aS'Right now'
p276
aS'Micronesia'
p277
aS'only to Korea and around the states.'
p278
aS'Anguilla'
p279
aS'Ashmore Cartier Is.'
p280
aS'Israel'
p281
aS'Papua New Guinea'
p282
aS'Zimbabwe'
p283
aS'British Indian Ocean Territory'
p284
aS'Martinique'
p285
aS'Mauritania'
p286
aS'Budapest'
p287
aS'Trinidad and Tobago'
p288
aS'Latvia'
p289
aS'Boston MA'
p290
aS'Guadeloupe'
p291
aS'United Kingdom'
p292
aS'Paraguay'
p293
aS'Botswana'
p294
aS'so much more'
p295
aS'Lithuania'
p296
aS'Cambodia'
p297
aS'The Gambia'
p298
aS'Fortaleza'
p299
aS'Aruba'
p300
aS'San Francisco'
p301
aS'Argentina'
p302
aS'Bahrain'
p303
aS'Ascension and Tristan da Cunha'
p304
aS'Scotland.'
p305
aS'Slovenia'
p306
aS'Connecticut'
p307
aS'The Bahamas'
p308
aS'Congo (Kinshasa)'
p309
aS'Pakistan'
p310
aS'Jan Mayen'
p311
aS'French Guiana'
p312
aS'England'
p313
aS'New Zealand'
p314
aS'Yemen'
p315
aS'South Sudan Republic'
p316
aS'Jamaica'
p317
aS'Albania'
p318
aS'West Bank'
p319
aS'Norfolk Island'
p320
aS'Guam'
p321
aS'Azerbaijan'
p322
aS'Samoa'
p323
aS'Congo (Brazzaville)'
p324
aS'Saint Vincent and the Grenadines'
p325
aS'Anywhere/Everywhere... the South Pacific'
p326
aS'Bangladesh'
p327
aS'Saint Lucia'
p328
aS'Rwanda'
p329
aS'Somalia'
p330
aS'Laos'
p331
aS'Cook Islands'
p332
aS'Cuba'
p333
aS'Saint Kitts and Nevis'
p334
aS'Togo'
p335
aS'Montana'
p336
aS'Armenia'
p337
aS'bRaZiL'
p338
aS'Sweden'
p339
aS'Vietnam'
p340
aS'British Virgin Islands'
p341
aS'Macedonia'
p342
aS'most of North America'
p343
aS'Vatican City'
p344
aS'Austrailia'
p345
aS'New Zeland'
p346
aS'Russia'
p347
aS'Romania'
p348
aS'French So. & Antarctic Lands'
p349
aS'South Georgia and the South Sandwich Islands'
p350
aS'US'
p351
aS'South America'
p352
aS'Mozambique'
p353
aS'Japan'
p354
aS'Sint Maarten'
p355
aS'Juan de Nova Island'
p356
aS'Caraivas'
p357
aS'Belize'
p358
aS'Faroe Islands'
p359
aS'Scotland'
p360
aS'Northern Mariana Islands'
p361
aS'Brunei'
p362
aS'Belarus'
p363
aS'Anchorage AK'
p364
aS'Bali'
p365
aS'Midway Islands'
p366
aS'Kissimmee/St.cloud FL'
p367
aS'Kunming'
p368
aS'Chile'
p369
aS'Puerto Rico'
p370
aS'Croatia'
p371
aS'Mongolia'
p372
aS'Switzerland'
p373
aS'Grenada'
p374
aS'British Indian Ocean Terr.'
p375
aS'Navassa Island'
p376
aS'Seychelles'
p377
aS'Hong Kong (to delete)'
p378
aS'Uruguay'
p379
aS'Undersea features'
p380
aS'Egypt'
p381
aS'Heard Island and McDonald Islands'
p382
aS'Burundi'
p383
aS'Turks and Caicos Islands'
p384
aS'Bhutan'
p385
aS'Malta'
p386
aS'Bouvet Island'
p387
aS'Patagonia'
p388
aS"Cote D'Ivoire"
p389
aS'Stanford'
p390
aS'Mayotte'
p391
aS'DR Congo (Kinshasa)'
p392
aS'New Caledonia'
p393
aS'Andorra'
p394
aS'North Korea'
p395
aS'Crete'
p396
aS'Trancoso'
p397
aS'Tunisia'
p398
aS'French Southern and Antarctic Lands'
p399
aS'Singapore'
p400
aS'Yugoslavia'
p401
aS'Sri Lanka'
p402
a.