(dp1
I0
S'anatomy'
p2
sI1
S'anthropology'
p3
sI2
S'cosmology'
p4
sI3
S'culture'
p5
sI4
S'hiking'
p6
sI5
S'learning'
p7
sI6
S'philosophy'
p8
sI7
S'physiology'
p9
sI8
S'sociology'
p10
sI9
S'movies'
p11
sI10
S'music'
p12
sI11
S'son'
p13
sI12
S'video'
p14
sI13
S'cycling'
p15
sI14
S'business'
p16
sI15
S'nature'
p17
sI16
S'travel'
p18
sI17
S'tennis'
p19
sI18
S'spirituality'
p20
sI19
S'adventure'
p21
sI20
S'skiing'
p22
sI21
S'breakbeat'
p23
sI22
S'technology'
p24
sI23
S'cooking'
p25
sI24
S'regional'
p26
sI25
S'fishing'
p27
sI26
S'tropical'
p28
sI27
S'boating'
p29
sI28
S'hip hop'
p30
sI29
S'bluegrass'
p31
sI30
S'snowboarding'
p32
sI31
S'alternative'
p33
sI32
S'rafting'
p34
sI33
S'breaking'
p35
sI34
S'wine'
p36
sI35
S'camping'
p37
sI36
S'city'
p38
sI37
S'poetry'
p39
sI38
S'climbing'
p40
sI39
S'dancing'
p41
sI40
S'diving'
p42
sI41
S'instrumentation'
p43
sI42
S'kayaking'
p44
sI43
S'line'
p45
sI44
S'style'
p46
sI45
S'gardening'
p47
sI46
S'mountain biking'
p48
sI47
S'psychology'
p49
sI48
S'traveling'
p50
sI49
S'theatre'
p51
sI50
S'horror'
p52
sI51
S'japanese'
p53
sI52
S'writing'
p54
sI53
S'painting'
p55
sI54
S'working out'
p56
sI55
S'park'
p57
sI56
S'urbanism'
p58
sI57
S'yoga'
p59
sI58
S'rugby'
p60
sI59
S'art'
p61
sI60
S'new country'
p62
sI61
S'theater'
p63
sI62
S'languages'
p64
sI63
S'photography'
p65
sI64
S'sports'
p66
sI65
S'literature'
p67
sI66
S'places'
p68
sI67
S'biking'
p69
sI68
S'electronics'
p70
sI69
S'fusion'
p71
sI70
S'science'
p72
sI71
S'synthesizer'
p73
sI72
S'theory'
p74
sI73
S'sport'
p75
sI74
S'football'
p76
sI75
S'partying'
p77
sI76
S'arts'
p78
sI77
S'journalism'
p79
sI78
S'fashion'
p80
sI79
S'politics'
p81
sI80
S'dance'
p82
sI81
S'theatre music'
p83
sI82
S'standards'
p84
sI83
S'movie'
p85
sI84
S'kitesurfing'
p86
sI85
S'hobbies'
p87
sI86
S'paragliding'
p88
sI87
S'outdoor'
p89
sI88
S'motorcycling'
p90
sI89
S'running'
p91
sI90
S'computer'
p92
sI91
S'riding'
p93
sI92
S'animals'
p94
sI93
S'food'
p95
sI94
S'public radio'
p96
sI95
S'scuba diving'
p97
sI96
S'mina'
p98
sI97
S'skydiving'
p99
sI98
S'sailing'
p100
sI99
S'basketball'
p101
sI100
S'bicycling'
p102
sI101
S'paddling'
p103
sI102
S'surfing'
p104
sI103
S'rock'
p105
sI104
S'swimming'
p106
sI105
S'player piano'
p107
sI106
S'drawing'
p108
sI107
S'collecting'
p109
sI108
S'mystery'
p110
sI109
S'communication'
p111
sI110
S'diy'
p112
sI111
S'historical'
p113
sI112
S'welfare'
p114
sI113
S'trivia'
p115
sI114
S'migration'
p116
sI115
S'cinema'
p117
sI116
S'entrepreneurship'
p118
sI117
S'meditation'
p119
sI118
S'metaphysics'
p120
sI119
S'filmi'
p121
sI120
S'airsoft'
p122
sI121
S'parachuting'
p123
sI122
S'guitars'
p124
sI123
S'fiction'
p125
sI124
S'golf'
p126
sI125
S'windsurfing'
p127
sI126
S'animal'
p128
sI127
S'history'
p129
sI128
S'hobby'
p130
sI129
S'beauty'
p131
sI130
S'celebrities'
p132
sI131
S'country'
p133
sI132
S'drums'
p134
sI133
S'group'
p135
sI134
S'relationships'
p136
sI135
S'storytelling'
p137
sI136
S'women'
p138
sI137
S'worldwide'
p139
sI138
S'books'
p140
sI139
S'catch'
p141
sI140
S'evolution'
p142
sI141
S'rara'
p143
sI142
S'architecture'
p144
sI143
S'creativity'
p145
sI144
S'design'
p146
sI145
S'visualization'
p147
sI146
S'board games'
p148
sI147
S'card game'
p149
sI148
S'wakeboarding'
p150
sI149
S'western'
p151
sI150
S'origami'
p152
sI151
S'water polo'
p153
sI152
S'trumpet'
p154
sI153
S'environment'
p155
sI154
S'health'
p156
sI155
S'graphic artist'
p157
sI156
S'chill'
p158
sI157
S'canoeing'
p159
sI158
S'computer programming'
p160
sI159
S'boxing'
p161
sI160
S'fitness'
p162
sI161
S'funk'
p163
sI162
S'human rights'
p164
sI163
S'jazz rap'
p165
sI164
S'martial arts'
p166
sI165
S'percussion'
p167
sI166
S'sexuality'
p168
sI167
S'soul'
p169
sI168
S'tattoo'
p170
sI169
S'economics'
p171
sI170
S'modern art'
p172
sI171
S'international law'
p173
sI172
S'professional'
p174
sI173
S'pop music'
p175
sI174
S'latin'
p176
sI175
S'snowshoe'
p177
sI176
S'visual arts'
p178
sI177
S'digital media'
p179
sI178
S'qigong'
p180
sI179
S'shamisen'
p181
sI180
S'didgeridoo'
p182
sI181
S'astrology'
p183
sI182
S'siter'
p184
sI183
S'art history'
p185
sI184
S'language'
p186
sI185
S'walking'
p187
sI186
S'local'
p188
sI187
S'banda music'
p189
sI188
S'transport'
p190
sI189
S'kung fu'
p191
sI190
S'skateboarding'
p192
sI191
S'ent'
p193
sI192
S'manga'
p194
sI193
S'community organization'
p195
sI194
S'sampler'
p196
sI195
S'alternative health'
p197
sI196
S'electronic music'
p198
sI197
S'portuguese'
p199
sI198
S'bass'
p200
sI199
S'laughter'
p201
sI200
S'wrestling'
p202
sI201
S'torch song'
p203
sI202
S'acting'
p204
sI203
S'performance'
p205
sI204
S'comedy'
p206
sI205
S'improvisational comedy'
p207
sI206
S'art music'
p208
sI207
S'mountaineering'
p209
sI208
S'nlp'
p210
sI209
S'paleontology'
p211
sI210
S'table tennis'
p212
sI211
S'archeology'
p213
sI212
S'salsa'
p214
sI213
S'german'
p215
sI214
S'pop'
p216
sI215
S'society'
p217
sI216
S'hard trance'
p218
sI217
S'rave music'
p219
sI218
S'synth'
p220
sI219
S'electro'
p221
sI220
S'shopping'
p222
sI221
S'digital'
p223
sI222
S'techno'
p224
sI223
S'graphics'
p225
sI224
S'mod'
p226
sI225
S'davul'
p227
sI226
S'drop'
p228
sI227
S'ids'
p229
sI228
S'vocals'
p230
sI229
S'ebm'
p231
sI230
S'baseball'
p232
sI231
S'video games'
p233
sI232
S'aviation'
p234
sI233
S'emergence'
p235
sI234
S'racing'
p236
sI235
S'turtle'
p237
sI236
S'ornithology'
p238
sI237
S'guitar'
p239
sI238
S'anime'
p240
sI239
S'softball'
p241
sI240
S'herpetology'
p242
sI241
S'buddhism'
p243
sI242
S'folk'
p244
sI243
S'medicine'
p245
sI244
S'wine making'
p246
sI245
S'kiteboarding'
p247
sI246
S'disco'
p248
sI247
S'film'
p249
sI248
S'sculpture'
p250
sI249
S'blues music'
p251
sI250
S'soccer'
p252
sI251
S'numismatics'
p253
sI252
S'tv'
p254
sI253
S'coco'
p255
sI254
S'family'
p256
sI255
S'tuba'
p257
sI256
S'silat'
p258
sI257
S'semantics'
p259
sI258
S'bass guitar'
p260
sI259
S'classical guitar'
p261
sI260
S'classics'
p262
sI261
S'drum'
p263
sI262
S'electric guitar'
p264
sI263
S'other sports'
p265
sI264
S'recreation'
p266
sI265
S'spinning'
p267
sI266
S'training'
p268
sI267
S'volleyball'
p269
sI268
S'animation'
p270
sI269
S'psychedelic rock'
p271
sI270
S'punk rock'
p272
sI271
S'rock music'
p273
sI272
S'science fiction'
p274
sI273
S'knitting'
p275
sI274
S'film music'
p276
sI275
S'printing'
p277
sI276
S'computer music'
p278
sI277
S'french'
p279
sI278
S'fantasy'
p280
sI279
S'piano'
p281
sI280
S'star trek'
p282
sI281
S'rock climbing'
p283
sI282
S'santur'
p284
sI283
S'entertainment'
p285
sI284
S'birding'
p286
sI285
S'news'
p287
sI286
S'electricity'
p288
sI287
S'linguistics'
p289
sI288
S'cheese'
p290
sI289
S'hula'
p291
sI290
S'belly dance'
p292
sI291
S'physics'
p293
sI292
S'unicycling'
p294
sI293
S'foosball'
p295
sI294
S'hang'
p296
sI295
S'disc golf'
p297
sI296
S'beer pong'
p298
sI297
S'bowling'
p299
sI298
S'juggling'
p300
sI299
S'theater arts'
p301
sI300
S'current affairs'
p302
sI301
S'intelligence'
p303
sI302
S'comics'
p304
sI303
S'cricket'
p305
sI304
S'badminton'
p306
sI305
S'curling'
p307
sI306
S'vielle'
p308
sI307
S'variety'
p309
sI308
S'pepa'
p310
sI309
S'respiration'
p311
sI310
S'architectural history'
p312
sI311
S'drinking'
p313
sI312
S'lounge'
p314
sI313
S'ultimate frisbee'
p315
sI314
S'indie'
p316
sI315
S'religion'
p317
sI316
S'refugee'
p318
sI317
S'sewing'
p319
sI318
S'austus'
p320
sI319
S'international studies'
p321
sI320
S'law'
p322
sI321
S'ballet'
p323
sI322
S'marathon'
p324
sI323
S'wine tasting'
p325
sI324
S'metal'
p326
sI325
S'hardcore'
p327
sI326
S'asian music'
p328
sI327
S'movie art'
p329
sI328
S'roller skating'
p330
sI329
S'nutrition'
p331
sI330
S'historia'
p332
sI331
S'varied'
p333
sI332
S'parenting'
p334
sI333
S'theology'
p335
sI334
S'footbag'
p336
sI335
S'bouldering'
p337
sI336
S'chinese language'
p338
sI337
S'math'
p339
sI338
S'university studies'
p340
sI339
S'computer science'
p341
sI340
S'neuroscience'
p342
sI341
S'ski jumping'
p343
sI342
S'tai chi'
p344
sI343
S'political economics'
p345
sI344
S'litterature'
p346
sI345
S'saxophone'
p347
sI346
S'jazz'
p348
sI347
S'radio'
p349
sI348
S'astronomy'
p350
sI349
S'behavioral finance'
p351
sI350
S'finance'
p352
sI351
S'game theory'
p353
sI352
S'graffiti'
p354
sI353
S'graphic design'
p355
sI354
S'investing'
p356
sI355
S'legal philosophy'
p357
sI356
S'tango'
p358
sI357
S'swing'
p359
sI358
S'drink'
p360
sI359
S'free-diving'
p361
sI360
S'international'
p362
sI361
S'diplomacy'
p363
sI362
S'kabbalah'
p364
sI363
S'camera'
p365
sI364
S'cs'
p366
sI365
S'andean music'
p367
sI366
S'backpacking'
p368
sI367
S'independent music'
p369
sI368
S'social work'
p370
sI369
S'judo'
p371
sI370
S'ice climbing'
p372
sI371
S'cultural history'
p373
sI372
S'sciences'
p374
sI373
S'spiritual'
p375
sI374
S'english'
p376
sI375
S'savate'
p377
sI376
S'magic'
p378
sI377
S'romance'
p379
sI378
S'ethics'
p380
sI379
S'political philosophy'
p381
sI380
S'water sport'
p382
sI381
S'hard rock'
p383
sI382
S'computer graphics'
p384
sI383
S'environmentalism'
p385
sI384
S'conservation'
p386
sI385
S'multimedia'
p387
sI386
S'natural horn'
p388
sI387
S'aleatoric music'
p389
sI388
S'paintball'
p390
sI389
S'hockey'
p391
sI390
S'cello'
p392
sI391
S'amateur theatre'
p393
sI392
S'ping pong'
p394
sI393
S'american football'
p395
sI394
S'college'
p396
sI395
S'high school'
p397
sI396
S'theater criticism'
p398
sI397
S'opera'
p399
sI398
S'ir'
p400
sI399
S'classical music'
p401
sI400
S'poetics'
p402
sI401
S'italian'
p403
sI402
S'game design'
p404
sI403
S'investment'
p405
sI404
S'mathematics'
p406
sI405
S'tourism'
p407
sI406
S'dressage'
p408
sI407
S'cyberpunk'
p409
sI408
S'management'
p410
sI409
S'media'
p411
sI410
S'business studies'
p412
sI411
S'organization development'
p413
sI412
S"80's"
p414
sI413
S'danish'
p415
sI414
S'theatre arts'
p416
sI415
S'games'
p417
sI416
S'brazillian music'
p418
sI417
S'fado'
p419
sI418
S'samba'
p420
sI419
S'transportation'
p421
sI420
S'other languages'
p422
sI421
S'justice'
p423
sI422
S'triathlon'
p424
sI423
S'international development'
p425
sI424
S'music history'
p426
sI425
S'emo'
p427
sI426
S'behavior'
p428
sI427
S'futsal'
p429
sI428
S'jungle'
p430
sI429
S'australia'
p431
sI430
S'military'
p432
sI431
S'guidance'
p433
sI432
S'asia'
p434
sI433
S'newspaper'
p435
sI434
S'blues'
p436
sI435
S'current events'
p437
sI436
S'block'
p438
sI437
S'shoa'
p439
sI438
S'ecology'
p440
sI439
S'inline hockey'
p441
sI440
S'giga'
p442
sI441
S'kids'
p443
sI442
S'ice hockey'
p444
sI443
S'sticke'
p445
sI444
S'crossfit'
p446
sI445
S'merengue'
p447
sI446
S'bollywood'
p448
sI447
S'morning'
p449
sI448
S'premed'
p450
sI449
S'punk'
p451
sI450
S'smell'
p452
sI451
S'engineering'
p453
sI452
S'jewish'
p454
sI453
S'korean language'
p455
sI454
S'network'
p456
sI455
S'publishing'
p457
sI456
S'quantum mechanics'
p458
sI457
S'string'
p459
sI458
S'television'
p460
sI459
S'ballad'
p461
sI460
S'bones'
p462
sI461
S'youth'
p463
sI462
S'podcast'
p464
sI463
S'philosophy/psychology'
p465
sI464
S'farming'
p466
sI465
S'capoeira'
p467
sI466
S'delta blues'
p468
sI467
S'structure'
p469
sI468
S'trampoline'
p470
sI469
S'aikido'
p471
sI470
S'fencing'
p472
sI471
S'caving'
p473
sI472
S'communication artist'
p474
sI473
S'aerobics'
p475
sI474
S'contemporary dance'
p476
sI475
S'rowing'
p477
sI476
S'gambling'
p478
sI477
S'interactivity'
p479
sI478
S'folk music'
p480
sI479
S'evolutionary biology'
p481
sI480
S'biology'
p482
sI481
S'futurism'
p483
sI482
S'documentaries'
p484
sI483
S'video art'
p485
sI484
S'photography/film'
p486
sI485
S'american studies'
p487
sI486
S'emotivism'
p488
sI487
S'flute'
p489
sI488
S'phycology'
p490
sI489
S'programming'
p491
sI490
S'world history'
p492
sI491
S'argul'
p493
sI492
S'art rock'
p494
sI493
S'experimental'
p495
sI494
S'film theory'
p496
sI495
S'world music'
p497
sI496
S'krav maga'
p498
sI497
S'lifting weights'
p499
sI498
S'spanish'
p500
sI499
S'music theatre'
p501
sI500
S'podcasting'
p502
sI501
S'oldies'
p503
sI502
S'russian'
p504
sI503
S'dance music'
p505
sI504
S'international affairs'
p506
sI505
S'communications'
p507
sI506
S'organic farming'
p508
sI507
S'vinification'
p509
sI508
S'biography'
p510
sI509
S'chess'
p511
sI510
S'viola'
p512
sI511
S'garage'
p513
sI512
S'classic'
p514
sI513
S'visual art'
p515
sI514
S'orpharion'
p516
sI515
S'squash'
p517
sI516
S'maths'
p518
sI517
S'commerce'
p519
sI518
S'reggae'
p520
sI519
S'se'
p521
sI520
S'auto racing'
p522
sI521
S'global health'
p523
sI522
S'bureaucracy'
p524
sI523
S'chelys'
p525
sI524
S'heuristic'
p526
sI525
S'surf music'
p527
sI526
S'crochet'
p528
sI527
S'education'
p529
sI528
S'sf'
p530
sI529
S'choir'
p531
sI530
S'cultural geography'
p532
sI531
S'nudity'
p533
sI532
S'fabric'
p534
sI533
S'fine art'
p535
sI534
S'ambient music'
p536
sI535
S'astrophysics'
p537
sI536
S'terrorism'
p538
sI537
S'psychedelic'
p539
sI538
S'naker'
p540
sI539
S'humor'
p541
sI540
S'dnb'
p542
sI541
S'soul rock'
p543
sI542
S'amateur'
p544
sI543
S'violin'
p545
sI544
S'finnish'
p546
sI545
S'digital art'
p547
sI546
S'chinese opera'
p548
sI547
S'cybernetics'
p549
sI548
S'artificial intelligence'
p550
sI549
S'humanities'
p551
sI550
S'noise'
p552
sI551
S'ambient'
p553
sI552
S'geography'
p554
sI553
S'combinatorics'
p555
sI554
S'birdwatching'
p556
sI555
S'health care'
p557
sI556
S'dutch'
p558
sI557
S'norwegian'
p559
sI558
S'physics/biology'
p560
sI559
S'molecular genetics'
p561
sI560
S'chemistry'
p562
sI561
S'jazz piano'
p563
sI562
S'clarinet'
p564
sI563
S'jazz dance'
p565
sI564
S'modern dance'
p566
sI565
S'lindy hop'
p567
sI566
S'venu'
p568
sI567
S'sales'
p569
sI568
S'crime'
p570
sI569
S'fives'
p571
sI570
S'tama'
p572
sI571
S'hammond b3'
p573
sI572
S'pc'
p574
sI573
S'hardcore punk'
p575
sI574
S'bongo drum'
p576
sI575
S'drummer'
p577
sI576
S'beekeeping'
p578
sI577
S'house music'
p579
sI578
S'beach volleyball'
p580
sI579
S'blues rock'
p581
sI580
S'jazz blues'
p582
sI581
S'organizations'
p583
sI582
S'hora'
p584
sI583
S'pool'
p585
sI584
S'caribbean'
p586
sI585
S'kickboxing'
p587
sI586
S'tech'
p588
sI587
S'banking'
p589
sI588
S'glass'
p590
sI589
S'ice skating'
p591
sI590
S'acoustics'
p592
sI591
S'filmmaking'
p593
sI592
S'ska'
p594
sI593
S'physical therapy'
p595
sI594
S'heavy metal'
p596
sI595
S'competitive eating'
p597
sI596
S'field hockey'
p598
sI597
S'hunting'
p599
sI598
S'international relations'
p600
sI599
S'orienteering'
p601
sI600
S'pentathlon'
p602
sI601
S'political science'
p603
sI602
S'direction'
p604
sI603
S'agriculture'
p605
sI604
S'english language'
p606
sI605
S'short story'
p607
sI606
S'biathlon'
p608
sI607
S'hooter'
p609
sI608
S'vermont'
p610
sI609
S'virginals'
p611
sI610
S'capoeira angola'
p612
sI611
S'eastern philosophy'
p613
sI612
S'eclectic'
p614
sI613
S'development economics'
p615
sI614
S'informatique'
p616
sI615
S'medieval history'
p617
sI616
S'historical linguistics'
p618
sI617
S'arabic'
p619
sI618
S'pottery'
p620
sI619
S'epistemology'
p621
sI620
S'humour'
p622
sI621
S'revolution'
p623
sI622
S'dumpster diving'
p624
sI623
S'experimental music'
p625
sI624
S'comic book'
p626
sI625
S'deportation'
p627
sI626
S'mechanics'
p628
sI627
S'slow food'
p629
sI628
S'ceramics'
p630
sI629
S'argentine tango'
p631
sI630
S'sacred dance'
p632
sI631
S'alchemy'
p633
sI632
S'boomerang'
p634
sI633
S'computer game'
p635
sI634
S'lyra'
p636
sI635
S'urban exploration'
p637
sI636
S'logic'
p638
sI637
S'atheism'
p639
sI638
S'composting'
p640
sI639
S'satire'
p641
sI640
S'strength training'
p642
sI641
S'weightlifting'
p643
sI642
S"50's"
p644
sI643
S'exotica'
p645
sI644
S'performing arts'
p646
sI645
S'rounders'
p647
sI646
S'fly fishing'
p648
sI647
S'music performance'
p649
sI648
S'bungee jumping'
p650
sI649
S'musical improvisation'
p651
sI650
S'spoken word'
p652
sI651
S'performance arts'
p653
sI652
S'contesting'
p654
sI653
S'chant'
p655
sI654
S'trot'
p656
sI655
S'textile'
p657
sI656
S'doodle'
p658
sI657
S'boarding'
p659
sI658
S'engineering technology'
p660
sI659
S'kiting'
p661
sI660
S'luge'
p662
sI661
S'social psychology'
p663
sI662
S'computer networking'
p664
sI663
S'industrial design'
p665
sI664
S'drama'
p666
sI665
S'geocaching'
p667
sI666
S'beach music'
p668
sI667
S'aussie rules'
p669
sI668
S'hand cricket'
p670
sI669
S'new media'
p671
sI670
S'gymnastics'
p672
sI671
S'thriller'
p673
sI672
S'formula one'
p674
sI673
S'french language'
p675
sI674
S'argentine rock'
p676
sI675
S'verdiales'
p677
sI676
S'christian'
p678
sI677
S'gospel'
p679
sI678
S'gender studies'
p680
sI679
S'ukulele'
p681
sI680
S'accordion'
p682
sI681
S'double bass'
p683
sI682
S'jazz band'
p684
sI683
S'cognitive science'
p685
sI684
S'homebrewing'
p686
sI685
S'dub'
p687
sI686
S'voice'
p688
sI687
S'billiards'
p689
sI688
S'country music'
p690
sI689
S'animated'
p691
sI690
S'ethnology'
p692
sI691
S'political theatre'
p693
sI692
S'americana'
p694
sI693
S'continental philosophy'
p695
sI694
S'critical theory'
p696
sI695
S'folk rock'
p697
sI696
S'middle east'
p698
sI697
S'urban planning'
p699
sI698
S'dentist'
p700
sI699
S'serialism'
p701
sI700
S'christmas'
p702
sI701
S'allergies'
p703
sI702
S'gin'
p704
sI703
S'documentary film'
p705
sI704
S'chanson'
p706
sI705
S'chorale'
p707
sI706
S'flamenco'
p708
sI707
S'stylistics'
p709
sI708
S'fungi'
p710
sI709
S'material'
p711
sI710
S'mycology'
p712
sI711
S'roller derby'
p713
sI712
S'karate'
p714
sI713
S'kendo'
p715
sI714
S'zoology'
p716
sI715
S'mis'
p717
sI716
S'upright bass'
p718
sI717
S'bossa nova'
p719
sI718
S'pop rock'
p720
sI719
S'darts'
p721
sI720
S'brass band'
p722
sI721
S'progg'
p723
sI722
S'nu metal'
p724
sI723
S'lawn bowls'
p725
sI724
S'computational mathematics'
p726
sI725
S'art education'
p727
sI726
S'college football'
p728
sI727
S'alternative rock'
p729
sI728
S'philately'
p730
sI729
S'snooker'
p731
sI730
S'road cycling'
p732
sI731
S'pilates'
p733
sI732
S'central america'
p734
sI733
S'marketing'
p735
sI734
S'ca'
p736
sI735
S'harmonica'
p737
sI736
S'marker'
p738
sI737
S'hawaiian'
p739
sI738
S'keyboards'
p740
sI739
S'ching'
p741
sI740
S'djembe'
p742
sI741
S'west africa'
p743
sI742
S'trust'
p744
sI743
S'lovers rock'
p745
sI744
S'athletics'
p746
sI745
S'bellydance'
p747
sI746
S'coin'
p748
sI747
S'kane'
p749
sI748
S'web development'
p750
sI749
S'death metal'
p751
sI750
S'whistle'
p752
sI751
S'josephus'
p753
sI752
S'supernatural'
p754
sI753
S'censorship'
p755
sI754
S'trampolining'
p756
sI755
S'latino'
p757
sI756
S'base jumping'
p758
sI757
S'sky diving'
p759
sI758
S'winemaking'
p760
sI759
S'germanism'
p761
sI760
S'balada'
p762
sI761
S'racquetball'
p763
sI762
S'massage therapy'
p764
sI763
S"children's literature"
p765
sI764
S'gender'
p766
sI765
S'interior design'
p767
sI766
S'divinity'
p768
sI767
S'mandolin'
p769
sI768
S'other instruments'
p770
sI769
S'rattle'
p771
sI770
S'turkish'
p772
sI771
S'electro rock'
p773
sI772
S'duda'
p774
sI773
S'organ'
p775
sI774
S'indie rock'
p776
sI775
S'parkour'
p777
sI776
S'political sociology'
p778
sI777
S'creative writing'
p779
sI778
S'economic history'
p780
sI779
S"60's"
p781
sI780
S"70's"
p782
sI781
S'national'
p783
sI782
S'geology'
p784
sI783
S'music composition'
p785
sI784
S'sipa'
p786
sI785
S'strings'
p787
sI786
S'tabor'
p788
sI787
S'saz'
p789
sI788
S'dancehall'
p790
sI789
S'roleplaying game'
p791
sI790
S'fashion design'
p792
sI791
S'bowls'
p793
sI792
S'public relations'
p794
sI793
S'pedagogy'
p795
sI794
S'indie-electro'
p796
sI795
S'tricking'
p797
sI796
S'social networks'
p798
sI797
S'cooperative'
p799
sI798
S'grand piano'
p800
sI799
S'       bells'
p801
sI800
S'psychedelic music'
p802
sI801
S'indoor soccer'
p803
sI802
S'information architecture'
p804
sI803
S'computational photography'
p805
sI804
S'minimalist music'
p806
sI805
S'songo music'
p807
sI806
S'rugby football'
p808
sI807
S'drum kit'
p809
sI808
S'batucada'
p810
sI809
S'harp'
p811
sI810
S'pagode'
p812
sI811
S'translation'
p813
sI812
S'bachata'
p814
sI813
S'ad'
p815
sI814
S'danza'
p816
sI815
S'american literature'
p817
sI816
S'installation art'
p818
sI817
S'toy collecting'
p819
sI818
S'reggaeton'
p820
sI819
S'sevillanas'
p821
sI820
S'street dance'
p822
sI821
S'japanese language'
p823
sI822
S'rackett'
p824
sI823
S'gadgets'
p825
sI824
S'musical keyboard'
p826
sI825
S'word'
p827
sI826
S'kiss'
p828
sI827
S'personal growth'
p829
sI828
S'computability theory'
p830
sI829
S'disco music'
p831
sI830
S'biomedical engineering'
p832
sI831
S'cancer'
p833
sI832
S'clapper'
p834
sI833
S'grunge'
p835
sI834
S'phd'
p836
sI835
S'rock blues'
p837
sI836
S'pate'
p838
sI837
S'bombarde'
p839
sI838
S'celtic music'
p840
sI839
S'reggae rock'
p841
sI840
S'modern music'
p842
sI841
S'documentary'
p843
sI842
S'npr'
p844
sI843
S'folklore'
p845
sI844
S'lur'
p846
sI845
S'complex systems'
p847
sI846
S'ska punk'
p848
sI847
S'singer-songwriter'
p849
sI848
S'klezmer'
p850
sI849
S'ballroom dance'
p851
sI850
S'economics, mathematics'
p852
sI851
S'california'
p853
sI852
S'strategy game'
p854
sI853
S'talk radio'
p855
sI854
S'kite'
p856
sI855
S'instrumental'
p857
sI856
S'mpb'
p858
sI857
S'popular music'
p859
sI858
S'pilota'
p860
sI859
S'water skiing'
p861
sI860
S'english literature'
p862
sI861
S'nursing'
p863
sI862
S'hun'
p864
sI863
S'jugger'
p865
sI864
S'coin collecting'
p866
sI865
S'needlework'
p867
sI866
S'folk dance'
p868
sI867
S'spirits'
p869
sI868
S'accountancy'
p870
sI869
S'slavistics'
p871
sI870
S'sanj'
p872
sI871
S'roots'
p873
sI872
S'speleology'
p874
sI873
S'software'
p875
sI874
S'twist'
p876
sI875
S'acoustic guitar'
p877
sI876
S'latin music'
p878
sI877
S'soap opera'
p879
sI878
S'greek'
p880
sI879
S'other music'
p881
sI880
S'spam'
p882
sI881
S'comb'
p883
sI882
S'instructor'
p884
sI883
S'freestyle rap'
p885
sI884
S'physiotherapy'
p886
sI885
S'publisher'
p887
sI886
S'lucha libre'
p888
sI887
S'tom'
p889
sI888
S'charleston'
p890
sI889
S'databases'
p891
sI890
S'printmaking'
p892
sI891
S'natural sciences'
p893
sI892
S'psychiatry'
p894
sI893
S'jazz guitar'
p895
sI894
S'ultimate'
p896
sI895
S'ai'
p897
sI896
S'video game'
p898
sI897
S'life sciences'
p899
sI898
S'social sciences'
p900
sI899
S'jam band'
p901
sI900
S'entomology'
p902
sI901
S'hurling'
p903
sI902
S'contra dance'
p904
sI903
S'electrical'
p905
sI904
S'mechanical'
p906
sI905
S'robotics'
p907
sI906
S'amateur radio'
p908
sI907
S'language geography'
p909
sI908
S'speed skating'
p910
sI909
S'typography'
p911
sI910
S'amish music'
p912
sI911
S'netball'
p913
sI912
S'russians'
p914
sI913
S'framing'
p915
sI914
S'hip hop music'
p916
sI915
S'nordic walking'
p917
sI916
S'acoustic music'
p918
sI917
S'american culture'
p919
sI918
S'christian music'
p920
sI919
S'computational creativity'
p921
sI920
S'physical fitness'
p922
sI921
S'dentistry'
p923
sI922
S'morsing'
p924
sI923
S'suling'
p925
sI924
S'electronica'
p926
sI925
S'fusion genre'
p927
sI926
S'american politics'
p928
sI927
S'computing science'
p929
sI928
S'vallenato'
p930
sI929
S'semiotics'
p931
sI930
S'horse racing'
p932
sI931
S'casting'
p933
sI932
S'espa\xc3\xb1ol'
p934
sI933
S'forestry'
p935
sI934
S'geographical'
p936
sI935
S'christianity'
p937
sI936
S'wingtsun'
p938
sI937
S'fine arts'
p939
sI938
S'tango music'
p940
sI939
S'world news'
p941
sI940
S'flying trapeze'
p942
sI941
S'everyday life'
p943
sI942
S'botany'
p944
sI943
S'austin'
p945
sI944
S'archery'
p946
sI945
S'career'
p947
sI946
S'coasteering'
p948
sI947
S'space music'
p949
sI948
S'indie music'
p950
sI949
S'beading'
p951
sI950
S'mey'
p952
sI951
S'residency'
p953
sI952
S'cheerleading'
p954
sI953
S'korean'
p955
sI954
S'ski mountaineering'
p956
sI955
S'rumba'
p957
sI956
S'human biology'
p958
sI957
S'biological sciences'
p959
sI958
S'concert band'
p960
sI959
S'social studies'
p961
sI960
S'fellowship'
p962
sI961
S'advertising'
p963
sI962
S'hyphy'
p964
sI963
S'new age'
p965
sI964
S'animalia'
p966
sI965
S'oncology'
p967
sI966
S'animal science'
p968
sI967
S'cumbia'
p969
sI968
S'fps'
p970
sI969
S'gypsy punk'
p971
sI970
S'piano accordion'
p972
sI971
S'vocoder'
p973
sI972
S'zydeco'
p974
sI973
S'illustration'
p975
sI974
S'product design'
p976
sI975
S'version'
p977
sI976
S'electropop'
p978
sI977
S'pedology'
p979
sI978
S'buddhist music'
p980
sI979
S'dance mix'
p981
sI980
S'folk metal'
p982
sI981
S'statistics'
p983
sI982
S'special education'
p984
sI983
S'world literature'
p985
sI984
S'spanish language'
p986
sI985
S'comparative literature'
p987
sI986
S'furniture design'
p988
sI987
S'shakers'
p989
sI988
S'bodybuilding'
p990
sI989
S'musical theater'
p991
sI990
S'telecommunication'
p992
sI991
S'natural medicine'
p993
sI992
S'kizomba'
p994
sI993
S'generative music'
p995
sI994
S'systems engineering'
p996
sI995
S'thermodynamics'
p997
sI996
S'russian language'
p998
sI997
S'violoncelle'
p999
sI998
S'international business'
p1000
sI999
S'discourse analysis'
p1001
sI1000
S'movie actor'
p1002
sI1001
S'freestyle skiing'
p1003
sI1002
S'trombone'
p1004
sI1003
S'italiano'
p1005
sI1004
S'music industry'
p1006
sI1005
S'public affairs'
p1007
sI1006
S'digital photography'
p1008
sI1007
S'autobiography'
p1009
sI1008
S'computer software'
p1010
sI1009
S'polo'
p1011
sI1010
S'existentialism'
p1012
sI1011
S'music theory'
p1013
sI1012
S'dubstep'
p1014
sI1013
S'spitting'
p1015
sI1014
S'islam'
p1016
sI1015
S'special interests'
p1017
sI1016
S'  electronic instruments'
p1018
sI1017
S'ken'
p1019
sI1018
S'creation spirituality'
p1020
sI1019
S'banjo'
p1021
sI1020
S'fiddle'
p1022
sI1021
S'soundtracks'
p1023
sI1022
S'figure skating'
p1024
sI1023
S'chorus'
p1025
sI1024
S'categorization'
p1026
sI1025
S'pirate'
p1027
sI1026
S'nordic skiing'
p1028
sI1027
S'sport climbing'
p1029
sI1028
S'latin jazz'
p1030
sI1029
S'drag racing'
p1031
sI1030
S'thai boxing'
p1032
sI1031
S'glass art'
p1033
sI1032
S'futures studies'
p1034
sI1033
S'freethought'
p1035
sI1034
S'hinduism'
p1036
sI1035
S'soul music'
p1037
sI1036
S'soca music'
p1038
sI1037
S"children's"
p1039
sI1038
S'music visualization'
p1040
sI1039
S'floorball'
p1041
sI1040
S'pop culture'
p1042
sI1041
S'denistry'
p1043
sI1042
S'bongo flava'
p1044
sI1043
S'funk carioca'
p1045
sI1044
S'genge'
p1046
sI1045
S'hiplife'
p1047
sI1046
S'kuduro'
p1048
sI1047
S'kwaito'
p1049
sI1048
S'marrabenta'
p1050
sI1049
S'mbalax'
p1051
sI1050
S'rai'
p1052
sI1051
S'soukous'
p1053
sI1052
S'tecno brega'
p1054
sI1053
S'zouk'
p1055
sI1054
S'sport studies'
p1056
sI1055
S'vocal music'
p1057
sI1056
S'hacking'
p1058
sI1057
S'human relations'
p1059
sI1058
S'spelunking'
p1060
sI1059
S'nihilism'
p1061
sI1060
S'post-industrial'
p1062
sI1061
S'table football'
p1063
sI1062
S'latin american music'
p1064
sI1063
S'muay thai'
p1065
sI1064
S'paddle'
p1066
sI1065
S'measure theory'
p1067
sI1066
S'aesthetics'
p1068
sI1067
S'great books'
p1069
sI1068
S'nederlands'
p1070
sI1069
S'cabaret'
p1071
sI1070
S'stand-up comedy'
p1072
sI1071
S'social anthropology'
p1073
sI1072
S'makina'
p1074
sI1073
S'pocket billiards'
p1075
sI1074
S'landscape architecture'
p1076
sI1075
S'mariachi'
p1077
sI1076
S'business management'
p1078
sI1077
S'historical sociology'
p1079
sI1078
S'poverty'
p1080
sI1079
S'frisbee golf'
p1081
sI1080
S'strategy'
p1082
sI1081
S'freestyle frisbee'
p1083
sI1082
S'docu'
p1084
sI1083
S'dominoes'
p1085
sI1084
S'egyptology'
p1086
sI1085
S'mural'
p1087
sI1086
S'mine exploration'
p1088
sI1087
S'punctualism'
p1089
sI1088
S'hollands'
p1090
sI1089
S'dance improvisation'
p1091
sI1090
S'media arts'
p1092
sI1091
S'weaving'
p1093
sI1092
S'tres'
p1094
sI1093
S'meditation music'
p1095
sI1094
S'japanology'
p1096
sI1095
S'mysticism'
p1097
sI1096
S'derecho'
p1098
sI1097
S'olifant'
p1099
sI1098
S'bomba'
p1100
sI1099
S'darwinism'
p1101
sI1100
S'shuffle'
p1102
sI1101
S'alpine skiing'
p1103
sI1102
S'directing'
p1104
sI1103
S'biomathematics'
p1105
sI1104
S'nanotechnology'
p1106
sI1105
S'electro pop'
p1107
sI1106
S'liberal arts'
p1108
sI1107
S'cultural studies'
p1109
sI1108
S'ancient greek'
p1110
sI1109
S'neoclassical'
p1111
sI1110
S'neoclassicism'
p1112
sI1111
S'home repair'
p1113
sI1112
S'short stories'
p1114
sI1113
S'tapestry'
p1115
sI1114
S'graduation'
p1116
sI1115
S'probability theory'
p1117
sI1116
S'indoor football'
p1118
sI1117
S'biology,chemistry'
p1119
sI1118
S'jewelry design'
p1120
sI1119
S'accounting'
p1121
sI1120
S'personal development'
p1122
sI1121
S'sports news'
p1123
sI1122
S'arabic language'
p1124
sI1123
S'comprehension'
p1125
sI1124
S'lambada'
p1126
sI1125
S'composition'
p1127
sI1126
S'musical saw'
p1128
sI1127
S'archaeology'
p1129
sI1128
S'bodhr\xc3\xa1n'
p1130
sI1129
S'boules'
p1131
sI1130
S'popular culture'
p1132
sI1131
S'cultural anthropology'
p1133
sI1132
S'patternmaking'
p1134
sI1133
S'plastic surgery'
p1135
sI1134
S'occult'
p1136
sI1135
S'community development'
p1137
sI1136
S'bioinformatics'
p1138
sI1137
S'british rock'
p1139
sI1138
S'trance music'
p1140
sI1139
S'business economics'
p1141
sI1140
S'film production'
p1142
sI1141
S'powerlifting'
p1143
sI1142
S'psychedelic trance'
p1144
sI1143
S'classic rock'
p1145
sI1144
S'avant-garde'
p1146
sI1145
S'german literature'
p1147
sI1146
S'industrial music'
p1148
sI1147
S'eecs'
p1149
sI1148
S'quiz'
p1150
sI1149
S'irish music'
p1151
sI1150
S'charango'
p1152
sI1151
S'freerunning'
p1153
sI1152
S'interview'
p1154
sI1153
S'flash mob'
p1155
sI1154
S'latinistic'
p1156
sI1155
S'breakdance'
p1157
sI1156
S'food science'
p1158
sI1157
S'photojournalism'
p1159
sI1158
S'disco rock'
p1160
sI1159
S'downtempo'
p1161
sI1160
S'enka'
p1162
sI1161
S'horror film'
p1163
sI1162
S'radio broadcasting'
p1164
sI1163
S'square dance'
p1165
sI1164
S'criminal law'
p1166
sI1165
S'hepatology'
p1167
sI1166
S'blends'
p1168
sI1167
S'acid jazz'
p1169
sI1168
S'pirates'
p1170
sI1169
S'russian history'
p1171
sI1170
S'counseling'
p1172
sI1171
S'doctorate'
p1173
sI1172
S'naturopathy'
p1174
sI1173
S'project management'
p1175
sI1174
S'sexology'
p1176
sI1175
S'beatboxing'
p1177
sI1176
S'applied linguistics'
p1178
sI1177
S'pathology'
p1179
sI1178
S'real estate'
p1180
sI1179
S'concert dance'
p1181
sI1180
S'criminology'
p1182
sI1181
S'wing tsun'
p1183
sI1182
S'ethnobotany'
p1184
sI1183
S'cristiano'
p1185
sI1184
S'northern soul'
p1186
sI1185
S'advert'
p1187
sI1186
S'rant'
p1188
sI1187
S'artificial creativity'
p1189
sI1188
S'horn'
p1190
sI1189
S'humppa'
p1191
sI1190
S'applied arts'
p1192
sI1191
S'indian dance'
p1193
sI1192
S'taekwondo'
p1194
sI1193
S'five animals'
p1195
sI1194
S'social dance'
p1196
sI1195
S'geriatrics'
p1197
sI1196
S'korfball'
p1198
sI1197
S'italian language'
p1199
sI1198
S'immunology'
p1200
sI1199
S'cryptography'
p1201
sI1200
S'pharmacology'
p1202
sI1201
S'biophysics'
p1203
sI1202
S'conducting'
p1204
sI1203
S'game boy music'
p1205
sI1204
S'were music'
p1206
sI1205
S'taxation'
p1207
sI1206
S'sprint'
p1208
sI1207
S'triathalon'
p1209
sI1208
S'michael jackson'
p1210
sI1209
S'higher education'
p1211
sI1210
S'reeds'
p1212
sI1211
S'gong'
p1213
sI1212
S'game art'
p1214
sI1213
S'marching band'
p1215
sI1214
S'surf rock'
p1216
sI1215
S'actor'
p1217
sI1216
S'variety arts'
p1218
sI1217
S'wine clubs'
p1219
sI1218
S'word game'
p1220
sI1219
S'biochemistry'
p1221
sI1220
S'endocrinology'
p1222
sI1221
S'synthetic biology'
p1223
sI1222
S'steampunk'
p1224
sI1223
S'tro'
p1225
sI1224
S'suona'
p1226
sI1225
S'grind'
p1227
sI1226
S'party game'
p1228
sI1227
S'moral theory'
p1229
sI1228
S'outdoor recreation'
p1230
sI1229
S'american history'
p1231
sI1230
S'interior decoration'
p1232
sI1231
S'advertisement'
p1233
sI1232
S'mining'
p1234
sI1233
S'tap dance'
p1235
sI1234
S'software engineer'
p1236
sI1235
S'taiko'
p1237
sI1236
S'screamo'
p1238
sI1237
S'post-hardcore'
p1239
sI1238
S'drum set'
p1240
sI1239
S'graph theory'
p1241
sI1240
S'asian studies'
p1242
sI1241
S'circle dance'
p1243
sI1242
S'violone'
p1244
sI1243
S'traditional music'
p1245
sI1244
S'serpent'
p1246
sI1245
S'tabla'
p1247
sI1246
S'bookbinding'
p1248
sI1247
S'scrapbooking'
p1249
sI1248
S'hebrew'
p1250
sI1249
S'lute'
p1251
sI1250
S'funk music'
p1252
sI1251
S'metalworking'
p1253
sI1252
S'classical piano'
p1254
sI1253
S'telecommunications'
p1255
sI1254
S'communication design'
p1256
sI1255
S'buddhist'
p1257
sI1256
S'industrial arts'
p1258
sI1257
S'environmental studies'
p1259
sI1258
S'mathematical education'
p1260
sI1259
S'veritism'
p1261
sI1260
S'sirum'
p1262
sI1261
S'morphology'
p1263
sI1262
S'syntax'
p1264
sI1263
S'ukrainian dance'
p1265
sI1264
S'medical psychology'
p1266
sI1265
S'partner dancing'
p1267
sI1266
S'urban sociology'
p1268
sI1267
S'weight training'
p1269
sI1268
S'experimental physics'
p1270
sI1269
S'environmental history'
p1271
sI1270
S'baroque music'
p1272
sI1271
S'japanese literature'
p1273
sI1272
S'genocide'
p1274
sI1273
S'relief'
p1275
sI1274
S'horticulture'
p1276
sI1275
S'cello rock'
p1277
sI1276
S'cue sports'
p1278
sI1277
S'concept art'
p1279
sI1278
S"women's studies"
p1280
sI1279
S'ethnomusicology'
p1281
sI1280
S'labor history'
p1282
sI1281
S'ultramarathon'
p1283
sI1282
S'musicology'
p1284
sI1283
S'ugal'
p1285
sI1284
S'devotional'
p1286
sI1285
S'axe throwing'
p1287
sI1286
S'biotechnology'
p1288
sI1287
S'beach rugby'
p1289
sI1288
S'rugby league'
p1290
sI1289
S'musical comedy'
p1291
sI1290
S'suomi'
p1292
sI1291
S'interaction design'
p1293
sI1292
S'neurology'
p1294
sI1293
S'developmental psychology'
p1295
sI1294
S'kinesiology'
p1296
sI1295
S'mixed media'
p1297
sI1296
S'turki'
p1298
sI1297
S'spearfishing'
p1299
sI1298
S'chimes'
p1300
sI1299
S'genetics'
p1301
sI1300
S'sumerian music'
p1302
sI1301
S'string instruments'
p1303
sI1302
S'submarine'
p1304
sI1303
S'lacrosse'
p1305
sI1304
S'european history'
p1306
sI1305
S'screen-print'
p1307
sI1306
S'collage'
p1308
sI1307
S'embossing'
p1309
sI1308
S'film soundtrack'
p1310
sI1309
S'boogie-woogie'
p1311
sI1310
S'rockabilly'
p1312
sI1311
S'microphone'
p1313
sI1312
S'atheist'
p1314
sI1313
S'taxidermy'
p1315
sI1314
S'mosaic'
p1316
sI1315
S'dj music'
p1317
sI1316
S'bass drum'
p1318
sI1317
S'instrumental guitar'
p1319
sI1318
S'fran\xc3\xa7ais'
p1320
sI1319
S'gamelan'
p1321
sI1320
S'vietnamese'
p1322
sI1321
S'motion pictures'
p1323
sI1322
S'ethology'
p1324
sI1323
S'piracy'
p1325
sI1324
S'urban design'
p1326
sI1325
S'bmx racing'
p1327
sI1326
S'glee'
p1328
sI1327
S'engineering physics'
p1329
sI1328
S'a cappella'
p1330
sI1329
S'economic development'
p1331
sI1330
S'government'
p1332
sI1331
S'college basketball'
p1333
sI1332
S'model building'
p1334
sI1333
S'isolationism'
p1335
sI1334
S'orthopedics'
p1336
sI1335
S'autoharp'
p1337
sI1336
S'tin whistle'
p1338
sI1337
S'home improvement'
p1339
sI1338
S'theme music'
p1340
sI1339
S'religious music'
p1341
sI1340
S'manjur'
p1342
sI1341
S'minimal techno'
p1343
sI1342
S'automation'
p1344
sI1343
S'pipe organ'
p1345
sI1344
S'arm wrestling'
p1346
sI1345
S'ragga'
p1347
sI1346
S'new wave'
p1348
sI1347
S'foreign affairs'
p1349
sI1348
S'wing chun'
p1350
sI1349
S'paediatrics'
p1351
sI1350
S'motorcycle racing'
p1352
sI1351
S'viticulture'
p1353
sI1352
S'political economy'
p1354
sI1353
S'kinship'
p1355
sI1354
S'veterinary medicine'
p1356
sI1355
S'cloud watching'
p1357
sI1356
S'fantasy literature'
p1358
sI1357
S'city planning'
p1359
sI1358
S'behavioral economics'
p1360
sI1359
S'set theory'
p1361
sI1360
S'inspirational music'
p1362
sI1361
S'programmer'
p1363
sI1362
S'unix'
p1364
sI1363
S'chaquan'
p1365
sI1364
S'continuum'
p1366
sI1365
S'spectralism'
p1367
sI1366
S'soundtrack'
p1368
sI1367
S'darkwave'
p1369
sI1368
S'german language'
p1370
sI1369
S'gothabilly'
p1371
sI1370
S'synthpop'
p1372
sI1371
S'serious game'
p1373
sI1372
S'bassoon'
p1374
sI1373
S'material science'
p1375
sI1374
S'turntablism'
p1376
sI1375
S'cyclocross'
p1377
sI1376
S'country-rap'
p1378
sI1377
S'spoon'
p1379
sI1378
S'toasting'
p1380
sI1379
S'tabletop game'
p1381
sI1380
S'mystery novel'
p1382
sI1381
S'professional wrestling'
p1383
sI1382
S'space technology'
p1384
sI1383
S'british history'
p1385
sI1384
S'bolero'
p1386
sI1385
S'porro'
p1387
sI1386
S'rpg'
p1388
sI1387
S'congas'
p1389
sI1388
S'religious studies'
p1390
sI1389
S'salsa cubana'
p1391
sI1390
S'christmas day'
p1392
sI1391
S'microbiology'
p1393
sI1392
S'paddle tennis'
p1394
sI1393
S'information technology'
p1395
sI1394
S'management science'
p1396
sI1395
S'koke'
p1397
sI1396
S'horror movie'
p1398
sI1397
S'electric blues'
p1399
sI1398
S'book collecting'
p1400
sI1399
S'board game'
p1401
sI1400
S'musical performance'
p1402
sI1401
S'country rock'
p1403
sI1402
S'information systems'
p1404
sI1403
S'secularism'
p1405
sI1404
S'mj'
p1406
sI1405
S'german studies'
p1407
sI1406
S'urban studies'
p1408
sI1407
S'bluegrass music'
p1409
sI1408
S'skate rock'
p1410
sI1409
S'greek dances'
p1411
sI1410
S'moog'
p1412
sI1411
S'fife'
p1413
sI1412
S'palaeontology'
p1414
sI1413
S'underwater hockey'
p1415
sI1414
S'marimba'
p1416
sI1415
S'wwii'
p1417
sI1416
S'pipe'
p1418
sI1417
S'doina'
p1419
sI1418
S'latin soul'
p1420
sI1419
S'environmental science'
p1421
sI1420
S'radio drama'
p1422
sI1421
S'table game'
p1423
sI1422
S'outsider music'
p1424
sI1423
S'mass communication'
p1425
sI1424
S'orchestral'
p1426
sI1425
S'pommer'
p1427
sI1426
S'language acquisition'
p1428
sI1427
S'rudra veena'
p1429
sI1428
S'surbahar'
p1430
sI1429
S'grunge music'
p1431
sI1430
S'fiction writing'
p1432
sI1431
S'underground music'
p1433
sI1432
S'christian theology'
p1434
sI1433
S'biogeography'
p1435
sI1434
S'taxonomy'
p1436
sI1435
S'amateur astronomy'
p1437
sI1436
S'indie pop'
p1438
sI1437
S'pop folk'
p1439
sI1438
S'accordian'
p1440
sI1439
S'canoe racing'
p1441
sI1440
S'engineering science'
p1442
sI1441
S'dystopia'
p1443
sI1442
S'pragmatics'
p1444
sI1443
S'other games'
p1445
sI1444
S'cardmaking'
p1446
sI1445
S'active rock'
p1447
sI1446
S'mountain boarding'
p1448
sI1447
S'stamp collecting'
p1449
sI1448
S'insect collecting'
p1450
sI1449
S'croquet'
p1451
sI1450
S'mellophone'
p1452
sI1451
S'french horn'
p1453
sI1452
S'wildlife conservation'
p1454
sI1453
S'electronic engineering'
p1455
sI1454
S'western movie'
p1456
sI1455
S'chemical engineering'
p1457
sI1456
S'tar'
p1458
sI1457
S'informatics'
p1459
sI1458
S'music education'
p1460
sI1459
S'kyokushin'
p1461
sI1460
S'computer technology'
p1462
sI1461
S'meringue'
p1463
sI1462
S'reconstruction'
p1464
sI1463
S'military history'
p1465
sI1464
S'erhu'
p1466
sI1465
S'hulusi'
p1467
sI1466
S'electronic organ'
p1468
sI1467
S'internet advertising'
p1469
sI1468
S'algebra'
p1470
sI1469
S'theremin'
p1471
sI1470
S'kaval'
p1472
sI1471
S'social science'
p1473
sI1472
S'bata'
p1474
sI1473
S'gaga'
p1475
sI1474
S'geomatics'
p1476
sI1475
S'gis'
p1477
sI1476
S'screenwriting'
p1478
sI1477
S'search engine'
p1479
sI1478
S'bongos'
p1480
sI1479
S'letterboxing'
p1481
sI1480
S'natural science'
p1482
sI1481
S'violoncello'
p1483
sI1482
S'semiology'
p1484
sI1483
S'theatre studies'
p1485
sI1484
S'financial economics'
p1486
sI1485
S'russian literature'
p1487
sI1486
S'agronomy'
p1488
sI1487
S'political satire'
p1489
sI1488
S'economics tripos'
p1490
sI1489
S'social relations'
p1491
sI1490
S'fishkeeping'
p1492
sI1491
S'space science'
p1493
sI1492
S'braindance'
p1494
sI1493
S'ufo'
p1495
sI1494
S'agroecology'
p1496
sI1495
S'marine science'
p1497
sI1496
S'beach rock'
p1498
sI1497
S'radio astronomy'
p1499
sI1498
S'pharmacy'
p1500
sI1499
S'real tennis'
p1501
sI1500
S'butoh'
p1502
sI1501
S'cloth'
p1503
sI1502
S'cymbals'
p1504
sI1503
S'insurance'
p1505
sI1504
S'physical science'
p1506
sI1505
S'anatolian'
p1507
sI1506
S'social welare'
p1508
sI1507
S'behaviorism'
p1509
sI1508
S'psycholinguistics'
p1510
sI1509
S'enology'
p1511
sI1510
S'bird'
p1512
sI1511
S'marine biology'
p1513
sI1512
S'bagpipes'
p1514
sI1513
S'physical education'
p1515
sI1514
S'nazi'
p1516
sI1515
S'programming language'
p1517
sI1516
S'cross-country skiing'
p1518
sI1517
S'soul jazz'
p1519
sI1518
S'indoor climbing'
p1520
sI1519
S'electro house'
p1521
sI1520
S'morris dance'
p1522
sI1521
S'publications'
p1523
sI1522
S'mba'
p1524
sI1523
S'limbo'
p1525
sI1524
S'business law'
p1526
sI1525
S'mechanical engineering'
p1527
sI1526
S'equestrianism'
p1528
sI1527
S'hand drum'
p1529
sI1528
S'yacht racing'
p1530
sI1529
S'candombe'
p1531
sI1530
S'educational theory'
p1532
sI1531
S'media studies'
p1533
sI1532
S'harmonium'
p1534
sI1533
S'indian music'
p1535
sI1534
S'green design'
p1536
sI1535
S'demography'
p1537
sI1536
S'early christian'
p1538
sI1537
S'educational psychology'
p1539
sI1538
S'film directing'
p1540
sI1539
S'etching'
p1541
sI1540
S'querfl\xc3\xb6te'
p1542
sI1541
S'zamba'
p1543
sI1542
S'scat'
p1544
sI1543
S'microfinance'
p1545
sI1544
S'manager'
p1546
sI1545
S'medical technology'
p1547
sI1546
S'marching percussion'
p1548
sI1547
S'sentir'
p1549
sI1548
S'theoretical astronomy'
p1550
sI1549
S'judaism'
p1551
sI1550
S'volksmarching'
p1552
sI1551
S'gospel music'
p1553
sI1552
S'francais'
p1554
sI1553
S'astrologie'
p1555
sI1554
S"90's"
p1556
sI1555
S'gar'
p1557
sI1556
S'prayer'
p1558
sI1557
S'kite flying'
p1559
sI1558
S'public policy'
p1560
sI1559
S'health education'
p1561
sI1560
S'hindu'
p1562
sI1561
S'tambourine'
p1563
sI1562
S"d'n'b"
p1564
sI1563
S'free tekno'
p1565
sI1564
S'pole dance'
p1566
sI1565
S'clarion'
p1567
sI1566
S'melodica'
p1568
sI1567
S'xylophone'
p1569
sI1568
S'contrabass'
p1570
sI1569
S'bhangra'
p1571
sI1570
S'sports medicine'
p1572
sI1571
S'baggy'
p1573
sI1572
S'transportation planning'
p1574
sI1573
S'naturopathic medicine'
p1575
sI1574
S'setar'
p1576
sI1575
S'synchronized swimming'
p1577
sI1576
S'celesta'
p1578
sI1577
S'film studies'
p1579
sI1578
S'rugby union'
p1580
sI1579
S'educational music'
p1581
sI1580
S'oenology'
p1582
sI1581
S'spin'
p1583
sI1582
S'bass recorder'
p1584
sI1583
S'percussion instruments'
p1585
sI1584
S'squash tennis'
p1586
sI1585
S'hydrology'
p1587
sI1586
S'vocal trance'
p1588
sI1587
S'record collecting'
p1589
sI1588
S'balalaika'
p1590
sI1589
S'kubing'
p1591
sI1590
S'slide guitar'
p1592
sI1591
S'film actor'
p1593
sI1592
S'bobsleigh'
p1594
sI1593
S'graphic designer'
p1595
sI1594
S'gypsy jazz'
p1596
sI1595
S'tragedy'
p1597
sI1596
S'sport fishing'
p1598
sI1597
S'garage rock'
p1599
sI1598
S'speech'
p1600
sI1599
S'spanish guitar'
p1601
sI1600
S'metal detector'
p1602
sI1601
S'railroad'
p1603
sI1602
S'renaissance dance'
p1604
sI1603
S'hardware'
p1605
sI1604
S'bock'
p1606
sI1605
S'light music'
p1607
sI1606
S'social club'
p1608
sI1607
S'sport rowing'
p1609
sI1608
S'trip hop'
p1610
sI1609
S'meteorology'
p1611
sI1610
S'environmental health'
p1612
sI1611
S'dizi'
p1613
sI1612
S'infectious diseases'
p1614
sI1613
S'public health'
p1615
sI1614
S'surgery'
p1616
sI1615
S'lis'
p1617
sI1616
S'big band'
p1618
sI1617
S'underwater archaeology'
p1619
sI1618
S'futurology'
p1620
sI1619
S'machine learning'
p1621
sI1620
S'punto'
p1622
sI1621
S'sung poetry'
p1623
sI1622
S'theatre organ'
p1624
sI1623
S'biological psychology'
p1625
sI1624
S'human development'
p1626
sI1625
S'bali dance'
p1627
sI1626
S'cowbell'
p1628
sI1627
S'folk punk'
p1629
sI1628
S'wheelchair basketball'
p1630
sI1629
S'eurobeat'
p1631
sI1630
S'gesture'
p1632
sI1631
S'salsa music'
p1633
sI1632
S'hailes'
p1634
sI1633
S'investigative journalism'
p1635
sI1634
S'historical reenactment'
p1636
sI1635
S'brushes'
p1637
sI1636
S'economics, sociology'
p1638
sI1637
S'iaido'
p1639
sI1638
S'arghul'
p1640
sI1639
S'laws'
p1641
sI1640
S'analytic philosophy'
p1642
sI1641
S'signal processing'
p1643
sI1642
S'chemical physics'
p1644
sI1643
S'software developer'
p1645
sI1644
S'yiddish'
p1646
sI1645
S'psychodynamic psychotherapy'
p1647
sI1646
S'health science'
p1648
sI1647
S'set design'
p1649
sI1648
S'multimedia design'
p1650
sI1649
S'software development'
p1651
sI1650
S'french literature'
p1652
sI1651
S'artistic gymnastics'
p1653
sI1652
S'brain teaser'
p1654
sI1653
S'austin, texas'
p1655
sI1654
S'loop'
p1656
sI1655
S'hardstyle'
p1657
sI1656
S'indian pop'
p1658
sI1657
S'defender'
p1659
sI1658
S'european music'
p1660
sI1659
S'theoretical physics'
p1661
sI1660
S'linguistic anthropology'
p1662
sI1661
S'bouzouki'
p1663
sI1662
S'electronic rock'
p1664
sI1663
S'vibraphone'
p1665
sI1664
S'harpsichord'
p1666
sI1665
S'mathematical logic'
p1667
sI1666
S'marketing management'
p1668
sI1667
S'voluntary organizations'
p1669
sI1668
S'tel aviv'
p1670
sI1669
S'data visualization'
p1671
sI1670
S'hacker'
p1672
sI1671
S'shredding'
p1673
sI1672
S'eugenics'
p1674
sI1673
S'portuguese language'
p1675
sI1674
S'brass'
p1676
sI1675
S'oceania'
p1677
sI1676
S'economic policy'
p1678
sI1677
S'epidemiology'
p1679
sI1678
S'experimental psychology'
p1680
sI1679
S'mathematical physics'
p1681
sI1680
S'pandore'
p1682
sI1681
S'healthcare informatics'
p1683
sI1682
S'indian rock'
p1684
sI1683
S'shagur'
p1685
sI1684
S'bell'
p1686
sI1685
S'glam rock'
p1687
sI1686
S'dancesport'
p1688
sI1687
S'foxtrot'
p1689
sI1688
S'math rock'
p1690
sI1689
S'keytar'
p1691
sI1690
S'mento'
p1692
sI1691
S'electrical engineering'
p1693
sI1692
S'deutsch'
p1694
sI1693
S'drum machine'
p1695
sI1694
S'goverment'
p1696
sI1695
S'wushu'
p1697
sI1696
S'freakbeat'
p1698
sI1697
S'political ecology'
p1699
sI1698
S'round dance'
p1700
sI1699
S'fou'
p1701
sI1700
S'earth science'
p1702
sI1701
S'stav'
p1703
sI1702
S'monkey stick'
p1704
sI1703
S'lima lama'
p1705
sI1704
S'drumset'
p1706
sI1705
S'civil engineering'
p1707
sI1706
S'indie folk'
p1708
sI1707
S'early music'
p1709
sI1708
S'production design'
p1710
sI1709
S'automobile engineering'
p1711
sI1710
S'strat'
p1712
sI1711
S'emigration'
p1713
sI1712
S'angling'
p1714
sI1713
S'visual communication'
p1715
sI1714
S'hang gliding'
p1716
sI1715
S'bass clarinet'
p1717
sI1716
S'generative design'
p1718
sI1717
S'bujinkan'
p1719
sI1718
S'jujutsu'
p1720
sI1719
S'taijutsu'
p1721
sI1720
S'latin literature'
p1722
sI1721
S'body piercing'
p1723
sI1722
S'home decor'
p1724
sI1723
S'organizational behavior'
p1725
sI1724
S'western philosophy'
p1726
sI1725
S'rudible'
p1727
sI1726
S'wildlife ecology'
p1728
sI1727
S'beach tennis'
p1729
sI1728
S'ideology'
p1730
sI1729
S'gaelic football'
p1731
sI1730
S'polish music'
p1732
sI1731
S'variety show'
p1733
sI1732
S'metalcore'
p1734
sI1733
S'indietronica'
p1735
sI1734
S'electrojazz'
p1736
sI1735
S'christmas music'
p1737
sI1736
S'chemical sciences'
p1738
sI1737
S'physical chemistry'
p1739
sI1738
S'dramatic literature'
p1740
sI1739
S'turku'
p1741
sI1740
S'us news'
p1742
sI1741
S'valencia'
p1743
sI1742
S'ney'
p1744
sI1743
S'moto racing'
p1745
sI1744
S'breaking news'
p1746
sI1745
S'timba'
p1747
sI1746
S'modern literature'
p1748
sI1747
S'hammond organ'
p1749
sI1748
S'kalimba'
p1750
sI1749
S'dulcian'
p1751
sI1750
S'communication studies'
p1752
sI1751
S'worship music'
p1753
sI1752
S'cryptozoology'
p1754
sI1753
S'samba rock'
p1755
sI1754
S'oboe'
p1756
sI1755
S'business analysis'
p1757
sI1756
S'strategic planning'
p1758
sI1757
S'tahitian'
p1759
sI1758
S'country pop'
p1760
sI1759
S'computer geek'
p1761
sI1760
S'racquets'
p1762
sI1761
S'papermaking'
p1763
sI1762
S'physiological biology'
p1764
sI1763
S'sitar'
p1765
sI1764
S'thrash metal'
p1766
sI1765
S'electroacoustic music'
p1767
sI1766
S"rock n' roll"
p1768
sI1767
S'turkish language'
p1769
sI1768
S'film editing'
p1770
sI1769
S'british empire'
p1771
sI1770
S'sociolinguistics'
p1772
sI1771
S'shotokan'
p1773
sI1772
S'sciences humaines'
p1774
sI1773
S'biwa'
p1775
sI1774
S'renaissance literature'
p1776
sI1775
S'modern language'
p1777
sI1776
S'bebop'
p1778
sI1777
S'german opera'
p1779
sI1778
S'media technology'
p1780
sI1779
S'roma music'
p1781
sI1780
S"children's music"
p1782
sI1781
S'holocaust'
p1783
sI1782
S'gabber'
p1784
sI1783
S'marabi'
p1785
sI1784
S'yu'
p1786
sI1785
S'lock picking'
p1787
sI1786
S'art pop'
p1788
sI1787
S'fluxus'
p1789
sI1788
S'bjj'
p1790
sI1789
S'computer security'
p1791
sI1790
S'roller sport'
p1792
sI1791
S'visual anthropology'
p1793
sI1792
S'platformer'
p1794
sI1793
S'swing music'
p1795
sI1794
S'progressive rock'
p1796
sI1795
S'free dance'
p1797
sI1796
S'smelly'
p1798
sI1797
S'rocksteady'
p1799
sI1798
S'anti-zionism'
p1800
sI1799
S'kite building'
p1801
sI1800
S'visual kei'
p1802
sI1801
S'nuclear physics'
p1803
sI1802
S'rhythmic gymnastics'
p1804
sI1803
S'cosplay'
p1805
sI1804
S'gothic metal'
p1806
sI1805
S'cajon'
p1807
sI1806
S'triple step'
p1808
sI1807
S'anonymity'
p1809
sI1808
S'bugle'
p1810
sI1809
S'african studies'
p1811
sI1810
S'team handball'
p1812
sI1811
S'quena'
p1813
sI1812
S'small business'
p1814
sI1813
S'communications management'
p1815
sI1814
S'behavioural sciences'
p1816
sI1815
S'lottery'
p1817
sI1816
S'western music'
p1818
sI1817
S'metabolism'
p1819
sI1818
S'calif'
p1820
sI1819
S'township music'
p1821
sI1820
S'eurythmy'
p1822
sI1821
S'new testament'
p1823
sI1822
S'communication sciences'
p1824
sI1823
S'flight medicine'
p1825
sI1824
S'biological engineering'
p1826
sI1825
S'telecom'
p1827
sI1826
S'cognitive neuroscience'
p1828
sI1827
S'kraut'
p1829
sI1828
S'phenomenology'
p1830
sI1829
S'pk'
p1831
sI1830
S'molecular biology'
p1832
sI1831
S'french history'
p1833
sI1832
S'gangsta rap'
p1834
sI1833
S'tangos'
p1835
sI1834
S'rap music'
p1836
sI1835
S'happy hardcore'
p1837
sI1836
S'no wave'
p1838
sI1837
S'bingo'
p1839
sI1838
S'quality management'
p1840
sI1839
S"jew's harp"
p1841
sI1840
S'mambo'
p1842
sI1841
S'oceanography'
p1843
sI1842
S'shaolin kung fu'
p1844
sI1843
S'jazz fusion'
p1845
sI1844
S'ska jazz'
p1846
sI1845
S'boi'
p1847
sI1846
S'polyphony'
p1848
sI1847
S'internet marketing'
p1849
sI1848
S'show jumping'
p1850
sI1849
S'finnish language'
p1851
sI1850
S'grateful dead'
p1852
sI1851
S'knife throwing'
p1853
sI1852
S'indiepop'
p1854
sI1853
S'sustainable design'
p1855
sI1854
S'alternative electronic'
p1856
sI1855
S'environmental engineering'
p1857
sI1856
S'family history'
p1858
sI1857
S'soren kierkegaard'
p1859
sI1858
S'human resources'
p1860
sI1859
S'pandeiro'
p1861
sI1860
S'modern history'
p1862
sI1861
S'ululation'
p1863
sI1862
S'alarm clock'
p1864
sI1863
S'sport kite'
p1865
sI1864
S'science news'
p1866
sI1865
S'palestine'
p1867
sI1866
S'public law'
p1868
sI1867
S'yuka'
p1869
sI1868
S'triangle'
p1870
sI1869
S'conga'
p1871
sI1870
S'allergy'
p1872
sI1871
S'dub music'
p1873
sI1872
S'transportation management'
p1874
sI1873
S'go go'
p1875
sI1874
S'zither'
p1876
sI1875
S'guqin'
p1877
sI1876
S'ancient greece'
p1878
sI1877
S'oud'
p1879
sI1878
S'big beat'
p1880
sI1879
S'progressive metal'
p1881
sI1880
S'symphonic'
p1882
sI1881
S'arab music'
p1883
sI1882
S'macroeconomics'
p1884
sI1883
S'schlager'
p1885
sI1884
S'lyrical dance'
p1886
sI1885
S'brazilian jiu-jitsu'
p1887
sI1886
S'tropical fish'
p1888
sI1887
S'agroforestry'
p1889
sI1888
S'alto saxophone'
p1890
sI1889
S'social economics'
p1891
sI1890
S'general education'
p1892
sI1891
S'synchronised swimming'
p1893
sI1892
S"children's books"
p1894
sI1893
S'black metal'
p1895
sI1894
S'rock\xc2\xb4n\xc2\xb4roll'
p1896
sI1895
S'neurosciences'
p1897
sI1896
S'recorder'
p1898
sI1897
S'chinese literature'
p1899
sI1898
S'jump rope'
p1900
sI1899
S'food chemistry'
p1901
sI1900
S'kite buggy'
p1902
sI1901
S'concertina'
p1903
sI1902
S'curtal'
p1904
sI1903
S'organizational psychology'
p1905
sI1904
S'electronics engineering'
p1906
sI1905
S'cover band'
p1907
sI1906
S'computer applications'
p1908
sI1907
S'brassband'
p1909
sI1908
S'documentation'
p1910
sI1909
S'marvel comics'
p1911
sI1910
S'japanese studies'
p1912
sI1911
S'seismology'
p1913
sI1912
S'arabic music'
p1914
sI1913
S'soft rock'
p1915
sI1914
S'circus music'
p1916
sI1915
S'britpop'
p1917
sI1916
S'lounge music'
p1918
sI1917
S'idm'
p1919
sI1918
S'jazz manouche'
p1920
sI1919
S'literary criticism'
p1921
sI1920
S'edm'
p1922
sI1921
S'computational biology'
p1923
sI1922
S'whittling'
p1924
sI1923
S'sorority'
p1925
sI1924
S'west coast swing'
p1926
sI1925
S'user experience'
p1927
sI1926
S'blues dance'
p1928
sI1927
S'finnish hip hop'
p1929
sI1928
S'tetherball'
p1930
sI1929
S'slr photography'
p1931
sI1930
S'scale model'
p1932
sI1931
S'hapkido'
p1933
sI1932
S'miniaturization'
p1934
sI1933
S'conservation biology'
p1935
sI1934
S'grappling'
p1936
sI1935
S'chemical biology'
p1937
sI1936
S'german-style'
p1938
sI1937
S'living poetry'
p1939
sI1938
S'regional planning'
p1940
sI1939
S'honky tonk'
p1941
sI1940
S'earth sciences'
p1942
sI1941
S'bamboo flute'
p1943
sI1942
S'monoski'
p1944
sI1943
S'olympic games'
p1945
sI1944
S'international education'
p1946
sI1945
S'techno music'
p1947
sI1946
S'parlour game'
p1948
sI1947
S'french boxing'
p1949
sI1948
S'romantic music'
p1950
sI1949
S'physical anthropology'
p1951
sI1950
S'environmental sciences'
p1952
sI1951
S'balboa'
p1953
sI1952
S'novelty song'
p1954
sI1953
S'greco'
p1955
sI1954
S'jit'
p1956
sI1955
S'ninjutsu'
p1957
sI1956
S'computer programmer'
p1958
sI1957
S'goblet drum'
p1959
sI1958
S'goa trance'
p1960
sI1959
S'taijiquan'
p1961
sI1960
S'transnationality'
p1962
sI1961
S'old timey'
p1963
sI1962
S'microhistory'
p1964
sI1963
S'progressive house'
p1965
sI1964
S'bocce'
p1966
sI1965
S'baglama'
p1967
sI1966
S'ceilidh'
p1968
sI1967
S'electroacoustics'
p1969
sI1968
S'extreme metal'
p1970
sI1969
S'interactive arts'
p1971
sI1970
S'technology assessment'
p1972
sI1971
S'interfaith'
p1973
sI1972
S'pop funk'
p1974
sI1973
S'lathi'
p1975
sI1974
S'international health'
p1976
sI1975
S'latin pop'
p1977
sI1976
S'business psychology'
p1978
sI1977
S'dilbert'
p1979
sI1978
S'physical geography'
p1980
sI1979
S'keyboard controller'
p1981
sI1980
S'parody'
p1982
sI1981
S'pencak silat'
p1983
sI1982
S'mathematical biology'
p1984
sI1983
S'education technology'
p1985
sI1984
S'singing bowl'
p1986
sI1985
S'progressive music'
p1987
sI1986
S'bagpipe'
p1988
sI1987
S'bertsolaritza'
p1989
sI1988
S'romantic drama'
p1990
sI1989
S'motion picture'
p1991
sI1990
S'lowercase'
p1992
sI1991
S'cardiology'
p1993
sI1992
S'chill out music'
p1994
sI1993
S'santoor'
p1995
sI1994
S'comparative government'
p1996
sI1995
S'easy listening'
p1997
sI1996
S'theatre design'
p1998
sI1997
S'human swimming'
p1999
sI1998
S'world game'
p2000
sI1999
S'parlour music'
p2001
sI2000
S'paleoanthropology'
p2002
sI2001
S'tenor violin'
p2003
sI2002
S'design thinking'
p2004
sI2003
S'information visualization'
p2005
sI2004
S'astronautics'
p2006
sI2005
S'change ringing'
p2007
sI2006
S'kite construction'
p2008
sI2007
S'classic metal'
p2009
sI2008
S"women's music"
p2010
sI2009
S'jiujitsu'
p2011
sI2010
S'environmental ethics'
p2012
sI2011
S'volcanology'
p2013
sI2012
S'french rock'
p2014
sI2013
S'ski cross'
p2015
sI2014
S'early christianity'
p2016
sI2015
S'kyudo'
p2017
sI2016
S'electrical engineer'
p2018
sI2017
S'wiffleball'
p2019
sI2018
S'development studies'
p2020
sI2019
S'trail riding'
p2021
sI2020
S'business history'
p2022
sI2021
S'chinese history'
p2023
sI2022
S'business marketing'
p2024
sI2023
S'fraternity'
p2025
sI2024
S'language game'
p2026
sI2025
S'econ'
p2027
sI2026
S'shorinji kempo'
p2028
sI2027
S'sacred harp'
p2029
sI2028
S'mathematics-economics'
p2030
sI2029
S'surgeon'
p2031
sI2030
S'control systems'
p2032
sI2031
S'game show'
p2033
sI2032
S'italian renaissance'
p2034
sI2033
S'association football'
p2035
sI2034
S'ocarina'
p2036
sI2035
S'electro hop'
p2037
sI2036
S'latin rock'
p2038
sI2037
S'islamic studies'
p2039
sI2038
S'philology'
p2040
sI2039
S'roller hockey'
p2041
sI2040
S'yodeling'
p2042
sI2041
S'roots reggae'
p2043
sI2042
S'auction'
p2044
sI2043
S'berimbau'
p2045
sI2044
S'tulum'
p2046
sI2045
S'visual design'
p2047
sI2046
S'ocean drum'
p2048
sI2047
S'elementary education'
p2049
sI2048
S'string instrument'
p2050
sI2049
S'modernization theory'
p2051
sI2050
S'group dance'
p2052
sI2051
S'investment management'
p2053
sI2052
S'architectural pattern'
p2054
sI2053
S'oriental studies'
p2055
sI2054
S'theoretical mathematics'
p2056
sI2055
S'patch collecting'
p2057
sI2056
S'cosmetology'
p2058
sI2057
S'fresco'
p2059
sI2058
S'actress'
p2060
sI2059
S'production engineering'
p2061
sI2060
S'cinema-television'
p2062
sI2061
S'neurobiology'
p2063
sI2062
S'acoustic rock'
p2064
sI2063
S'electropunk'
p2065
sI2064
S'medical sociology'
p2066
sI2065
S'para para'
p2067
sI2066
S'jazz studies'
p2068
sI2067
S'sambo'
p2069
sI2068
S'organized crime'
p2070
sI2069
S'street basketball'
p2071
sI2070
S'toxicology'
p2072
sI2071
S'habitat conservation'
p2073
sI2072
S'guitar banjo'
p2074
sI2073
S'fantasy novel'
p2075
sI2074
S'metallurgy'
p2076
sI2075
S'alt-country'
p2077
sI2076
S'climatology'
p2078
sI2077
S'boogaloo'
p2079
sI2078
S'caribbean music'
p2080
sI2079
S'show tune'
p2081
sI2080
S'chacha'
p2082
sI2081
S'aviation medicine'
p2083
sI2082
S'shito ryu'
p2084
sI2083
S'melodeon'
p2085
sI2084
S'metal casting'
p2086
sI2085
S'breakcore'
p2087
sI2086
S'brass instrument'
p2088
sI2087
S'aeronautical engineering'
p2089
sI2088
S'xiao'
p2090
sI2089
S'environmental biology'
p2091
sI2090
S'kazoo'
p2092
sI2091
S'plant sciences'
p2093
sI2092
S'mechatronics'
p2094
sI2093
S'negotiation'
p2095
sI2094
S'hip hop soul'
p2096
sI2095
S'grime'
p2097
sI2096
S'detroit techno'
p2098
sI2097
S'photographic reporting'
p2099
sI2098
S'outlaw country'
p2100
sI2099
S'computer architecture'
p2101
sI2100
S'pole vault'
p2102
sI2101
S'singing game'
p2103
sI2102
S'southern rock'
p2104
sI2103
S'stone skipping'
p2105
sI2104
S"children's games"
p2106
sI2105
S'straight edge'
p2107
sI2106
S'tomoi'
p2108
sI2107
S'chorinho'
p2109
sI2108
S'electro-industrial'
p2110
sI2109
S'ncaa basketball'
p2111
sI2110
S'hymn'
p2112
sI2111
S'murder mystery'
p2113
sI2112
S'net art'
p2114
sI2113
S'urban sprawl'
p2115
sI2114
S'security studies'
p2116
sI2115
S'ligature'
p2117
sI2116
S'computer engineering'
p2118
sI2117
S'veterinary sciences'
p2119
sI2118
S'broken beat'
p2120
sI2119
S'underwater rugby'
p2121
sI2120
S'bandy'
p2122
sI2121
S'maya music'
p2123
sI2122
S'geophysics'
p2124
sI2123
S'rope jumping'
p2125
sI2124
S'bodhran'
p2126
sI2125
S'automotive'
p2127
sI2126
S'library science'
p2128
sI2127
S'new beat'
p2129
sI2128
S'neural network'
p2130
sI2129
S'vacuum cleaner'
p2131
sI2130
S'information management'
p2132
sI2131
S'phonetics'
p2133
sI2132
S'guitar pop'
p2134
sI2133
S'mass communications'
p2135
sI2134
S'classic punk'
p2136
sI2135
S'american kenpo'
p2137
sI2136
S'kenpo karate'
p2138
sI2137
S'boha'
p2139
sI2138
S'dermatology'
p2140
sI2139
S'keyboard bass'
p2141
sI2140
S'vocal house'
p2142
sI2141
S'hermeneutics'
p2143
sI2142
S'zil'
p2144
sI2143
S'punk funk'
p2145
sI2144
S'student movement'
p2146
sI2145
S'inline speed skating'
p2147
sI2146
S'alternative 90s'
p2148
sI2147
S'modern arnis'
p2149
sI2148
S'ganza'
p2150
sI2149
S'live electronics'
p2151
sI2150
S'noise music'
p2152
sI2151
S'industrial rock'
p2153
sI2152
S'stage design'
p2154
sI2153
S'greek language'
p2155
sI2154
S'classic pop'
p2156
sI2155
S'track cycling'
p2157
sI2156
S'comparative religion'
p2158
sI2157
S'violincello'
p2159
sI2158
S'hihat'
p2160
sI2159
S'twee pop'
p2161
sI2160
S'tchoukball'
p2162
sI2161
S'cell biology'
p2163
sI2162
S'criminal justice'
p2164
sI2163
S'folk jazz'
p2165
sI2164
S'publication'
p2166
sI2165
S'tenor saxophone'
p2167
sI2166
S'art song'
p2168
sI2167
S'guitarron'
p2169
sI2168
S'crust punk'
p2170
sI2169
S'grindcore'
p2171
sI2170
S'computational linguistics'
p2172
sI2171
S'aggrotech'
p2173
sI2172
S'amigurumi'
p2174
sI2173
S'sumo'
p2175
sI2174
S'combat sport'
p2176
sI2175
S'operating system'
p2177
sI2176
S'drum n bass'
p2178
sI2177
S'boxe fran\xc3\xa7aise'
p2179
sI2178
S'oncology nursing'
p2180
sI2179
S'internal medicine'
p2181
sI2180
S'string band'
p2182
sI2181
S'computational neuroscience'
p2183
sI2182
S'fistball'
p2184
sI2183
S'russian people'
p2185
sI2184
S'medical microbiology'
p2186
sI2185
S'balafon'
p2187
sI2186
S'dietetics'
p2188
sI2187
S'digital marketing'
p2189
sI2188
S'creole'
p2190
sI2189
S'third reich'
p2191
sI2190
S'barbat'
p2192
sI2191
S'international economics'
p2193
sI2192
S'information science'
p2194
sI2193
S'chemistry, music'
p2195
sI2194
S'racquet'
p2196
sI2195
S'general science'
p2197
sI2196
S'film score'
p2198
sI2197
S'particle physics'
p2199
sI2198
S'geological sciences'
p2200
sI2199
S'punk blues'
p2201
sI2200
S'applied art'
p2202
sI2201
S'book binding'
p2203
sI2202
S'piri'
p2204
sI2203
S'chinese philosophy'
p2205
sI2204
S'chamber music'
p2206
sI2205
S'art punk'
p2207
sI2206
S'online marketing'
p2208
sI2207
S'officer training'
p2209
sI2208
S'rogaining'
p2210
sI2209
S'music cognition'
p2211
sI2210
S'valencia cf'
p2212
sI2211
S'claves'
p2213
sI2212
S'hurdling'
p2214
sI2213
S'trip rock'
p2215
sI2214
S'talking blues'
p2216
sI2215
S'glitch'
p2217
sI2216
S'organizational studies'
p2218
sI2217
S'shoegazing'
p2219
sI2218
S'assyriology'
p2220
sI2219
S'classical studies'
p2221
sI2220
S'ocean engineering'
p2222
sI2221
S'traffic engineering'
p2223
sI2222
S'bounce music'
p2224
sI2223
S'political management'
p2225
sI2224
S'steam punk'
p2226
sI2225
S'surface science'
p2227
sI2226
S'sea shanty'
p2228
sI2227
S'electro acoustic'
p2229
sI2228
S'fender stratocaster'
p2230
sI2229
S'wargaming'
p2231
sI2230
S'communication arts'
p2232
sI2231
S'kantele'
p2233
sI2232
S'evolutionary systematics'
p2234
sI2233
S'japanese pop'
p2235
sI2234
S'long jump'
p2236
sI2235
S'hip hop dance'
p2237
sI2236
S'business news'
p2238
sI2237
S'pianoforte'
p2239
sI2238
S'kadans'
p2240
sI2239
S'naban'
p2241
sI2240
S'language courses'
p2242
sI2241
S'designer game'
p2243
sI2242
S'boy band'
p2244
sI2243
S'expressionist dance'
p2245
sI2244
S'evaluation'
p2246
sI2245
S'organic chemistry'
p2247
sI2246
S'geology/geophysics'
p2248
sI2247
S'geochemistry'
p2249
sI2248
S'deep house'
p2250
sI2249
S'beadwork'
p2251
sI2250
S'ball badminton'
p2252
sI2251
S'extreme poverty'
p2253
sI2252
S'information design'
p2254
sI2253
S'concept design'
p2255
sI2254
S'bajiquan'
p2256
sI2255
S'bokator'
p2257
sI2256
S'fan fiction'
p2258
sI2257
S'finswimming'
p2259
sI2258
S'landscape ecology'
p2260
sI2259
S'marine geology'
p2261
sI2260
S'science education'
p2262
sI2261
S'golf fitness'
p2263
sI2262
S'noise rock'
p2264
sI2263
S'nyckelharpa'
p2265
sI2264
S'cuatro'
p2266
sI2265
S'alphorn'
p2267
sI2266
S'dog agility'
p2268
sI2267
S'sousaphone'
p2269
sI2268
S'immigration law'
p2270
sI2269
S'embodiment'
p2271
sI2270
S'managment'
p2272
sI2271
S'powerboating'
p2273
sI2272
S'structural engineering'
p2274
sI2273
S'acid techno'
p2275
sI2274
S'speech pathology'
p2276
sI2275
S'miniature golf'
p2277
sI2276
S'family game'
p2278
sI2277
S'jazz violin'
p2279
sI2278
S'emergency medicine'
p2280
sI2279
S'learning sciences'
p2281
sI2280
S'classical latin'
p2282
sI2281
S'computer studies'
p2283
sI2282
S'industrial metal'
p2284
sI2283
S'software engineering'
p2285
sI2284
S'volksmusik'
p2286
sI2285
S'kombatan'
p2287
sI2286
S'inorganic chemistry'
p2288
sI2287
S'pop punk'
p2289
sI2288
S'maracas'
p2290
sI2289
S'psychobilly'
p2291
sI2290
S'health services'
p2292
sI2291
S'guitar comedy'
p2293
sI2292
S'gongs'
p2294
sI2293
S'space physics'
p2295
sI2294
S'bharatanatyam'
p2296
sI2295
S'washboard'
p2297
sI2296
S'bassline'
p2298
sI2297
S'arts administration'
p2299
sI2298
S'caj\xc3\xb3n'
p2300
sI2299
S'darbuka'
p2301
sI2300
S'ambient industrial'
p2302
sI2301
S'dark ambient'
p2303
sI2302
S'tenpin bowling'
p2304
sI2303
S'russki'
p2305
sI2304
S'social class'
p2306
sI2305
S'biomedical research'
p2307
sI2306
S'snare drum'
p2308
sI2307
S'plena'
p2309
sI2308
S'sport management'
p2310
sI2309
S'category theory'
p2311
sI2310
S'fue'
p2312
sI2311
S'instrumental rock'
p2313
sI2312
S'ichthyology'
p2314
sI2313
S'viet'
p2315
sI2314
S'dependency theory'
p2316
sI2315
S'dendrology'
p2317
sI2316
S'general studies'
p2318
sI2317
S'kenjutsu'
p2319
sI2318
S'book burning'
p2320
sI2319
S'computational design'
p2321
sI2320
S'plant biologist'
p2322
sI2321
S'web marketing'
p2323
sI2322
S'xingyiquan'
p2324
sI2323
S'dice game'
p2325
sI2324
S'furniture music'
p2326
sI2325
S'extreme ironing'
p2327
sI2326
S'crocker'
p2328
sI2327
S'grec'
p2329
sI2328
S'medieval literature'
p2330
sI2329
S'afrobeat'
p2331
sI2330
S'eventing'
p2332
sI2331
S'electronic technology'
p2333
sI2332
S'trova'
p2334
sI2333
S'russian rock'
p2335
sI2334
S'virtual reality'
p2336
sI2335
S'modern rock'
p2337
sI2336
S'viennese waltz'
p2338
sI2337
S'garage punk'
p2339
sI2338
S'medicinal chemistry'
p2340
sI2339
S'c\xc3\xa9ilidh'
p2341
sI2340
S'pan flute'
p2342
sI2341
S'audio production'
p2343
sI2342
S'foreign relations'
p2344
sI2343
S'wind machine'
p2345
sI2344
S'meat science'
p2346
sI2345
S'harp guitar'
p2347
sI2346
S'synth metal'
p2348
sI2347
S'iranian languages'
p2349
sI2348
S'decima'
p2350
sI2349
S'hardtechno'
p2351
sI2350
S'lyre'
p2352
sI2351
S'quantum chemistry'
p2353
sI2352
S'eurodance'
p2354
sI2353
S'greyhound racing'
p2355
sI2354
S'vt'
p2356
sI2355
S'soul blues'
p2357
sI2356
S'fluid mechanics'
p2358
sI2357
S'soleares'
p2359
sI2358
S'biblical studies'
p2360
sI2359
S'northwest wind'
p2361
sI2360
S'asian languages'
p2362
sI2361
S'ragga jungle'
p2363
sI2362
S'african reggae'
p2364
sI2363
S'rope skipping'
p2365
sI2364
S'mozambique'
p2366
sI2365
S'clarsach'
p2367
sI2366
S'aviation engineering'
p2368
sI2367
S'top 40'
p2369
sI2368
S'stradivarius'
p2370
sI2369
S'squash rackets'
p2371
sI2370
S'decathlon'
p2372
sI2371
S'ux'
p2373
sI2372
S'choral music'
p2374
sI2373
S'architectural engineering'
p2375
sI2374
S'bell chimes'
p2376
sI2375
S'movies collecting'
p2377
sI2376
S'gothic music'
p2378
sI2377
S'econometrics'
p2379
sI2378
S'nuclear fusion'
p2380
sI2379
S'carnatic music'
p2381
sI2380
S'fen skating'
p2382
sI2381
S'cognitive psychology'
p2383
sI2382
S'mathematical sciences'
p2384
sI2383
S'evolutionary ecology'
p2385
sI2384
S'frame drum'
p2386
sI2385
S'padel tennis'
p2387
sI2386
S'theatrical design'
p2388
sI2387
S's\xc3\xb8ren kierkegaard'
p2389
sI2388
S'freebord'
p2390
sI2389
S'chinlone'
p2391
sI2390
S'jewish music'
p2392
sI2391
S'doumbek'
p2393
sI2392
S'classical philology'
p2394
sI2393
S'downtown music'
p2395
sI2394
S'piccolo'
p2396
sI2395
S"women's history"
p2397
sI2396
S'folk pop'
p2398
sI2397
S'shukokai'
p2399
sI2398
S'goaltimate'
p2400
sI2399
S'flugelhorn'
p2401
sI2400
S'jodo'
p2402
sI2401
S'shuai jiao'
p2403
sI2402
S'rock fran\xc3\xa7ais'
p2404
sI2403
S'phylogenetics'
p2405
sI2404
S'daf'
p2406
sI2405
S'neurolinguistics'
p2407
sI2406
S'new rave'
p2408
sI2407
S'mainstream rock'
p2409
sI2408
S'polka'
p2410
sI2409
S'doom metal'
p2411
sI2410
S'fantasy fiction'
p2412
sI2411
S'sintir'
p2413
sI2412
S'american war'
p2414
sI2413
S'mediterranean studies'
p2415
sI2414
S'crossover'
p2416
sI2415
S'remix'
p2417
sI2416
S'medical research'
p2418
sI2417
S'castellano'
p2419
sI2418
S'timbales'
p2420
sI2419
S'international security'
p2421
sI2420
S'xun'
p2422
sI2421
S'hardcore hip hop'
p2423
sI2422
S'bansuri'
p2424
sI2423
S'danzon'
p2425
sI2424
S'cx'
p2426
sI2425
S'clinical psychology'
p2427
sI2426
S'music analysis'
p2428
sI2427
S'image analysis'
p2429
sI2428
S'document design'
p2430
sI2429
S'bridge design'
p2431
sI2430
S'buddhist studies'
p2432
sI2431
S'mexican rock'
p2433
sI2432
S'nortec'
p2434
sI2433
S'spanish rock'
p2435
sI2434
S'motogp'
p2436
sI2435
S'lion dance'
p2437
sI2436
S'burmese boxing'
p2438
sI2437
S'secondary education'
p2439
sI2438
S'beach soccer'
p2440
sI2439
S'ngoni'
p2441
sI2440
S'kora'
p2442
sI2441
S'melodic music'
p2443
sI2442
S'postal history'
p2444
sI2443
S'environmental chemistry'
p2445
sI2444
S'model aircraft'
p2446
sI2445
S'duranguense'
p2447
sI2446
S'makossa'
p2448
sI2447
S'pure mathematics'
p2449
sI2448
S'chicano studies'
p2450
sI2449
S'british literature'
p2451
sI2450
S'korg synthesizer'
p2452
sI2451
S'gynecology'
p2453
sI2452
S'minimal house'
p2454
sI2453
S'embryology'
p2455
sI2454
S'bass trumpet'
p2456
sI2455
S'guzheng'
p2457
sI2456
S'hard dance'
p2458
sI2457
S'yoseikan budo'
p2459
sI2458
S'aerospace engineering'
p2460
sI2459
S'pipa'
p2461
sI2460
S'minimal electronica'
p2462
sI2461
S'tax law'
p2463
sI2462
S'geosciences'
p2464
sI2463
S'metaphysical politics'
p2465
sI2464
S'military science'
p2466
sI2465
S'contemporary jazz'
p2467
sI2466
S'queercore'
p2468
sI2467
S'bandurria'
p2469
sI2468
S'italo disco'
p2470
sI2469
S'contemporary ballet'
p2471
sI2470
S'psychrometry'
p2472
sI2471
S'business finance'
p2473
sI2472
S'medical anthropology'
p2474
sI2473
S'future jazz'
p2475
sI2474
S'dutch language'
p2476
sI2475
S'skeleton'
p2477
sI2476
S'ss'
p2478
sI2477
S'electronic piano'
p2479
sI2478
S'pre medicine'
p2480
sI2479
S'symphonic metal'
p2481
sI2480
S'praxeology'
p2482
sI2481
S'electronic drum'
p2483
sI2482
S'french house'
p2484
sI2483
S'cinema studies'
p2485
sI2484
S'general relativity'
p2486
sI2485
S'seggae'
p2487
sI2486
S'dramaturgy'
p2488
sI2487
S'church history'
p2489
sI2488
S'physiological chemistry'
p2490
sI2489
S'freestyle music'
p2491
sI2490
S'sakara music'
p2492
sI2491
S'bratsche'
p2493
sI2492
S'international marketing'
p2494
sI2493
S'finnish tango'
p2495
sI2494
S'self-organization'
p2496
sI2495
S'thrash'
p2497
sI2496
S'psychedelia'
p2498
sI2497
S'percussion instrument'
p2499
sI2498
S'santal music'
p2500
sI2499
S'maloya'
p2501
sI2500
S'bass violin'
p2502
sI2501
S'transverse flute'
p2503
sI2502
S'geoinformatics'
p2504
sI2503
S'aqua aerobics'
p2505
sI2504
S'bipa'
p2506
sI2505
S'fidget'
p2507
sI2506
S'tech news'
p2508
sI2507
S'gaita'
p2509
sI2508
S'car game'
p2510
sI2509
S'editorial journalism'
p2511
sI2510
S'international finance'
p2512
sI2511
S'aerodynamics'
p2513
sI2512
S'political methodology'
p2514
sI2513
S'tanbur'
p2515
sI2514
S'turkish music'
p2516
sI2515
S'aeronautics'
p2517
sI2516
S'astrophysical sciences'
p2518
sI2517
S'managerial economics'
p2519
sI2518
S'mrdanga'
p2520
sI2519
S'kenpo'
p2521
sI2520
S'portugu\xc3\xaas'
p2522
sI2521
S'hung gar'
p2523
sI2522
S'american civilization'
p2524
sI2523
S'parasitology'
p2525
sI2524
S'comparative law'
p2526
sI2525
S'food management'
p2527
sI2526
S'girl group'
p2528
sI2527
S'planetary science'
p2529
sI2528
S'information theory'
p2530
sI2529
S'alternative metal'
p2531
sI2530
S'topology'
p2532
sI2531
S'occupational therapy'
p2533
sI2532
S'moral psychology'
p2534
sI2533
S'kinnor'
p2535
sI2534
S'fingerstyle guitar'
p2536
sI2535
S'rhodes piano'
p2537
sI2536
S'fender rhodes'
p2538
sI2537
S'free jazz'
p2539
sI2538
S'bass flute'
p2540
sI2539
S'storm chasing'
p2541
sI2540
S'sound collage'
p2542
sI2541
S'goje'
p2543
sI2542
S'cornet'
p2544
sI2543
S'revolutionary war'
p2545
sI2544
S'agricultural science'
p2546
sI2545
S'speed badminton'
p2547
sI2546
S'obstetrics'
p2548
sI2547
S'english billiards'
p2549
sI2548
S'son jarocho'
p2550
sI2549
S'microfinancing'
p2551
sI2550
S'technical writing'
p2552
sI2551
S'ancient music'
p2553
sI2552
S'digital filmmaking'
p2554
sI2553
S'wind instruments'
p2555
sI2554
S'peruvian cumbia'
p2556
sI2555
S'treble recorder'
p2557
sI2556
S'mathematical chemistry'
p2558
sI2557
S'nu jazz'
p2559
sI2558
S'intelligent design'
p2560
sI2559
S'applied science'
p2561
sI2560
S'organum'
p2562
sI2561
S'fishing game'
p2563
sI2562
S'seido'
p2564
sI2563
S'alternative folk'
p2565
sI2564
S'microelectronics'
p2566
sI2565
S'general management'
p2567
sI2566
S'renaissance music'
p2568
sI2567
S'scottish literature'
p2569
sI2568
S'electric piano'
p2570
sI2569
S'contemporary folk'
p2571
sI2570
S'chamber pop'
p2572
sI2571
S'systema'
p2573
sI2572
S'semba'
p2574
sI2573
S'water resources'
p2575
sI2574
S'wind chime'
p2576
sI2575
S'industrial engineering'
p2577
sI2576
S'stoner rock'
p2578
sI2577
S'control theory'
p2579
sI2578
S'design pattern'
p2580
sI2579
S'pop soul'
p2581
sI2580
S'careers'
p2582
sI2581
S'\xe6\x97\xa5\xe6\x9c\xac\xe8\xaa\x9e'
p2583
sI2582
S'experimental medicine'
p2584
sI2583
S'canci\xc3\xb3n'
p2585
sI2584
S'vietnam war'
p2586
sI2585
S'mathematical economics'
p2587
sI2586
S'crunk'
p2588
sI2587
S'javelin throw'
p2589
sI2588
S'diplomatic sciences'
p2590
sI2589
S'industrial technology'
p2591
sI2590
S'e-marketing'
p2592
sI2591
S'ancient philosophy'
p2593
sI2592
S'roots rock'
p2594
sI2593
S'greek literature'
p2595
sI2594
S'political realism'
p2596
sI2595
S'glockenspiel'
p2597
sI2596
S'jing'
p2598
sI2597
S'spamming'
p2599
sI2598
S'rock noir'
p2600
sI2599
S'gothic rock'
p2601
sI2600
S'lead guitar'
p2602
sI2601
S'marxist philosophy'
p2603
sI2602
S'kwela'
p2604
sI2603
S'background music'
p2605
sI2604
S'lied'
p2606
sI2605
S'tech house'
p2607
sI2606
S'classical funk'
p2608
sI2607
S'ringette'
p2609
sI2608
S'rock balancing'
p2610
sI2609
S'medieval dance'
p2611
sI2610
S'kankles'
p2612
sI2611
S'baroque dance'
p2613
sI2612
S'kankl\xc4\x97s'
p2614
sI2613
S'zarb'
p2615
sI2614
S'tropical medicine'
p2616
sI2615
S'smooth jazz'
p2617
sI2616
S'general engineering'
p2618
sI2617
S'nose flute'
p2619
sI2618
S'mbira'
p2620
sI2619
S'gaelic music'
p2621
sI2620
S'race walking'
p2622
sI2621
S'classic country'
p2623
sI2622
S'uilleann pipes'
p2624
sI2623
S'banjo guitar'
p2625
sI2624
S'jesus music'
p2626
sI2625
S'food engineering'
p2627
sI2626
S'creative studies'
p2628
sI2627
S'mathematical statistics'
p2629
sI2628
S'aves'
p2630
sI2629
S'czech literature'
p2631
sI2630
S'zionism'
p2632
sI2631
S'melbourne shuffle'
p2633
sI2632
S'record producer'
p2634
sI2633
S'studio art'
p2635
sI2634
S'electric violin'
p2636
sI2635
S'gerontology'
p2637
sI2636
S'kalarippayattu'
p2638
sI2637
S'jurisprudence'
p2639
sI2638
S'social technology'
p2640
sI2639
S'jousting'
p2641
sI2640
S'repetitive music'
p2642
sI2641
S'indian fusion'
p2643
sI2642
S'the pit'
p2644
sI2643
S'bicycle collecting'
p2645
sI2644
S'german rock'
p2646
sI2645
S'euphonium'
p2647
sI2646
S'cantopop'
p2648
sI2647
S'college rock'
p2649
sI2648
S'ranchera'
p2650
sI2649
S'psych folk'
p2651
sI2650
S'hurdy gurdy'
p2652
sI2651
S'applied mathematics'
p2653
sI2652
S'manufacturing engineering'
p2654
sI2653
S'finacial analysis'
p2655
sI2654
S'ethnic electronica'
p2656
sI2655
S'sneakerhead'
p2657
sI2656
S'ba\xc4\x9flama'
p2658
sI2657
S'brand management'
p2659
sI2658
S'letter game'
p2660
sI2659
S'ibanez'
p2661
sI2660
S'udu'
p2662
sI2661
S'computer rock'
p2663
sI2662
S'conch'
p2664
sI2663
S'slow jam'
p2665
sI2664
S'austrian music'
p2666
sI2665
S'rare groove'
p2667
sI2666
S'psybient'
p2668
sI2667
S'electroclash'
p2669
sI2668
S'country folk'
p2670
sI2669
S'steel guitar'
p2671
sI2670
S'wood chopping'
p2672
sI2671
S'forest ecology'
p2673
sI2672
S'disco polo'
p2674
sI2673
S'riot grrrl'
p2675
sI2674
S'cycle polo'
p2676
sI2675
S'political game'
p2677
sI2676
S'xaphoon'
p2678
sI2677
S'holiday music'
p2679
sI2678
S'other percussion'
p2680
sI2679
S'neo soul'
p2681
sI2680
S'medical ethics'
p2682
sI2681
S'fan club'
p2683
sI2682
S'rap metal'
p2684
sI2683
S'mining engineering'
p2685
sI2684
S'miniten'
p2686
sI2685
S'gemology'
p2687
sI2686
S'systems ecology'
p2688
sI2687
S'english studies'
p2689
sI2688
S'fantasy football'
p2690
sI2689
S'knowledge management'
p2691
sI2690
S'kanun'
p2692
sI2691
S'materials science'
p2693
sI2692
S'boccia'
p2694
sI2693
S'veena'
p2695
sI2694
S'vexillology'
p2696
sI2695
S'rock collecting'
p2697
sI2696
S'freestyle wrestling'
p2698
sI2697
S'automobile racing'
p2699
sI2698
S'shooting sports'
p2700
sI2699
S'fiddlesticks'
p2701
sI2700
S'piano rock'
p2702
sI2701
S't\xc3\xbcrkisch'
p2703
sI2702
S'twitching'
p2704
sI2703
S'dirty south'
p2705
sI2704
S'funky breaks'
p2706
sI2705
S'bass trombone'
p2707
sI2706
S'ecommerce'
p2708
sI2707
S'materials engineering'
p2709
sI2708
S'power metal'
p2710
sI2709
S'sinology'
p2711
sI2710
S'alternating current'
p2712
sI2711
S'underground rap'
p2713
sI2712
S'modernization'
p2714
sI2713
S'pop rap'
p2715
sI2714
S'medical genetics'
p2716
sI2715
S'personal computers'
p2717
sI2716
S'caribbean literature'
p2718
sI2717
S'anthology'
p2719
sI2718
S'business administration'
p2720
sI2719
S'chemistry & biochemistry'
p2721
sI2720
S'surdo'
p2722
sI2721
S'microlending'
p2723
sI2722
S'uv astronomy'
p2724
sI2723
S'madrigal'
p2725
sI2724
S'mountain unicycling'
p2726
sI2725
S'tech trance'
p2727
sI2726
S'urban anthropology'
p2728
sI2727
S'evolutionary linguistics'
p2729
sI2728
S'geological engineering'
p2730
sI2729
S'electrogoth'
p2731
sI2730
S'semantic web'
p2732
sI2731
S'biomechanics'
p2733
sI2732
S'flatland bmx'
p2734
sI2733
S'militaria'
p2735
sI2734
S'cavaquinho'
p2736
sI2735
S'pediatrics'
p2737
sI2736
S'hawaiian music'
p2738
sI2737
S'european studies'
p2739
sI2738
S'dwarf tossing'
p2740
sI2739
S'desert rock'
p2741
sI2740
S'home economics'
p2742
sI2741
S'weissenborn'
p2743
sI2742
S'euro-trance'
p2744
sI2743
S'group processes'
p2745
sI2744
S'canadian football'
p2746
sI2745
S'virology'
p2747
sI2746
S'slipknot'
p2748
sI2747
S'community networking'
p2749
sI2748
S'critical psychology'
p2750
sI2749
S'plant physiology'
p2751
sI2750
S'abstract photography'
p2752
sI2751
S'high german'
p2753
sI2752
S'health sciences'
p2754
sI2753
S'korean drum'
p2755
sI2754
S'blue beat'
p2756
sI2755
S'shoot boxing'
p2757
sI2756
S'medical informatics'
p2758
sI2757
S'nde'
p2759
sI2758
S'shakuhachi'
p2760
sI2759
S'mystery fiction'
p2761
sI2760
S'classick rock'
p2762
sI2761
S'russian pop'
p2763
sI2762
S'electronic rap'
p2764
sI2763
S'dansband'
p2765
sI2764
S'hornpipe'
p2766
sI2765
S'classical acting'
p2767
sI2766
S'victorian era'
p2768
sI2767
S'japanese rock'
p2769
sI2768
S'physical oceanography'
p2770
sI2769
S'application software'
p2771
sI2770
S'ballo'
p2772
sI2771
S'reproductive health'
p2773
sI2772
S'cancion'
p2774
sI2773
S'latin house'
p2775
sI2774
S'performance studies'
p2776
sI2775
S'italian opera'
p2777
sI2776
S'finance management'
p2778
sI2777
S'sepak takraw'
p2779
sI2778
S'mouth organ'
p2780
sI2779
S'lisp'
p2781
sI2780
S'intellectual history'
p2782
sI2781
S'meta-ethics'
p2783
sI2782
S'tiple'
p2784
sI2783
S'classical percussion'
p2785
sI2784
S'software programmer'
p2786
sI2785
S'ivrit'
p2787
sI2786
S'wind instrument'
p2788
sI2787
S'beach handball'
p2789
sI2788
S'pharmaceuticals'
p2790
sI2789
S'nutrition science'
p2791
sI2790
S'frontenis'
p2792
sI2791
S'equestrian vaulting'
p2793
sI2792
S'systems biology'
p2794
sI2793
S'communicable diseases'
p2795
sI2794
S'public administration'
p2796
sI2795
S'choro'
p2797
sI2796
S'fretless guitar'
p2798
sI2797
S'modern pentathlon'
p2799
sI2798
S'soprano saxophone'
p2800
sI2799
S'kumdo'
p2801
sI2800
S'riddim'
p2802
sI2801
S'radiology'
p2803
sI2802
S'wheelchair rugby'
p2804
sI2803
S'duduk'
p2805
sI2804
S'ndt'
p2806
sI2805
S'pan pipe'
p2807
sI2806
S'cryobiology'
p2808
sI2807
S'ethnic studies'
p2809
sI2808
S'striptease'
p2810
sI2809
S'waka music'
p2811
sI2810
S'digital synthesizer'
p2812
sI2811
S'post-apocalypse'
p2813
sI2812
S'diva house'
p2814
sI2813
S'shred guitar'
p2815
sI2814
S'microkorg'
p2816
sI2815
S'new romantic'
p2817
sI2816
S'hebrew language'
p2818
sI2817
S'statistical physics'
p2819
sI2818
S'bicycle racing'
p2820
sI2819
S'vietnamese language'
p2821
sI2820
S'nuclear chemistry'
p2822
sI2821
S'geobiology'
p2823
sI2822
S'nutritional sciences'
p2824
sI2823
S'local knowledge'
p2825
sI2824
S'sho'
p2826
sI2825
S'normative theory'
p2827
sI2826
S'drum programming'
p2828
sI2827
S'broomball'
p2829
sI2828
S'buk'
p2830
sI2829
S'sled hockey'
p2831
sI2830
S'medieval reenactment'
p2832
sI2831
S'latin american studies'
p2833
sI2832
S'epigraphy'
p2834
sI2833
S'double dutch'
p2835
sI2834
S'high fantasy'
p2836
sI2835
S'management engineering'
p2837
sI2836
S'bioengineering'
p2838
sI2837
S'street punk'
p2839
sI2838
S'golden state'
p2840
sI2839
S'jug band'
p2841
sI2840
S'print journalism'
p2842
sI2841
S'electronic keyboard'
p2843
sI2842
S'mainland china'
p2844
sI2843
S'shawm'
p2845
sI2844
S'business communications'
p2846
sI2845
S'sonny'
p2847
sI2846
S'rope climbing'
p2848
sI2847
S'jitterbug'
p2849
sI2848
S'clinical medicine'
p2850
sI2849
S'milonga'
p2851
sI2850
S'high jump'
p2852
sI2851
S'gatka'
p2853
sI2852
S'group sounds'
p2854
sI2853
S'haidong gumdo'
p2855
sI2854
S'water basketball'
p2856
sI2855
S'clapping game'
p2857
sI2856
S'biochemical sciences'
p2858
sI2857
S'sikaran'
p2859
sI2858
S'construction engineering'
p2860
sI2859
S'plant pathology'
p2861
sI2860
S'genomics'
p2862
sI2861
S'pachanga'
p2863
sI2862
S'nuevo tango'
p2864
sI2863
S'production management'
p2865
sI2864
S'nueva trova'
p2866
sI2865
S'sailboarding'
p2867
sI2866
S'suka'
p2868
sI2867
S'supercomputing'
p2869
sI2868
S'thai rock'
p2870
sI2869
S'the warlocks'
p2871
sI2870
S'gouren'
p2872
sI2871
S'fantasy sport'
p2873
sI2872
S'database design'
p2874
sI2873
S'professional writing'
p2875
sI2874
S'gothic novel'
p2876
sI2875
S'israeli theatre'
p2877
sI2876
S'systematics'
p2878
sI2877
S'agricultural economics'
p2879
sI2878
S'block flute'
p2880
sI2879
S'doonee'
p2881
sI2880
S'sema'
p2882
sI2881
S'medical physics'
p2883
sI2882
S'costing'
p2884
sI2883
S'psychopharmacology'
p2885
sI2884
S'drum solo'
p2886
sI2885
S'natural resources'
p2887
sI2886
S'filmi pop'
p2888
sI2887
S'keirin'
p2889
sI2888
S'discrete mathematics'
p2890
sI2889
S't\xc3\xbcrk\xc3\xa7e'
p2891
sI2890
S'british bulldogs'
p2892
sI2891
S'information integration'
p2893
sI2892
S'bandoneon'
p2894
sI2893
S'shaker'
p2895
sI2894
S'alternative dance'
p2896
sI2895
S'progressive electro'
p2897
sI2896
S'baguazhang'
p2898
sI2897
S'fossil collecting'
p2899
sI2898
S'group theory'
p2900
sI2899
S'glaciology'
p2901
sI2900
S'freestyle bmx'
p2902
sI2901
S'koto'
p2903
sI2902
S'other flutes'
p2904
sI2903
S'power soccer'
p2905
sI2904
S'geodesy'
p2906
sI2905
S'machete'
p2907
sI2906
S'uk garage'
p2908
sI2907
S'web services'
p2909
sI2908
S'jazz keyboard'
p2910
sI2909
S'jam rock'
p2911
sI2910
S'plant collecting'
p2912
sI2911
S'dance education'
p2913
sI2912
S'geomorphology'
p2914
sI2913
S'yuca'
p2915
sI2914
S'castillian'
p2916
sI2915
S'complex system'
p2917
sI2916
S'harsh noise'
p2918
sI2917
S'exercise physiology'
p2919
sI2918
S'avantgarde music'
p2920
sI2919
S'water organ'
p2921
sI2920
S'astrobiology'
p2922
sI2921
S'sanshin'
p2923
sI2922
S'woodwind'
p2924
sI2923
S'suizen'
p2925
sI2924
S'regency dance'
p2926
sI2925
S'skacore'
p2927
sI2926
S'chemistry;mathematics'
p2928
sI2927
S'rowing exercise'
p2929
sI2928
S'aquatics swimming'
p2930
sI2929
S'mathematical astronomy'
p2931
sI2930
S'biniou'
p2932
sI2931
S'bombard'
p2933
sI2932
S'ehealth'
p2934
sI2933
S'target practice'
p2935
sI2934
S'experimental rock'
p2936
sI2935
S'phonology'
p2937
sI2936
S'eskrima'
p2938
sI2937
S'hobby game'
p2939
sI2938
S'hammered dulcimer'
p2940
sI2939
S"00's"
p2941
sI2940
S'classic hits'
p2942
sI2941
S'statistical graphics'
p2943
sI2942
S'alto clarinet'
p2944
sI2943
S'shinty'
p2945
sI2944
S'woodwind quintet'
p2946
sI2945
S'hospitality management'
p2947
sI2946
S'modal jazz'
p2948
sI2947
S'operations research'
p2949
sI2948
S'family laws'
p2950
sI2949
S'jingle'
p2951
sI2950
S'taiwanese pop'
p2952
sI2951
S'yorubeat'
p2953
sI2952
S'historical geology'
p2954
sI2953
S'animal physiology'
p2955
sI2954
S'organetto'
p2956
sI2955
S'environmental planning'
p2957
sI2956
S'neofolk'
p2958
sI2957
S'tropicalismo'
p2959
sI2958
S'calva'
p2960
sI2959
S'balinese dance'
p2961
sI2960
S'nigun'
p2962
sI2961
S'eai'
p2963
sI2962
S'seishinkai'
p2964
sI2963
S'nota'
p2965
sI2964
S'casiotone'
p2966
sI2965
S'irish flute'
p2967
sI2966
S'systems science'
p2968
sI2967
S'cardiovascular systems'
p2969
sI2968
S'acid rock'
p2970
sI2969
S'transportation design'
p2971
sI2970
S'bandone\xc3\xb3n'
p2972
sI2971
S'chicago blues'
p2973
sI2972
S'horseball'
p2974
sI2973
S'combatives'
p2975
sI2974
S'soil science'
p2976
sI2975
S'fluid dynamics'
p2977
sI2976
S'txalaparta'
p2978
sI2977
S'defendo'
p2979
sI2978
S'qa engineering'
p2980
sI2979
S'greek rock'
p2981
sI2980
S'folktronica'
p2982
sI2981
S'business informatics'
p2983
sI2982
S'chess boxing'
p2984
sI2983
S'cuban rumba'
p2985
sI2984
S'krautrock'
p2986
sI2985
S'syd barrett'
p2987
sI2986
S'italian rock'
p2988
sI2987
S'tonette'
p2989
sI2988
S'classical archaeology'
p2990
sI2989
S'horror novel'
p2991
sI2990
S'urban contemporary'
p2992
sI2991
S'storytelling game'
p2993
sI2992
S'hydrogen economy'
p2994
sI2993
S'sacred music'
p2995
sI2994
S'eastern swing'
p2996
sI2995
S'river running'
p2997
sI2996
S'space rock'
p2998
sI2997
S'development sociology'
p2999
sI2998
S'parody music'
p3000
sI2999
S'area studies'
p3001
sI3000
S'comparative politics'
p3002
sI3001
S'danish language'
p3003
sI3002
S'planking'
p3004
sI3003
S'alegrias'
p3005
sI3004
S'string bass'
p3006
sI3005
S'paleobiology'
p3007
sI3006
S'english philology'
p3008
sI3007
S'thai studies'
p3009
sI3008
S'geographic medicine'
p3010
sI3009
S'goalball'
p3011
sI3010
S'luta livre'
p3012
sI3011
S'gothic fiction'
p3013
sI3012
S'international management'
p3014
sI3013
S'fine art photography'
p3015
sI3014
S'sportfishing'
p3016
sI3015
S'public service'
p3017
sI3016
S'dombra'
p3018
sI3017
S'rn'
p3019
sI3018
S'street piano'
p3020
sI3019
S'novelty piano'
p3021
sI3020
S'chacarera'
p3022
sI3021
S'brazilian jazz'
p3023
sI3022
S'italian jazz'
p3024
sI3023
S'cryptology'
p3025
sI3024
S'vaccination'
p3026
sI3025
S'welfare state'
p3027
sI3026
S'thumb piano'
p3028
sI3027
S'kosmische musik'
p3029
sI3028
S'mongolian wrestling'
p3030
sI3029
S'chiptune'
p3031
sI3030
S'oneirology'
p3032
sI3031
S'red dirt'
p3033
sI3032
S'lieder'
p3034
sI3033
S'longa'
p3035
sI3034
S'model rocket'
p3036
sI3035
S'chande'
p3037
sI3036
S'tranverse flute'
p3038
sI3037
S'danger music'
p3039
sI3038
S'czech studies'
p3040
sI3039
S'systems analysis'
p3041
sI3040
S'gregorian chant'
p3042
sI3041
S'2 tone'
p3043
sI3042
S'foresight'
p3044
sI3043
S'contemporary country'
p3045
sI3044
S'digital hardcore'
p3046
sI3045
S'aircraft spotting'
p3047
sI3046
S'structural biology'
p3048
sI3047
S'mashup'
p3049
sI3048
S'applied physics'
p3050
sI3049
S'general chemistry'
p3051
sI3050
S'liberal studies'
p3052
sI3051
S'tai chi chuan'
p3053
sI3052
S'environmental geology'
p3054
sI3053
S'geography / meteorology'
p3055
sI3054
S'audio technology'
p3056
sI3055
S'water volleyball'
p3057
sI3056
S'hochdeutsch'
p3058
sI3057
S'montuno'
p3059
sI3058
S'kiiking'
p3060
sI3059
S'glam metal'
p3061
sI3060
S'cytology'
p3062
sI3061
S'textile technology'
p3063
sI3062
S'ans synthesizer'
p3064
sI3063
S'military tactics'
p3065
sI3064
S'arkan'
p3066
sI3065
S'collegiate wrestling'
p3067
sI3066
S'downbeat'
p3068
sI3067
S'instrumental hip hop'
p3069
sI3068
S'symphonic rock'
p3070
sI3069
S'eurogame'
p3071
sI3070
S'new pop'
p3072
sI3071
S'calypso music'
p3073
sI3072
S'musique concrete'
p3074
sI3073
S'tamburello'
p3075
sI3074
S'viking metal'
p3076
sI3075
S'concrete structures'
p3077
sI3076
S'data mining'
p3078
sI3077
S'dental surgery'
p3079
sI3078
S'camogie'
p3080
sI3079
S'beat music'
p3081
sI3080
S'biology/english'
p3082
sI3081
S'human genetics'
p3083
sI3082
S'street organ'
p3084
sI3083
S'jawbone'
p3085
sI3084
S'mathcore'
p3086
sI3085
S'deathcore'
p3087
sI3086
S'sarangi'
p3088
sI3087
S'pantalon'
p3089
sI3088
S'rumba flamenca'
p3090
sI3089
S'rapper sword'
p3091
sI3090
S'sword dance'
p3092
sI3091
S'catch wrestling'
p3093
sI3092
S'country blues'
p3094
sI3093
S"punk 'n' roll"
p3095
sI3094
S'canso'
p3096
sI3095
S'plasma physics'
p3097
sI3096
S'technical sciences'
p3098
sI3097
S'triple jump'
p3099
sI3098
S'speed metal'
p3100
sI3099
S'still photographer'
p3101
sI3100
S'persian literature'
p3102
sI3101
S'digital electronics'
p3103
sI3102
S'suomisaundi'
p3104
sI3103
S'dobro'
p3105
sI3104
S'classic trance'
p3106
sI3105
S'trap shooting'
p3107
sI3106
S'digital piano'
p3108
sI3107
S'economic simulation'
p3109
sI3108
S'rock and roll'
p3110
sI3109
S'olfaction'
p3111
sI3110
S'ice cricket'
p3112
sI3111
S'scientific visualization'
p3113
sI3112
S'physician assistant'
p3114
sI3113
S'banjolin'
p3115
sI3114
S'talking drum'
p3116
sI3115
S'korg ms-2000'
p3117
sI3116
S'russ'
p3118
sI3117
S'information retrieval'
p3119
sI3118
S'keyboard instruments'
p3120
sI3119
S'hematology'
p3121
sI3120
S'taido'
p3122
sI3121
S'technology management'
p3123
sI3122
S'praise song'
p3124
sI3123
S'mellotron'
p3125
sI3124
S'arp 2600'
p3126
sI3125
S'formal science'
p3127
sI3126
S'extreme music'
p3128
sI3127
S'noise pop'
p3129
sI3128
S'atonal music'
p3130
sI3129
S'cumbus'
p3131
sI3130
S'ubiquitous computing'
p3132
sI3131
S'physical cosmology'
p3133
sI3132
S'medieval latin'
p3134
sI3133
S'comedy rock'
p3135
sI3134
S'biochemical engineering'
p3136
sI3135
S'acid house'
p3137
sI3136
S'racketlon'
p3138
sI3137
S'nordic combined'
p3139
sI3138
S'medieval music'
p3140
sI3139
S'complex analysis'
p3141
sI3140
S'battojutsu'
p3142
sI3141
S'iaijutsu'
p3143
sI3142
S'vocal jazz'
p3144
sI3143
S'computational statistics'
p3145
sI3144
S'rainstick'
p3146
sI3145
S'oriental languages'
p3147
sI3146
S'anarcho-punk'
p3148
sI3147
S'organ transplant'
p3149
sI3148
S'tenor tuba'
p3150
sI3149
S'mountain biking, downhill'
p3151
sI3150
S'tenor drum'
p3152
sI3151
S'downhill cycling'
p3153
sI3152
S'vocal harmony'
p3154
sI3153
S'child psychology'
p3155
sI3154
S'bulgarian music'
p3156
sI3155
S'dixieland'
p3157
sI3156
S'fly tying'
p3158
sI3157
S'folkcore'
p3159
sI3158
S'business admin.'
p3160
sI3159
S'dark cabaret'
p3161
sI3160
S'personal computer'
p3162
sI3161
S'kajukenbo'
p3163
sI3162
S'financial management'
p3164
sI3163
S'health physics'
p3165
sI3164
S'punk jazz'
p3166
sI3165
S'xare'
p3167
sI3166
S'wood block'
p3168
sI3167
S'epigenetics'
p3169
sI3168
S'slide whistle'
p3170
sI3169
S'cooperative game'
p3171
sI3170
S'mathmatics'
p3172
sI3171
S'cancer biology'
p3173
sI3172
S'interdisciplinary studies'
p3174
sI3173
S'action shooting'
p3175
sI3174
S'riq'
p3176
sI3175
S'water aerobics'
p3177
sI3176
S'samba funk'
p3178
sI3177
S'crustacean'
p3179
sI3178
S'legal history'
p3180
sI3179
S'stickball'
p3181
sI3180
S'astrolog\xc3\xada'
p3182
sI3181
S'quantitative methods'
p3183
sI3182
S'nai'
p3184
sI3183
S'biological chemistry'
p3185
sI3184
S'ragtime'
p3186
sI3185
S'toy piano'
p3187
sI3186
S'contrabass guitar'
p3188
sI3187
S'new flamenco'
p3189
sI3188
S'food industry'
p3190
sI3189
S'chicken scratch'
p3191
sI3190
S'radio documentary'
p3192
sI3191
S'stride piano'
p3193
sI3192
S'port engineering'
p3194
sI3193
S'yamaha mo'
p3195
sI3194
S'knowledge discovery'
p3196
sI3195
S'hobby farming'
p3197
sI3196
S'temple dance'
p3198
sI3197
S'agribusiness'
p3199
sI3198
S'rumi maki'
p3200
sI3199
S'intercrosse'
p3201
sI3200
S'kakaki'
p3202
sI3201
S'spoof'
p3203
sI3202
S'nuclear engineering'
p3204
sI3203
S'bobsledding'
p3205
sI3204
S'piatti'
p3206
sI3205
S'stoner metal'
p3207
sI3206
S'engineering sciences'
p3208
sI3207
S'music sequencer'
p3209
sI3208
S'\xd8\xa7\xd9\x84\xd9\x84\xd8\xba\xd8\xa9 \xd8\xa7\xd9\x84\xd8\xb9\xd8\xb1\xd8\xa8\xd9\x8a\xd8\xa9'
p3210
sI3209
S'hardcore techno'
p3211
sI3210
S'neo-medieval'
p3212
sI3211
S'guaracha'
p3213
sI3212
S'castanet'
p3214
sI3213
S'agricultural chemistry'
p3215
sI3214
S'musical composition'
p3216
sI3215
S'zooarchaeology'
p3217
sI3216
S'sci-fi music'
p3218
sI3217
S'freak folk'
p3219
sI3218
S'antisemitism'
p3220
sI3219
S'cyberpunk music'
p3221
sI3220
S'rabab'
p3222
sI3221
S'social planning'
p3223
sI3222
S'medieval studies'
p3224
sI3223
S'bandura'
p3225
sI3224
S'sanjo'
p3226
sI3225
S'punjabi dances'
p3227
sI3226
S'mineral collecting'
p3228
sI3227
S'drone music'
p3229
sI3228
S'mountain bike racing'
p3230
sI3229
S'cultural analytics'
p3231
sI3230
S'kus'
p3232
sI3231
S'electrical science'
p3233
sI3232
S'bendir'
p3234
sI3233
S'ethnohistory'
p3235
sI3234
S'canto nuevo'
p3236
sI3235
S'funk metal'
p3237
sI3236
S'weimar republic'
p3238
sI3237
S'physiological science'
p3239
sI3238
S'supply chain'
p3240
sI3239
S'nintendocore'
p3241
sI3240
S'tricordia'
p3242
sI3241
S'virtual band'
p3243
sI3242
S'biomedical science'
p3244
sI3243
S'jianzi'
p3245
sI3244
S'angampora'
p3246
sI3245
S'yiquan'
p3247
sI3246
S'sports radio'
p3248
sI3247
S'chinese studies'
p3249
sI3248
S'system analysis'
p3250
sI3249
S'pyschedelia'
p3251
sI3250
S'christmas song'
p3252
sI3251
S'big drum'
p3253
sI3252
S'jug'
p3254
sI3253
S'glass harmonica'
p3255
sI3254
S'american handball'
p3256
sI3255
S'relational database'
p3257
sI3256
S'madchester'
p3258
sI3257
S'skate punk'
p3259
sI3258
S'oina'
p3260
sI3259
S'human\xe2\x80\x93computer interaction'
p3261
sI3260
S'dixieland jazz'
p3262
sI3261
S'hip-hop world'
p3263
sI3262
S'hindu music'
p3264
sI3263
S'structural linguistics'
p3265
sI3264
S'educational toys'
p3266
sI3265
S'tribal house'
p3267
sI3266
S'general surgery'
p3268
sI3267
S'lirone'
p3269
sI3268
S'stabule'
p3270
sI3269
S'calliope'
p3271
sI3270
S'sequential art'
p3272
sI3271
S'mystery film'
p3273
sI3272
S'continuum mechanics'
p3274
sI3273
S'classic salsa'
p3275
sI3274
S'ektara'
p3276
sI3275
S'nwobhm'
p3277
sI3276
S'music hall'
p3278
sI3277
S'technical death metal'
p3279
sI3278
S'docudrama'
p3280
sI3279
S'shofar'
p3281
sI3280
S'newgrass'
p3282
sI3281
S'canadian studies'
p3283
sI3282
S'cajun music'
p3284
sI3283
S'biomedical sciences'
p3285
sI3284
S'pump organ'
p3286
sI3285
S'pin shooting'
p3287
sI3286
S'guarania'
p3288
sI3287
S'dream pop'
p3289
sI3288
S'western swing'
p3290
sI3289
S'symbolic anthropology'
p3291
sI3290
S'occupational health'
p3292
sI3291
S'liquid funk'
p3293
sI3292
S'handbells'
p3294
sI3293
S'ambulatory care'
p3295
sI3294
S'free improvisation'
p3296
sI3295
S'conscious hip hop'
p3297
sI3296
S'radioscience'
p3298
sI3297
S'cueca'
p3299
sI3298
S'electronic hip hop'
p3300
sI3299
S'political hip hop'
p3301
sI3300
S'distributed computing'
p3302
sI3301
S'grid computing'
p3303
sI3302
S'urban education'
p3304
sI3303
S'limnology'
p3305
sI3304
S'reproductive biology'
p3306
sI3305
S'resource economics'
p3307
sI3306
S'alternative country'
p3308
sI3307
S'english concertina'
p3309
sI3308
S'celtic punk'
p3310
sI3309
S'gandingan'
p3311
sI3310
S'adani'
p3312
sI3311
S'kundi'
p3313
sI3312
S'torball'
p3314
sI3313
S'm\xc3\xbasica negra'
p3315
sI3314
S'corporate finance'
p3316
sI3315
S'basic medicine'
p3317
sI3316
S'farfisa'
p3318
sI3317
S'tumba'
p3319
sI3318
S'chr'
p3320
sI3319
S'birdfeeding'
p3321
sI3320
S'kanjira'
p3322
sI3321
S'molecular physics'
p3323
sI3322
S'korg karma'
p3324
sI3323
S'shinobue'
p3325
sI3324
S'marine engineering'
p3326
sI3325
S'engineering drawing'
p3327
sI3326
S'design management'
p3328
sI3327
S'trash rock'
p3329
sI3328
S'future bass'
p3330
sI3329
S'vocal improvisation'
p3331
sI3330
S'surrealist game'
p3332
sI3331
S'professional boxing'
p3333
sI3332
S'neurosurgery'
p3334
sI3333
S'harmonica blues'
p3335
sI3334
S'shoot wrestling'
p3336
sI3335
S'anarchist gardener'
p3337
sI3336
S'radiophysics'
p3338
sI3337
S'vovinam'
p3339
sI3338
S'linguistic typology'
p3340
sI3339
S'bal-musette'
p3341
sI3340
S'backyard astronomy'
p3342
sI3341
S'rebec'
p3343
sI3342
S'tape music'
p3344
sI3343
S'pankration'
p3345
sI3344
S'british invasion'
p3346
sI3345
S'process music'
p3347
sI3346
S'coal mining'
p3348
sI3347
S'scenic design'
p3349
sI3348
S'algebraic combinatorics'
p3350
sI3349
S'tibetan music'
p3351
sI3350
S'yass'
p3352
sI3351
S'ssireum'
p3353
sI3352
S'acoustic pop'
p3354
sI3353
S'film actress'
p3355
sI3354
S'bata drums'
p3356
sI3355
S'yuman music'
p3357
sI3356
S'jewish studies'
p3358
sI3357
S'celtic rock'
p3359
sI3358
S'preventive medicine'
p3360
sI3359
S'krav'
p3361
sI3360
S'extreme unicycling'
p3362
sI3361
S'atmospheric physics'
p3363
sI3362
S'musicality'
p3364
sI3363
S'flute traversi\xc3\xa8re'
p3365
sI3364
S'ophthalmology'
p3366
sI3365
S'sufi rock'
p3367
sI3366
S'radiobiology'
p3368
sI3367
S'social analytics'
p3369
sI3368
S'medical engineering'
p3370
sI3369
S'dream house'
p3371
sI3370
S'sludge metal'
p3372
sI3371
S'sophiology'
p3373
sI3372
S'handclaps'
p3374
sI3373
S'dark electro'
p3375
sI3374
S'biodiversity conservation'
p3376
sI3375
S'regional mexican'
p3377
sI3376
S'child health'
p3378
sI3377
S'galgo'
p3379
sI3378
S'regal'
p3380
sI3379
S'norteno'
p3381
sI3380
S'orchestral jazz'
p3382
sI3381
S'bass saxophone'
p3383
sI3382
S'nazism'
p3384
sI3383
S'public economics'
p3385
sI3384
S'cpu'
p3386
sI3385
S'model mugging'
p3387
sI3386
S'hellenistic philosophy'
p3388
sI3387
S'automation engineering'
p3389
sI3388
S'remote sensing'
p3390
sI3389
S'kabak kemane'
p3391
sI3390
S'jai alai'
p3392
sI3391
S'english horn'
p3393
sI3392
S'hard bop'
p3394
sI3393
S'film scoring'
p3395
sI3394
S'ethno jazz'
p3396
sI3395
S'testa'
p3397
sI3396
S'aquatics diving'
p3398
sI3397
S'infectious disease'
p3399
sI3398
S'shekere'
p3400
sI3399
S'nazi germany'
p3401
sI3400
S'social institutions'
p3402
sI3401
S'southern rap'
p3403
sI3402
S'turkology'
p3404
sI3403
S'guatemalan rock'
p3405
sI3404
S'musique concr\xc3\xa8te'
p3406
sI3405
S'neuropsychiatry'
p3407
sI3406
S'billiard sports'
p3408
sI3407
S'kecer'
p3409
sI3408
S'wife carrying'
p3410
sI3409
S'historical musicology'
p3411
sI3410
S'psychedelic soul'
p3412
sI3411
S'scat singing'
p3413
sI3412
S'bojutsu'
p3414
sI3413
S'gusli'
p3415
sI3414
S'psaltery'
p3416
sI3415
S'steel-string guitar'
p3417
sI3416
S'deep soul'
p3418
sI3417
S'urban folk'
p3419
sI3418
S'power electronics'
p3420
sI3419
S'danz\xc3\xb3n'
p3421
sI3420
S'peteca'
p3422
sI3421
S'legal studies'
p3423
sI3422
S'irish harp'
p3424
sI3423
S'uplifting trance'
p3425
sI3424
S'hindustani music'
p3426
sI3425
S'acid trance'
p3427
sI3426
S'progressive psytrance'
p3428
sI3427
S'earthquake engineering'
p3429
sI3428
S'wallyball'
p3430
sI3429
S'teaching method'
p3431
sI3430
S'chapman stick'
p3432
sI3431
S'enshin karate'
p3433
sI3432
S'guiro'
p3434
sI3433
S'kabaddi'
p3435
sI3434
S'emeiquan'
p3436
sI3435
S'contemporary blues'
p3437
sI3436
S'baryton'
p3438
sI3437
S'legong'
p3439
sI3438
S'jkd'
p3440
sI3439
S'stomp box'
p3441
sI3440
S'kali sikaran'
p3442
sI3441
S'housing development'
p3443
sI3442
S'mineralogy'
p3444
sI3443
S'institutional economics'
p3445
sI3444
S'real aikido'
p3446
sI3445
S'baritone saxophone'
p3447
sI3446
S'analytical chemistry'
p3448
sI3447
S'vehicle dynamics'
p3449
sI3448
S'traverso flute'
p3450
sI3449
S'basic sciences'
p3451
sI3450
S'technical communication'
p3452
sI3451
S'digital rock'
p3453
sI3452
S'automotive technology'
p3454
sI3453
S'west indies'
p3455
sI3454
S'western painting'
p3456
sI3455
S'playground game'
p3457
sI3456
S'acoustical engineering'
p3458
sI3457
S'soapbox'
p3459
sI3458
S'hammer throw'
p3460
sI3459
S'shot put'
p3461
sI3460
S'philadelphia soul'
p3462
sI3461
S'avant-garde jazz'
p3463
sI3462
S'cellular biology'
p3464
sI3463
S'geotechnical engineering'
p3465
sI3464
S'rattlesnake'
p3466
sI3465
S'applied mechanics'
p3467
sI3466
S'rheumatology'
p3468
sI3467
S'guitar mashing'
p3469
sI3468
S'financial services'
p3470
sI3469
S'forensic anthropology'
p3471
sI3470
S'proteomics'
p3472
sI3471
S'symphonic techno'
p3473
sI3472
S'college baseball'
p3474
sI3473
S'hypertext'
p3475
sI3474
S'policy studies'
p3476
sI3475
S'border morris'
p3477
sI3476
S'carillon'
p3478
sI3477
S'chalga'
p3479
sI3478
S'classical period'
p3480
sI3479
S'radio comedy'
p3481
sI3480
S'embaire'
p3482
sI3481
S'concept album'
p3483
sI3482
S'fullon'
p3484
sI3483
S'counseling psychology'
p3485
sI3484
S'postmodern literature'
p3486
sI3485
S'flight dynamics'
p3487
sI3486
S'ndi'
p3488
sI3487
S'logrolling'
p3489
sI3488
S'ecophysiology'
p3490
sI3489
S'europop'
p3491
sI3490
S'radio special'
p3492
sI3491
S'chicago house'
p3493
sI3492
S'tuned percussion'
p3494
sI3493
S'merengue music'
p3495
sI3494
S'steeldrum'
p3496
sI3495
S'deep funk'
p3497
sI3496
S'new blues'
p3498
sI3497
S'baroque guitar'
p3499
sI3498
S'pep band'
p3500
sI3499
S'information engineering'
p3501
sI3500
S'torban'
p3502
sI3501
S'basque dance'
p3503
sI3502
S'skiffle'
p3504
sI3503
S'cakewalk'
p3505
sI3504
S'parlor music'
p3506
sI3505
S'portfolio management'
p3507
sI3506
S'space western'
p3508
sI3507
S'sanskrit language'
p3509
sI3508
S'abstract algebra'
p3510
sI3509
S'kite culture'
p3511
sI3510
S"women's basketball"
p3512
sI3511
S'developmental genetics'
p3513
sI3512
S'penicillin'
p3514
sI3513
S'black ambient'
p3515
sI3514
S'lituus'
p3516
sI3515
S'nederlandse taal'
p3517
sI3516
S'box lacrosse'
p3518
sI3517
S'russian studies'
p3519
sI3518
S'amateur boxing'
p3520
sI3519
S'systems management'
p3521
sI3520
S'biostatistics'
p3522
sI3521
S'khol'
p3523
sI3522
S'pocket trumpet'
p3524
sI3523
S'visual analytics'
p3525
sI3524
S'dutar'
p3526
sI3525
S'electronic opera'
p3527
sI3526
S'deathrock'
p3528
sI3527
S'yabusame'
p3529
sI3528
S'main vocals'
p3530
sI3529
S'agricultural engineering'
p3531
sI3530
S'work song'
p3532
sI3531
S'romanian rock'
p3533
sI3532
S'dahu'
p3534
sI3533
S'economics, german'
p3535
sI3534
S'plainsong'
p3536
sI3535
S'norwegian rock'
p3537
sI3536
S'hip-hop klezmer'
p3538
sI3537
S'naval architecture'
p3539
sI3538
S'gibson sg'
p3540
sI3539
S'male actor'
p3541
sI3540
S'operations management'
p3542
sI3541
S'piano pedagogy'
p3543
sI3542
S'piguaquan'
p3544
sI3543
S'naginata'
p3545
sI3544
S'dark metal'
p3546
sI3545
S'gothic funk'
p3547
sI3546
S'omnichord'
p3548
sI3547
S'coldwave'
p3549
sI3548
S'minimal wave'
p3550
sI3549
S'transportation engineering'
p3551
sI3550
S'steelpan'
p3552
sI3551
S'developmental biology'
p3553
sI3552
S'stair baseball'
p3554
sI3553
S'russian guitar'
p3555
sI3554
S'jump blues'
p3556
sI3555
S'psycho-oncology'
p3557
sI3556
S'timpani'
p3558
sI3557
S'mummers play'
p3559
sI3558
S'atmospheric sciences'
p3560
sI3559
S'dance anthem'
p3561
sI3560
S'vale tudo'
p3562
sI3561
S'shock rock'
p3563
sI3562
S'incidental music'
p3564
sI3563
S'pickleball'
p3565
sI3564
S'developmental linguistics'
p3566
sI3565
S'pub rock'
p3567
sI3566
S'hoedown'
p3568
sI3567
S'warwick'
p3569
sI3568
S'maritime history'
p3570
sI3569
S'neuroimaging'
p3571
sI3570
S'positive organ'
p3572
sI3571
S'hydraulis'
p3573
sI3572
S'population genetics'
p3574
sI3573
S'kemenche'
p3575
sI3574
S'flood geology'
p3576
sI3575
S'volkssport'
p3577
sI3576
S'colloid chemistry'
p3578
sI3577
S'mathematical analysis'
p3579
sI3578
S'dsp'
p3580
sI3579
S'american primitivism'
p3581
sI3580
S'theoretical chemistry'
p3582
sI3581
S'urban jazz'
p3583
sI3582
S'non-associative algebra'
p3584
sI3583
S'daytime drama'
p3585
sI3584
S'concert march'
p3586
sI3585
S'discus throw'
p3587
sI3586
S'petroleum engineering'
p3588
sI3587
S'\xd7\xa2\xd7\x91\xd7\xa8\xd7\x99\xd7\xaa'
p3589
sI3588
S'norwegian language'
p3590
sI3589
S'ixd'
p3591
sI3590
S'formal logic'
p3592
sI3591
S'raggaeton'
p3593
sI3592
S'haptics'
p3594
sI3593
S'podiatry'
p3595
sI3594
S'photochemistry'
p3596
sI3595
S'woodwind instrument'
p3597
sI3596
S'information graphics'
p3598
sI3597
S'plant morphology'
p3599
sI3598
S'campanology'
p3600
sI3599
S'box kite'
p3601
sI3600
S'setor'
p3602
sI3601
S'systems integration'
p3603
sI3602
S'koras'
p3604
sI3603
S'psychophysiology'
p3605
sI3604
S'kobza'
p3606
sI3605
S'joropo'
p3607
sI3606
S'pop standards'
p3608
sI3607
S'theoretical ecology'
p3609
sI3608
S'country gospel'
p3610
sI3609
S'deathgrind'
p3611
sI3610
S'ceng'
p3612
sI3611
S'chamam\xc3\xa9'
p3613
sI3612
S'french kickboxing'
p3614
sI3613
S'drumstep'
p3615
sI3614
S'foreign service'
p3616
sI3615
S'psychometrics'
p3617
sI3616
S'combinatorial mathematics'
p3618
sI3617
S'orthopaedics'
p3619
sI3618
S'youth crew'
p3620
sI3619
S'dark industrial'
p3621
sI3620
S'maroon music'
p3622
sI3621
S'footbag net'
p3623
sI3622
S'mathematical game'
p3624
sI3623
S'zouglou'
p3625
sI3624
S'highlife'
p3626
sI3625
S'russian opera'
p3627
sI3626
S'surf punk'
p3628
sI3627
S'melodic hardcore'
p3629
sI3628
S'kompa'
p3630
sI3629
S'doll collecting'
p3631
sI3630
S'romance studies'
p3632
sI3631
S'histology'
p3633
sI3632
S'swingball'
p3634
sI3633
S'upic'
p3635
sI3634
S'key instruments'
p3636
sI3635
S'pradal serey'
p3637
sI3636
S'power pop'
p3638
sI3637
S'african electronica'
p3639
sI3638
S'br\xc3\xa4nnboll'
p3640
sI3639
S'tenor recorder'
p3641
sI3640
S'shorinjikempo'
p3642
sI3641
S'hipstep'
p3643
sI3642
S'pallone'
p3644
sI3643
S'bandola'
p3645
sI3644
S'charanga'
p3646
sI3645
S'habanera'
p3647
sI3646
S'musica negra'
p3648
sI3647
S'leslie guitar'
p3649
sI3648
S'speedcore'
p3650
sI3649
S'drum and bass'
p3651
sI3650
S'bando'
p3652
sI3651
S'abstract hip hop'
p3653
sI3652
S'chronobiology'
p3654
sI3653
S'futuribles'
p3655
sI3654
S'orthopedic surgery'
p3656
sI3655
S'chemical neurobiology'
p3657
sI3656
S'guajira'
p3658
sI3657
S'oceanology'
p3659
sI3658
S'musica criolla'
p3660
sI3659
S'criolla'
p3661
sI3660
S'kutiyapi'
p3662
sI3661
S'hegelung'
p3663
sI3662
S'wireless network'
p3664
sI3663
S'biometrics'
p3665
sI3664
S'power violence'
p3666
sI3665
S'overclocking'
p3667
sI3666
S'commercial law'
p3668
sI3667
S'administrative science'
p3669
sI3668
S'ra\xc3\xaf'
p3670
sI3669
S'triple swing'
p3671
sI3670
S'crotales'
p3672
sI3671
S'shanson'
p3673
sI3672
S'cuarteto'
p3674
sI3673
S'the jacksons'
p3675
sI3674
S'genwakai'
p3676
sI3675
S'engineering management'
p3677
sI3676
S'pit fighting'
p3678
sI3677
S'post-grunge'
p3679
sI3678
S'rancheras'
p3680
sI3679
S'economic geology'
p3681
sI3680
S'mandola'
p3682
sI3681
S'hungarian folk music'
p3683
sI3682
S'search engines'
p3684
sI3683
S'son montuno'
p3685
sI3684
S'dirty blues'
p3686
sI3685
S'metamorphic'
p3687
sI3686
S'baroque violin'
p3688
sI3687
S'urology'
p3689
sI3688
S'racial inequality'
p3690
sI3689
S'broadcast journalism'
p3691
sI3690
S'electric instrument'
p3692
sI3691
S'cuong nhu'
p3693
sI3692
S'teen pop'
p3694
sI3693
S'web service'
p3695
sI3694
S'astrochemistry'
p3696
sI3695
S'baltimore club'
p3697
sI3696
S'tedesco'
p3698
sI3697
S'mammalogy'
p3699
sI3698
S'intelligent system'
p3700
sI3699
S'domra'
p3701
sI3700
S'cuica'
p3702
sI3701
S'consumer economics'
p3703
sI3702
S'kempul'
p3704
sI3703
S'minneapolis sound'
p3705
sI3704
S'descant recorder'
p3706
sI3705
S'piccolo clarinet'
p3707
sI3706
S'ashiko'
p3708
sI3707
S'street game'
p3709
sI3708
S'stand up comedian'
p3710
sI3709
S'osteopathic medicine'
p3711
sI3710
S'bossaball'
p3712
sI3711
S'chaabi'
p3713
sI3712
S'cycle ball'
p3714
sI3713
S'new age music'
p3715
sI3714
S'control engineering'
p3716
sI3715
S'kliningan'
p3717
sI3716
S'swing hip hop'
p3718
sI3717
S'pungi'
p3719
sI3718
S'nanga'
p3720
sI3719
S'aguinaldo'
p3721
sI3720
S'sonification'
p3722
sI3721
S'theorbo'
p3723
sI3722
S'labor economics'
p3724
sI3723
S'fipple'
p3725
sI3724
S'skicross'
p3726
sI3725
S'diplomatic history'
p3727
sI3726
S'international folk dance'
p3728
sI3727
S'shooto'
p3729
sI3728
S'byzantine music'
p3730
sI3729
S'mechanical sciences'
p3731
sI3730
S'biguine'
p3732
sI3731
S'jal tarang'
p3733
sI3732
S'famo'
p3734
sI3733
S'horror punk'
p3735
sI3734
S'christian rock'
p3736
sI3735
S'gaelic handball'
p3737
sI3736
S'bridge engineering'
p3738
sI3737
S'euro disco'
p3739
sI3738
S'actuarial science'
p3740
sI3739
S'parranda'
p3741
sI3740
S'screamer'
p3742
sI3741
S'morin khuur'
p3743
sI3742
S'emarketing'
p3744
sI3743
S'techno bass'
p3745
sI3744
S'veterary science'
p3746
sI3745
S'bazooka'
p3747
sI3746
S'portuguese guitar'
p3748
sI3747
S'nippon kempo'
p3749
sI3748
S'engineering mathematics'
p3750
sI3749
S'speech recognition'
p3751
sI3750
S'goregrind'
p3752
sI3751
S'canadian rock'
p3753
sI3752
S'varma kalai'
p3754
sI3753
S'critical geography'
p3755
sI3754
S'avionics'
p3756
sI3755
S'danzan ryu'
p3757
sI3756
S'country soul'
p3758
sI3757
S'flower pressing'
p3759
sI3758
S'ang\xc3\xa9lique'
p3760
sI3759
S'firebird'
p3761
sI3760
S'lando'
p3762
sI3761
S'miniature wargaming'
p3763
sI3762
S'petroleum geology'
p3764
sI3763
S'structural geology'
p3765
sI3764
S'indology'
p3766
sI3765
S'electric folk'
p3767
sI3766
S'electricity generation'
p3768
sI3767
S'organizational dynamics'
p3769
sI3768
S'underground hip hop'
p3770
sI3769
S'nonprofit management'
p3771
sI3770
S'zarzuela'
p3772
sI3771
S'oral surgery'
p3773
sI3772
S'bali silat'
p3774
sI3773
S'sarod'
p3775
sI3774
S'participation dance'
p3776
sI3775
S'dholak'
p3777
sI3776
S'semiconductor physics'
p3778
sI3777
S'chutney-soca'
p3779
sI3778
S'web science'
p3780
sI3779
S'chromatic harmonica'
p3781
sI3780
S'booty house'
p3782
sI3781
S'rapcore'
p3783
sI3782
S'shidokan karate'
p3784
sI3783
S'idm music'
p3785
sI3784
S'baritone horn'
p3786
sI3785
S'tambura'
p3787
sI3786
S'los che'
p3788
sI3787
S'alto horn'
p3789
sI3788
S'\xd8\xb9\xd8\xb1\xd8\xa8\xd9\x8a'
p3790
sI3789
S'yiddish language'
p3791
sI3790
S'lithuanian music'
p3792
sI3791
S'butter sculpture'
p3793
sI3792
S'hypersensitivity'
p3794
sI3793
S'cumbia villera'
p3795
sI3794
S'rhythm guitar'
p3796
sI3795
S'ausdruckstanz'
p3797
sI3796
S'special functions'
p3798
sI3797
S'cool jazz'
p3799
sI3798
S'cambo'
p3800
sI3799
S'normative ethics'
p3801
sI3800
S'linear algebra'
p3802
sI3801
S'telecommunications engineering'
p3803
sI3802
S'irish bouzouki'
p3804
sI3803
S'moog synthesizer'
p3805
sI3804
S'uptempo'
p3806
sI3805
S'nonlocality'
p3807
sI3806
S'hot box'
p3808
sI3807
S'latin metal'
p3809
sI3808
S'salon music'
p3810
sI3809
S'gwo ka'
p3811
sI3810
S'crm'
p3812
sI3811
S'belgian rock'
p3813
sI3812
S'hamburger schule'
p3814
sI3813
S'applied computing'
p3815
sI3814
S'musica bandera'
p3816
sI3815
S'economic statistics'
p3817
sI3816
S'qawwali'
p3818
sI3817
S'deltiology'
p3819
sI3818
S'mathematical visualization'
p3820
sI3819
S'alto flute'
p3821
sI3820
S'nu rave'
p3822
sI3821
S'hurban'
p3823
sI3822
S'semiclassical'
p3824
sI3823
S'lapta'
p3825
sI3824
S'punk cabaret'
p3826
sI3825
S'danso'
p3827
sI3826
S'memphis blues'
p3828
sI3827
S'planetary geology'
p3829
sI3828
S'pastoral rock'
p3830
sI3829
S'chuk'
p3831
sI3830
S'cat\xc3\xb3lica'
p3832
sI3831
S'aggressive inline skating'
p3833
sI3832
S'throwball'
p3834
sI3833
S'technical management'
p3835
sI3834
S'cum laude'
p3836
sI3835
S'shintaido'
p3837
sI3836
S'steeplechase'
p3838
sI3837
S'pandean pipes'
p3839
sI3838
S'old salsa'
p3840
sI3839
S'electrochemistry'
p3841
sI3840
S'latin american history'
p3842
sI3841
S'guban'
p3843
sI3842
S'fidonet'
p3844
sI3843
S'supercomputer'
p3845
sI3844
S'personal journals'
p3846
sI3845
S'retail management'
p3847
sI3846
S'biology/immunology'
p3848
sI3847
S'american government'
p3849
sI3848
S'genbukan'
p3850
sI3849
S'free funk'
p3851
sI3850
S'experimental hip hop'
p3852
sI3851
S'conservation-restoration'
p3853
sI3852
S'matkot'
p3854
sI3853
S'biolinguistics'
p3855
sI3854
S'emo violence'
p3856
sI3855
S'molecular nanotechnology'
p3857
sI3856
S'glima'
p3858
sI3857
S'hauntology'
p3859
sI3858
S'rinkball'
p3860
sI3859
S'maxixe'
p3861
sI3860
S'dhol'
p3862
sI3861
S'low whistle'
p3863
sI3862
S'elevator music'
p3864
sI3863
S'northern shaolin'
p3865
sI3864
S'bass pedals'
p3866
sI3865
S'phytopathology'
p3867
sI3866
S'method acting'
p3868
sI3867
S'cantonese opera'
p3869
sI3868
S'true metal'
p3870
sI3869
S'psychedelic pop'
p3871
sI3870
S'alto violin'
p3872
sI3871
S'bubblegum pop'
p3873
sI3872
S'avant garde metal'
p3874
sI3873
S'dhrupad'
p3875
sI3874
S'data warehousing'
p3876
sI3875
S'nagara'
p3877
sI3876
S'japanese hardcore'
p3878
sI3877
S'county collecting'
p3879
sI3878
S'systematic theology'
p3880
sI3879
S'environmental biotechnology'
p3881
sI3880
S'madal'
p3882
sI3881
S'liturgical dance'
p3883
sI3882
S'pattern recognition'
p3884
sI3883
S'union pipes'
p3885
sI3884
S'violon alto'
p3886
sI3885
S'tejano music'
p3887
sI3886
S'gaida'
p3888
sI3887
S'metazoa'
p3889
sI3888
S'optical physics'
p3890
sI3889
S'search marketing'
p3891
sI3890
S'fourth world'
p3892
sI3891
S'petrology'
p3893
sI3892
S'blues ballad'
p3894
sI3893
S'audio blogs'
p3895
sI3894
S'san shou'
p3896
sI3895
S'fortepiano'
p3897
sI3896
S'keyboard synthesizer'
p3898
sI3897
S'web engineering'
p3899
sI3898
S"women's lacrosse"
p3900
sI3899
S'entrepreneurial studies'
p3901
sI3900
S'yacht rock'
p3902
sI3901
S'english flute'
p3903
sI3902
S'katsa'
p3904
sI3903
S'romaic'
p3905
sI3904
S'morna'
p3906
sI3905
S'cumbia rock'
p3907
sI3906
S'boabom'
p3908
sI3907
S'modern hebrew'
p3909
sI3908
S'kheyal'
p3910
sI3909
S'ulla'
p3911
sI3910
S'melodic rock'
p3912
sI3911
S'kud\xc3\xbcm'
p3913
sI3912
S'piano blues'
p3914
sI3913
S'trad jazz'
p3915
sI3914
S'shibuya-kei'
p3916
sI3915
S'fastcore'
p3917
sI3916
S'txistu'
p3918
sI3917
S'dark psytrance'
p3919
sI3918
S'castilian'
p3920
sI3919
S'speedrock'
p3921
sI3920
S'electric mandolin'
p3922
sI3921
S'portative organ'
p3923
sI3922
S'enterprise software'
p3924
sI3923
S'motorcycle speedway'
p3925
sI3924
S'matching game'
p3926
sI3925
S'obscuro'
p3927
sI3926
S'original cast'
p3928
sI3927
S'industrial techno'
p3929
sI3928
S'dansk'
p3930
sI3929
S'process control'
p3931
sI3930
S'urban running'
p3932
sI3931
S'cognitive synonymy'
p3933
sI3932
S'contact combat'
p3934
sI3933
S'organology'
p3935
sI3934
S'contra bass'
p3936
sI3935
S'figure painting'
p3937
sI3936
S'carpet design'
p3938
sI3937
S'brake house'
p3939
sI3938
S'cb radio'
p3940
sI3939
S'cretan lira'
p3941
sI3940
S'labour law'
p3942
sI3941
S'mathematical finance'
p3943
sI3942
S'afox\xc3\xa9'
p3944
sI3943
S'diplomatics'
p3945
sI3944
S'resonator guitar'
p3946
sI3945
S'scurfing'
p3947
sI3946
S'modern soul'
p3948
sI3947
S'anesthesiology'
p3949
sI3948
S'british opera'
p3950
sI3949
S'hotel design'
p3951
sI3950
S'african rap'
p3952
sI3951
S'southern soul'
p3953
sI3952
S'optometry'
p3954
sI3953
S'malunga'
p3955
sI3954
S'machine translation'
p3956
sI3955
S'parallel computing'
p3957
sI3956
S'balaban'
p3958
sI3957
S'button collecting'
p3959
sI3958
S'fistfight'
p3960
sI3959
S'health informatics'
p3961
sI3960
S'heredity'
p3962
sI3961
S"lion's roar"
p3963
sI3962
S'scramble band'
p3964
sI3963
S'microhouse'
p3965
sI3964
S'cfd'
p3966
sI3965
S'qanun'
p3967
sI3966
S'raga rock'
p3968
sI3967
S'pungmul'
p3969
sI3968
S'barbershop music'
p3970
sI3969
S'zampogna'
p3971
sI3970
S'guitar/synthesizer'
p3972
sI3971
S'lau gar'
p3973
sI3972
S'kite festival'
p3974
sI3973
S'gayageum'
p3975
sI3974
S'tonbak'
p3976
sI3975
S'human dimensions'
p3977
sI3976
S'crossover thrash'
p3978
sI3977
S'swiss rock'
p3979
sI3978
S'darkstep'
p3980
sI3979
S'alesis ion'
p3981
sI3980
S'plant biochemistry'
p3982
sI3981
S'tack piano'
p3983
sI3982
S'\xc5\x93nology'
p3984
sI3983
S'mainstream jazz'
p3985
sI3984
S'alternative hip hop'
p3986
sI3985
S'kobud\xc5\x8d'
p3987
sI3986
S'traditional chinese medicine'
p3988
sI3987
S'harness racing'
p3989
sI3988
S'soft computing'
p3990
sI3989
S'yangqin'
p3991
sI3990
S'pinpeat'
p3992
sI3991
S'ski mountaineer'
p3993
sI3992
S'applied statistics'
p3994
sI3993
S'hourglass drum'
p3995
sI3994
S'heavy metal music'
p3996
sI3995
S'rock polishing'
p3997
sI3996
S'bartitsu'
p3998
sI3997
S'fighter kite'
p3999
sI3998
S'ccna'
p4000
sI3999
S'power noise'
p4001
sI4000
S'eisa'
p4002
sI4001
S'chamberlin'
p4003
sI4002
S'dramyin'
p4004
sI4003
S'miami bass'
p4005
sI4004
S'afro pop'
p4006
sI4005
S'anglo-saxon literature'
p4007
sI4006
S'tinku'
p4008
sI4007
S'industrial economics'
p4009
sI4008
S'chinese society'
p4010
sI4009
S'guan'
p4011
sI4010
S'hospital administration'
p4012
sI4011
S'war crime'
p4013
sI4012
S'data mapping'
p4014
sI4013
S'forensic chemistry'
p4015
sI4014
S'pharmacogenomics'
p4016
sI4015
S'linked data'
p4017
sI4016
S'industrial hip-hop'
p4018
sI4017
S'element collecting'
p4019
sI4018
S'scoutball'
p4020
sI4019
S'orchestrion'
p4021
sI4020
S'salsa gorda'
p4022
sI4021
S'video game music'
p4023
sI4022
S'melodic funk'
p4024
sI4023
S'warr guitar'
p4025
sI4024
S'cat piano'
p4026
sI4025
S'goombay'
p4027
sI4026
S'ambient house'
p4028
sI4027
S'natural trumpet'
p4029
sI4028
S'astrophilately'
p4030
sI4029
S'begena'
p4031
sI4030
S'optoelectronics'
p4032
sI4031
S'apala'
p4033
sI4032
S'software testing'
p4034
sI4033
S'cricket spitting'
p4035
sI4034
S'chinese law'
p4036
sI4035
S'sanxian'
p4037
sI4036
S'ruan'
p4038
sI4037
S'liuqin'
p4039
sI4038
S'shinkendo'
p4040
sI4039
S"pumpin' house"
p4041
sI4040
S'urban acupuncture'
p4042
sI4041
S'field lacrosse'
p4043
sI4042
S'sephardic music'
p4044
sI4043
S'zhongruan'
p4045
sI4044
S'computational geometry'
p4046
sI4045
S'islamic music'
p4047
sI4046
S'mandocello'
p4048
sI4047
S'yamaha motif'
p4049
sI4048
S'system integration'
p4050
sI4049
S'dhak'
p4051
sI4050
S'baroque trumpet'
p4052
sI4051
S'v50'
p4053
sI4052
S'enumerative combinatorics'
p4054
sI4053
S'gayo'
p4055
sI4054
S'japanoise'
p4056
sI4055
S'janggu'
p4057
sI4056
S'igil'
p4058
sI4057
S'mobb music'
p4059
sI4058
S'modern creative'
p4060
sI4059
S'bikutsi'
p4061
sI4060
S'east coast swing'
p4062
sI4061
S'nonpop'
p4063
sI4062
S'snap music'
p4064
sI4063
S'buno'
p4065
sI4064
S'dumog'
p4066
sI4065
S'personnel management'
p4067
s.