(dp1
I0
S'anatomy'
p2
sI1
S'anthropology'
p3
sI2
S'cosmology'
p4
sI3
S'culture'
p5
sI4
S'hiking'
p6
sI5
S'learning'
p7
sI6
S'philosophy'
p8
sI7
S'physiology'
p9
sI8
S'sociology'
p10
sI9
S'camping'
p11
sI10
S'city'
p12
sI11
S'fishing'
p13
sI12
S'poetry'
p14
sI13
S'climbing'
p15
sI14
S'cooking'
p16
sI15
S'dancing'
p17
sI16
S'diving'
p18
sI17
S'instrumentation'
p19
sI18
S'kayaking'
p20
sI19
S'line'
p21
sI20
S'style'
p22
sI21
S'gardening'
p23
sI22
S'mountain biking'
p24
sI23
S'psychology'
p25
sI24
S'skiing'
p26
sI25
S'traveling'
p27
sI26
S'family'
p28
sI27
S'food'
p29
sI28
S'music'
p30
sI29
S'park'
p31
sI30
S'theatre'
p32
sI31
S'urbanism'
p33
sI32
S'yoga'
p34
sI33
S'bungee jumping'
p35
sI34
S'creativity'
p36
sI35
S'outdoor'
p37
sI36
S'sky diving'
p38
sI37
S'sports'
p39
sI38
S'languages'
p40
sI39
S'nature'
p41
sI40
S'painting'
p42
sI41
S'photography'
p43
sI42
S'deportation'
p44
sI43
S'electronics'
p45
sI44
S'fusion'
p46
sI45
S'literature'
p47
sI46
S'science'
p48
sI47
S'synthesizer'
p49
sI48
S'theory'
p50
sI49
S'alternative'
p51
sI50
S'baseball'
p52
sI51
S'bowling'
p53
sI52
S'indie'
p54
sI53
S'softball'
p55
sI54
S'straight edge'
p56
sI55
S'books'
p57
sI56
S'drink'
p58
sI57
S'english'
p59
sI58
S'movies'
p60
sI59
S'running'
p61
sI60
S'walking'
p62
sI61
S'ultimate frisbee'
p63
sI62
S'animals'
p64
sI63
S'places'
p65
sI64
S'public radio'
p66
sI65
S'scuba diving'
p67
sI66
S'       bells'
p68
sI67
S'bones'
p69
sI68
S'danish'
p70
sI69
S'heuristic'
p71
sI70
S'mina'
p72
sI71
S'skydiving'
p73
sI72
S'art'
p74
sI73
S'politics'
p75
sI74
S'basketball'
p76
sI75
S'bicycling'
p77
sI76
S'riding'
p78
sI77
S'travel'
p79
sI78
S'fashion'
p80
sI79
S'german'
p81
sI80
S'history'
p82
sI81
S'snowboarding'
p83
sI82
S'environment'
p84
sI83
S'italian'
p85
sI84
S'spanish'
p86
sI85
S'surfing'
p87
sI86
S'meditation'
p88
sI87
S'morning'
p89
sI88
S'wine'
p90
sI89
S'writing'
p91
sI90
S'collecting'
p92
sI91
S'mystery'
p93
sI92
S'partying'
p94
sI93
S'biking'
p95
sI94
S'farming'
p96
sI95
S'cycling'
p97
sI96
S'golf'
p98
sI97
S'sailing'
p99
sI98
S'windsurfing'
p100
sI99
S'animal'
p101
sI100
S'hobby'
p102
sI101
S'japanese'
p103
sI102
S'canoeing'
p104
sI103
S'backpacking'
p105
sI104
S'siter'
p106
sI105
S'catch'
p107
sI106
S'evolution'
p108
sI107
S'rara'
p109
sI108
S'hang'
p110
sI109
S'athletics'
p111
sI110
S'entertainment'
p112
sI111
S'film production'
p113
sI112
S'football'
p114
sI113
S'hacker'
p115
sI114
S'hacking'
p116
sI115
S'netball'
p117
sI116
S'savate'
p118
sI117
S'soccer'
p119
sI118
S'sport'
p120
sI119
S'triathlon'
p121
sI120
S'whistle'
p122
sI121
S'ethics'
p123
sI122
S'political philosophy'
p124
sI123
S'tv'
p125
sI124
S'water sport'
p126
sI125
S'breaking'
p127
sI126
S'dance'
p128
sI127
S'relationships'
p129
sI128
S'design'
p130
sI129
S'visualization'
p131
sI130
S'coin'
p132
sI131
S'health'
p133
sI132
S'metaphysics'
p134
sI133
S'graphic artist'
p135
sI134
S'crossfit'
p136
sI135
S'glass'
p137
sI136
S'language'
p138
sI137
S'movie'
p139
sI138
S'training'
p140
sI139
S'architecture'
p141
sI140
S'boxing'
p142
sI141
S'fitness'
p143
sI142
S'funk'
p144
sI143
S'human rights'
p145
sI144
S'jazz rap'
p146
sI145
S'martial arts'
p147
sI146
S'percussion'
p148
sI147
S'sexuality'
p149
sI148
S'soul'
p150
sI149
S'tattoo'
p151
sI150
S'environmentalism'
p152
sI151
S'professional'
p153
sI152
S'theatre music'
p154
sI153
S'crochet'
p155
sI154
S'knitting'
p156
sI155
S'video games'
p157
sI156
S'water skiing'
p158
sI157
S'banda music'
p159
sI158
S'transport'
p160
sI159
S'ent'
p161
sI160
S'guitars'
p162
sI161
S'manga'
p163
sI162
S'amateur'
p164
sI163
S'cinema'
p165
sI164
S'drawing'
p166
sI165
S'video'
p167
sI166
S'badminton'
p168
sI167
S'tennis'
p169
sI168
S'arts'
p170
sI169
S'theater'
p171
sI170
S'adventure'
p172
sI171
S'buddhism'
p173
sI172
S'filmi'
p174
sI173
S'french'
p175
sI174
S'guitar'
p176
sI175
S'international'
p177
sI176
S'salsa music'
p178
sI177
S'social anthropology'
p179
sI178
S'aviation'
p180
sI179
S'economics'
p181
sI180
S'emergence'
p182
sI181
S'mountaineering'
p183
sI182
S'racing'
p184
sI183
S'folk'
p185
sI184
S'medicine'
p186
sI185
S'wine making'
p187
sI186
S'art music'
p188
sI187
S'kiteboarding'
p189
sI188
S'parachuting'
p190
sI189
S'djembe'
p191
sI190
S'film'
p192
sI191
S'blues music'
p193
sI192
S'numismatics'
p194
sI193
S'celebrities'
p195
sI194
S'computer'
p196
sI195
S'coco'
p197
sI196
S'rafting'
p198
sI197
S'salsa'
p199
sI198
S'tuba'
p200
sI199
S'silat'
p201
sI200
S'bell'
p202
sI201
S'boating'
p203
sI202
S'drinking'
p204
sI203
S'emotivism'
p205
sI204
S'historical'
p206
sI205
S'sciences'
p207
sI206
S'sewing'
p208
sI207
S'spiritual'
p209
sI208
S'tourism'
p210
sI209
S'trust'
p211
sI210
S'urban exploration'
p212
sI211
S'card game'
p213
sI212
S'ids'
p214
sI213
S'drums'
p215
sI214
S'kitesurfing'
p216
sI215
S'programming'
p217
sI216
S'bass guitar'
p218
sI217
S'classical guitar'
p219
sI218
S'classics'
p220
sI219
S'drum'
p221
sI220
S'electric guitar'
p222
sI221
S'other sports'
p223
sI222
S'recreation'
p224
sI223
S'spinning'
p225
sI224
S'swimming'
p226
sI225
S'volleyball'
p227
sI226
S'animation'
p228
sI227
S'psychedelic rock'
p229
sI228
S'punk rock'
p230
sI229
S'rock music'
p231
sI230
S'science fiction'
p232
sI231
S'flute'
p233
sI232
S'modern art'
p234
sI233
S'phd'
p235
sI234
S'cello'
p236
sI235
S'computer music'
p237
sI236
S'kickboxing'
p238
sI237
S'violin'
p239
sI238
S'giga'
p240
sI239
S'twist'
p241
sI240
S'electricity'
p242
sI241
S'linguistics'
p243
sI242
S'caving'
p244
sI243
S'english language'
p245
sI244
S'gin'
p246
sI245
S'graffiti'
p247
sI246
S'motorcycling'
p248
sI247
S'organizations'
p249
sI248
S'pilates'
p250
sI249
S'smell'
p251
sI250
S'spin'
p252
sI251
S'piano'
p253
sI252
S'table tennis'
p254
sI253
S'intelligence'
p255
sI254
S'storytelling'
p256
sI255
S'comics'
p257
sI256
S'reggae'
p258
sI257
S'camera'
p259
sI258
S'categorization'
p260
sI259
S'computer game'
p261
sI260
S'didgeridoo'
p262
sI261
S'fantasy'
p263
sI262
S'garage'
p264
sI263
S'harmonica'
p265
sI264
S'journalism'
p266
sI265
S'juggling'
p267
sI266
S'origami'
p268
sI267
S'performance'
p269
sI268
S'saxophone'
p270
sI269
S'spitting'
p271
sI270
S'swing'
p272
sI271
S'rudible'
p273
sI272
S'variety'
p274
sI273
S'portuguese'
p275
sI274
S'skateboarding'
p276
sI275
S'wakeboarding'
p277
sI276
S'lounge'
p278
sI277
S'wine tasting'
p279
sI278
S'archeology'
p280
sI279
S'folk punk'
p281
sI280
S'rock'
p282
sI281
S'ska'
p283
sI282
S'asian music'
p284
sI283
S'movie art'
p285
sI284
S'roller skating'
p286
sI285
S'music history'
p287
sI286
S'historia'
p288
sI287
S'geography'
p289
sI288
S'ambient'
p290
sI289
S'luge'
p291
sI290
S'mis'
p292
sI291
S'other languages'
p293
sI292
S'parenting'
p294
sI293
S'choir'
p295
sI294
S'education'
p296
sI295
S'physics'
p297
sI296
S'son'
p298
sI297
S'olifant'
p299
sI298
S'rock climbing'
p300
sI299
S'sanj'
p301
sI300
S'women'
p302
sI301
S'varma kalai'
p303
sI302
S'university studies'
p304
sI303
S'graphics'
p305
sI304
S'computer science'
p306
sI305
S'neuroscience'
p307
sI306
S'ski jumping'
p308
sI307
S'serialism'
p309
sI308
S'technology'
p310
sI309
S'radio'
p311
sI310
S'astronomy'
p312
sI311
S'behavioral finance'
p313
sI312
S'finance'
p314
sI313
S'game theory'
p315
sI314
S'graphic design'
p316
sI315
S'investing'
p317
sI316
S'legal philosophy'
p318
sI317
S'water polo'
p319
sI318
S'country'
p320
sI319
S'free-diving'
p321
sI320
S'disc golf'
p322
sI321
S'beauty'
p323
sI322
S'group'
p324
sI323
S'worldwide'
p325
sI324
S'magic'
p326
sI325
S'ice climbing'
p327
sI326
S'hockey'
p328
sI327
S'cultural history'
p329
sI328
S'chill'
p330
sI329
S'gender'
p331
sI330
S'christianity'
p332
sI331
S'composition'
p333
sI332
S'romance'
p334
sI333
S'hard rock'
p335
sI334
S'art history'
p336
sI335
S'justice'
p337
sI336
S'snowshoe'
p338
sI337
S'birding'
p339
sI338
S'multimedia'
p340
sI339
S'hobbies'
p341
sI340
S'fencing'
p342
sI341
S'ice hockey'
p343
sI342
S'shoa'
p344
sI343
S'american football'
p345
sI344
S'college'
p346
sI345
S'high school'
p347
sI346
S'rounders'
p348
sI347
S'rugby'
p349
sI348
S'word'
p350
sI349
S'drama'
p351
sI350
S'metal'
p352
sI351
S'music theatre'
p353
sI352
S'game design'
p354
sI353
S'investment'
p355
sI354
S'mathematics'
p356
sI355
S"80's"
p357
sI356
S'games'
p358
sI357
S'business'
p359
sI358
S'chelys'
p360
sI359
S'actor'
p361
sI360
S'brazillian music'
p362
sI361
S'fado'
p363
sI362
S'samba'
p364
sI363
S'tai chi'
p365
sI364
S'shopping'
p366
sI365
S'paragliding'
p367
sI366
S'futsal'
p368
sI367
S'jungle'
p369
sI368
S'local'
p370
sI369
S'current events'
p371
sI370
S'block'
p372
sI371
S'disco'
p373
sI372
S'ecology'
p374
sI373
S'media'
p375
sI374
S'cricket'
p376
sI375
S'sticke'
p377
sI376
S'bollywood'
p378
sI377
S'premed'
p379
sI378
S'punk'
p380
sI379
S'pepa'
p381
sI380
S'advertising'
p382
sI381
S'ballad'
p383
sI382
S'acoustic guitar'
p384
sI383
S'player piano'
p385
sI384
S'working out'
p386
sI385
S'philosophy/psychology'
p387
sI386
S'political economics'
p388
sI387
S'arabic'
p389
sI388
S'ir'
p390
sI389
S'electro'
p391
sI390
S'fellowship'
p392
sI391
S'hip hop'
p393
sI392
S'horror'
p394
sI393
S'pop'
p395
sI394
S'sculpture'
p396
sI395
S'ballroom dance'
p397
sI396
S'pool'
p398
sI397
S'roots'
p399
sI398
S'society'
p400
sI399
S'structure'
p401
sI400
S'hula'
p402
sI401
S'trampoline'
p403
sI402
S'spirituality'
p404
sI403
S'aerobics'
p405
sI404
S'contemporary dance'
p406
sI405
S'rowing'
p407
sI406
S'surf music'
p408
sI407
S'gambling'
p409
sI408
S'buddhist'
p410
sI409
S'evolutionary biology'
p411
sI410
S'biology'
p412
sI411
S'futurism'
p413
sI412
S'visual arts'
p414
sI413
S'spearfishing'
p415
sI414
S'mod'
p416
sI415
S'electronic music'
p417
sI416
S'creative writing'
p418
sI417
S'argul'
p419
sI418
S'art rock'
p420
sI419
S'experimental'
p421
sI420
S'film theory'
p422
sI421
S'world music'
p423
sI422
S'andean music'
p424
sI423
S'dance music'
p425
sI424
S'biography'
p426
sI425
S'chess'
p427
sI426
S'orpharion'
p428
sI427
S'squash'
p429
sI428
S'comedy'
p430
sI429
S'humour'
p431
sI430
S'tom'
p432
sI431
S'maths'
p433
sI432
S'commerce'
p434
sI433
S'american studies'
p435
sI434
S'se'
p436
sI435
S'ornithology'
p437
sI436
S'turkish'
p438
sI437
S'auto racing'
p439
sI438
S'diy'
p440
sI439
S'communication'
p441
sI440
S'alternative health'
p442
sI441
S'shamisen'
p443
sI442
S'pc'
p444
sI443
S'bureaucracy'
p445
sI444
S'interactivity'
p446
sI445
S'astrophysics'
p447
sI446
S'chemistry'
p448
sI447
S'caj\xc3\xb3n'
p449
sI448
S'computational photography'
p450
sI449
S'darbuka'
p451
sI450
S'flamenco'
p452
sI451
S'cultural geography'
p453
sI452
S'documentaries'
p454
sI453
S'scrapbooking'
p455
sI454
S'blues'
p456
sI455
S'harp'
p457
sI456
S'lyra'
p458
sI457
S'viola'
p459
sI458
S'combinatorics'
p460
sI459
S'birdwatching'
p461
sI460
S'health care'
p462
sI461
S'oldies'
p463
sI462
S'chorus'
p464
sI463
S'norwegian'
p465
sI464
S'comparative religion'
p466
sI465
S'humor'
p467
sI466
S'religion'
p468
sI467
S'spectralism'
p469
sI468
S'lindy hop'
p470
sI469
S'australia'
p471
sI470
S'new country'
p472
sI471
S'astrobiology'
p473
sI472
S'bass'
p474
sI473
S'college football'
p475
sI474
S'science news'
p476
sI475
S'crime'
p477
sI476
S'fives'
p478
sI477
S'tama'
p479
sI478
S'hardcore punk'
p480
sI479
S'asia'
p481
sI480
S'theology'
p482
sI481
S'generative music'
p483
sI482
S'network'
p484
sI483
S'accounting'
p485
sI484
S'beach volleyball'
p486
sI485
S'cancer'
p487
sI486
S'aikido'
p488
sI487
S'thriller'
p489
sI488
S'blues rock'
p490
sI489
S'jazz blues'
p491
sI490
S'hora'
p492
sI491
S'capoeira'
p493
sI492
S'graduation'
p494
sI493
S'programmer'
p495
sI494
S'law'
p496
sI495
S'tech'
p497
sI496
S'vinification'
p498
sI497
S'banking'
p499
sI498
S'cs'
p500
sI499
S'ice skating'
p501
sI500
S'acoustics'
p502
sI501
S'filmmaking'
p503
sI502
S'folk music'
p504
sI503
S'laughter'
p505
sI504
S'unicycling'
p506
sI505
S'opera'
p507
sI506
S'irish music'
p508
sI507
S'mandolin'
p509
sI508
S'remote sensing'
p510
sI509
S'stamp collecting'
p511
sI510
S'agriculture'
p512
sI511
S'biathlon'
p513
sI512
S'tango'
p514
sI513
S'capoeira angola'
p515
sI514
S'eastern philosophy'
p516
sI515
S'international development'
p517
sI516
S'sales'
p518
sI517
S'contrabass'
p519
sI518
S'cumbia'
p520
sI519
S'jazz manouche'
p521
sI520
S'merengue'
p522
sI521
S'ska jazz'
p523
sI522
S'ca'
p524
sI523
S'guidance'
p525
sI524
S'regional'
p526
sI525
S'medieval history'
p527
sI526
S'vielle'
p528
sI527
S'historical linguistics'
p529
sI528
S'ultimate'
p530
sI529
S'fabric'
p531
sI530
S'pottery'
p532
sI531
S'theater arts'
p533
sI532
S'epistemology'
p534
sI533
S'litterature'
p535
sI534
S'revolution'
p536
sI535
S'fine arts'
p537
sI536
S'dumpster diving'
p538
sI537
S'experimental music'
p539
sI538
S'auction'
p540
sI539
S'paddling'
p541
sI540
S'mechanics'
p542
sI541
S'argentine tango'
p543
sI542
S'comic book'
p544
sI543
S'cultural studies'
p545
sI544
S'interior decoration'
p546
sI545
S'satire'
p547
sI546
S'hunting'
p548
sI547
S'cheese'
p549
sI548
S'digital'
p550
sI549
S'kids'
p551
sI550
S'logic'
p552
sI551
S'math'
p553
sI552
S'printing'
p554
sI553
S'atheism'
p555
sI554
S'composting'
p556
sI555
S'davul'
p557
sI556
S'jazz'
p558
sI557
S'social work'
p559
sI558
S'strength training'
p560
sI559
S'weightlifting'
p561
sI560
S'hermeneutics'
p562
sI561
S"50's"
p563
sI562
S'exotica'
p564
sI563
S'ceramics'
p565
sI564
S'ching'
p566
sI565
S'conservation'
p567
sI566
S'bodybuilding'
p568
sI567
S'amateur theatre'
p569
sI568
S'marketing'
p570
sI569
S'communication artist'
p571
sI570
S'film music'
p572
sI571
S'austus'
p573
sI572
S'contesting'
p574
sI573
S'slow food'
p575
sI574
S'ballet'
p576
sI575
S'boarding'
p577
sI576
S'engineering technology'
p578
sI577
S'kiting'
p579
sI578
S'direction'
p580
sI579
S'computer networking'
p581
sI580
S'dressage'
p582
sI581
S'indoor climbing'
p583
sI582
S'media arts'
p584
sI583
S'new media'
p585
sI584
S'economic development'
p586
sI585
S'eclectic'
p587
sI586
S'geocaching'
p588
sI587
S'transportation'
p589
sI588
S'racquet'
p590
sI589
S'aussie rules'
p591
sI590
S'hand cricket'
p592
sI591
S'gymnastics'
p593
sI592
S'astrology'
p594
sI593
S'geosciences'
p595
sI594
S'fine art'
p596
sI595
S'gender studies'
p597
sI596
S'historical sociology'
p598
sI597
S'board games'
p599
sI598
S'curling'
p600
sI599
S'acting'
p601
sI600
S'double bass'
p602
sI601
S'jazz band'
p603
sI602
S'homebrewing'
p604
sI603
S'horror movie'
p605
sI604
S'bagpipes'
p606
sI605
S'engineering'
p607
sI606
S"60's"
p608
sI607
S"70's"
p609
sI608
S'anime'
p610
sI609
S'billiards'
p611
sI610
S'ping pong'
p612
sI611
S'country music'
p613
sI612
S'judo'
p614
sI613
S'animated'
p615
sI614
S'ethnology'
p616
sI615
S'counseling'
p617
sI616
S'americana'
p618
sI617
S'continental philosophy'
p619
sI618
S'critical theory'
p620
sI619
S'folk rock'
p621
sI620
S'middle east'
p622
sI621
S'urban planning'
p623
sI622
S'neurology'
p624
sI623
S'other music'
p625
sI624
S'kite'
p626
sI625
S'crunk'
p627
sI626
S'poverty'
p628
sI627
S'korean'
p629
sI628
S'documentary film'
p630
sI629
S'newspaper'
p631
sI630
S'agronomy'
p632
sI631
S'bird'
p633
sI632
S'classic'
p634
sI633
S'chanson'
p635
sI634
S'chorale'
p636
sI635
S'stylistics'
p637
sI636
S'verdiales'
p638
sI637
S'fungi'
p639
sI638
S'material'
p640
sI639
S'mycology'
p641
sI640
S'mysticism'
p642
sI641
S'karate'
p643
sI642
S'kendo'
p644
sI643
S'welfare'
p645
sI644
S'upright bass'
p646
sI645
S'everyday life'
p647
sI646
S'western'
p648
sI647
S'kinnor'
p649
sI648
S'britpop'
p650
sI649
S'psychobilly'
p651
sI650
S'rockabilly'
p652
sI651
S'shoegazing'
p653
sI652
S'brass band'
p654
sI653
S'orienteering'
p655
sI654
S'lawn bowls'
p656
sI655
S'computational mathematics'
p657
sI656
S'moral theory'
p658
sI657
S'sf'
p659
sI658
S'bioinformatics'
p660
sI659
S'alternative rock'
p661
sI660
S'heavy metal'
p662
sI661
S'philately'
p663
sI662
S'congas'
p664
sI663
S'snooker'
p665
sI664
S'voice'
p666
sI665
S'west africa'
p667
sI666
S'bellydance'
p668
sI667
S'interior design'
p669
sI668
S'small business'
p670
sI669
S'fly fishing'
p671
sI670
S'web development'
p672
sI671
S'death metal'
p673
sI672
S'reggae rock'
p674
sI673
S'josephus'
p675
sI674
S'semantics'
p676
sI675
S'supernatural'
p677
sI676
S'television'
p678
sI677
S'alchemy'
p679
sI678
S'censorship'
p680
sI679
S'kung fu'
p681
sI680
S'political science'
p682
sI681
S'sampler'
p683
sI682
S'zoology'
p684
sI683
S'trampolining'
p685
sI684
S'latino'
p686
sI685
S'base jumping'
p687
sI686
S'marathon'
p688
sI687
S'racquetball'
p689
sI688
S'stage design'
p690
sI689
S'bingo'
p691
sI690
S'behavior'
p692
sI691
S'terrorism'
p693
sI692
S'danza'
p694
sI693
S'pk'
p695
sI694
S'keyboards'
p696
sI695
S'other instruments'
p697
sI696
S'rattle'
p698
sI697
S'short stories'
p699
sI698
S'political sociology'
p700
sI699
S'control theory'
p701
sI700
S'speleology'
p702
sI701
S'diplomacy'
p703
sI702
S'iaido'
p704
sI703
S'information systems'
p705
sI704
S'ukulele'
p706
sI705
S'geology'
p707
sI706
S'music composition'
p708
sI707
S'sipa'
p709
sI708
S'nudity'
p710
sI709
S'trumpet'
p711
sI710
S'strings'
p712
sI711
S'celtic music'
p713
sI712
S'fiddle'
p714
sI713
S'french boxing'
p715
sI714
S'tabor'
p716
sI715
S'techno'
p717
sI716
S'fashion design'
p718
sI717
S'central america'
p719
sI718
S'great books'
p720
sI719
S'bowls'
p721
sI720
S'footbag'
p722
sI721
S'public relations'
p723
sI722
S'pedagogy'
p724
sI723
S'dub'
p725
sI724
S'indie-electro'
p726
sI725
S'parkour'
p727
sI726
S'tricking'
p728
sI727
S'muay thai'
p729
sI728
S'thai boxing'
p730
sI729
S'classical music'
p731
sI730
S'gospel'
p732
sI731
S'nutrition'
p733
sI732
S'indie rock'
p734
sI733
S'grand piano'
p735
sI734
S'psychedelic'
p736
sI735
S'robotics'
p737
sI736
S'educational psychology'
p738
sI737
S'musical comedy'
p739
sI738
S'psychedelic music'
p740
sI739
S'ethnobotany'
p741
sI740
S'plant biologist'
p742
sI741
S'coasteering'
p743
sI742
S'youth'
p744
sI743
S'national'
p745
sI744
S'automotive'
p746
sI745
S'pop culture'
p747
sI746
S'nu metal'
p748
sI747
S'morris dance'
p749
sI748
S'translation'
p750
sI749
S'minimalist music'
p751
sI750
S'songo music'
p752
sI751
S'easy listening'
p753
sI752
S'batucada'
p754
sI753
S'pagode'
p755
sI754
S'theatre arts'
p756
sI755
S'latin'
p757
sI756
S'russian'
p758
sI757
S'refugee'
p759
sI758
S'bachata'
p760
sI759
S'kiiking'
p761
sI760
S'theatre studies'
p762
sI761
S'naturopathy'
p763
sI762
S'toy collecting'
p764
sI763
S'reggaeton'
p765
sI764
S'sevillanas'
p766
sI765
S'street dance'
p767
sI766
S'taijiquan'
p768
sI767
S'materials science'
p769
sI768
S'kiss'
p770
sI769
S'personal growth'
p771
sI770
S'computability theory'
p772
sI771
S'disco music'
p773
sI772
S'biomedical engineering'
p774
sI773
S'clapper'
p775
sI774
S'darts'
p776
sI775
S'grunge'
p777
sI776
S'rock blues'
p778
sI777
S'pate'
p779
sI778
S'bombarde'
p780
sI779
S'modern music'
p781
sI780
S'noise'
p782
sI781
S'biodiversity conservation'
p783
sI782
S'climatology'
p784
sI783
S'folklore'
p785
sI784
S'california'
p786
sI785
S'strategy game'
p787
sI786
S'instrumental'
p788
sI787
S'mpb'
p789
sI788
S'popular music'
p790
sI789
S'mechanical'
p791
sI790
S'european history'
p792
sI791
S'international relations'
p793
sI792
S'soca music'
p794
sI793
S'punto'
p795
sI794
S'nursing'
p796
sI795
S'hun'
p797
sI796
S'natural horn'
p798
sI797
S'folk dance'
p799
sI798
S'criminology'
p800
sI799
S'field hockey'
p801
sI800
S'accountancy'
p802
sI801
S'gar'
p803
sI802
S'vermont'
p804
sI803
S'software'
p805
sI804
S'spam'
p806
sI805
S'textile'
p807
sI806
S'engineering mathematics'
p808
sI807
S'instructor'
p809
sI808
S'illustration'
p810
sI809
S'freestyle rap'
p811
sI810
S'physiotherapy'
p812
sI811
S'publisher'
p813
sI812
S'charleston'
p814
sI813
S'databases'
p815
sI814
S'avant-garde'
p816
sI815
S'jit'
p817
sI816
S'social dance'
p818
sI817
S'electronica'
p819
sI818
S'idm'
p820
sI819
S'immunology'
p821
sI820
S'microbiology'
p822
sI821
S'parasitology'
p823
sI822
S'trip hop'
p824
sI823
S'natural sciences'
p825
sI824
S'isolationism'
p826
sI825
S'chinese literature'
p827
sI826
S'designer game'
p828
sI827
S'soundtracks'
p829
sI828
S'latin music'
p830
sI829
S'bossa nova'
p831
sI830
S'jazz guitar'
p832
sI831
S'concert dance'
p833
sI832
S'ambient music'
p834
sI833
S'ai'
p835
sI834
S'tropical'
p836
sI835
S'humanities'
p837
sI836
S'life sciences'
p838
sI837
S'poetics'
p839
sI838
S'social sciences'
p840
sI839
S'jam band'
p841
sI840
S'entomology'
p842
sI841
S'contra dance'
p843
sI842
S'news'
p844
sI843
S'organic farming'
p845
sI844
S'drag racing'
p846
sI845
S'bookbinding'
p847
sI846
S'furniture design'
p848
sI847
S'landscape architecture'
p849
sI848
S'printmaking'
p850
sI849
S'urban design'
p851
sI850
S'amateur radio'
p852
sI851
S'language geography'
p853
sI852
S'current affairs'
p854
sI853
S'public health'
p855
sI854
S'amish music'
p856
sI855
S'installation art'
p857
sI856
S'aleatoric music'
p858
sI857
S'framing'
p859
sI858
S'performing arts'
p860
sI859
S'hip hop music'
p861
sI860
S'nordic walking'
p862
sI861
S'acoustic music'
p863
sI862
S'american culture'
p864
sI863
S'christian music'
p865
sI864
S'slavistics'
p866
sI865
S'dentistry'
p867
sI866
S'industrial design'
p868
sI867
S'krav maga'
p869
sI868
S'venu'
p870
sI869
S'classical piano'
p871
sI870
S'horror film'
p872
sI871
S'atheist'
p873
sI872
S'symphonic metal'
p874
sI873
S'naker'
p875
sI874
S'pop rock'
p876
sI875
S'vallenato'
p877
sI876
S'belly dance'
p878
sI877
S'sport studies'
p879
sI878
S'turtle'
p880
sI879
S'tango music'
p881
sI880
S'angling'
p882
sI881
S'fiction'
p883
sI882
S'fantasy literature'
p884
sI883
S'shinty'
p885
sI884
S'management'
p886
sI885
S'civil engineering'
p887
sI886
S'artificial intelligence'
p888
sI887
S'house music'
p889
sI888
S'lounge music'
p890
sI889
S'pop music'
p891
sI890
S'austin'
p892
sI891
S'modern dance'
p893
sI892
S'archery'
p894
sI893
S'photography/film'
p895
sI894
S'russian language'
p896
sI895
S'spanish guitar'
p897
sI896
S'fife'
p898
sI897
S'ethology'
p899
sI898
S'gesture'
p900
sI899
S'beading'
p901
sI900
S'breakbeat'
p902
sI901
S'mey'
p903
sI902
S'residency'
p904
sI903
S'film editing'
p905
sI904
S'floorball'
p906
sI905
S'racquets'
p907
sI906
S'animalia'
p908
sI907
S'respiration'
p909
sI908
S'ski mountaineering'
p910
sI909
S'wrestling'
p911
sI910
S'instrumental guitar'
p912
sI911
S'architectural history'
p913
sI912
S'bouldering'
p914
sI913
S'concert band'
p915
sI914
S'latin jazz'
p916
sI915
S'rant'
p917
sI916
S'american literature'
p918
sI917
S'desert rock'
p919
sI918
S'speedcore'
p920
sI919
S'animal science'
p921
sI920
S'fps'
p922
sI921
S'gypsy punk'
p923
sI922
S'piano accordion'
p924
sI923
S'vocoder'
p925
sI924
S'zydeco'
p926
sI925
S'submarine'
p927
sI926
S'chaquan'
p928
sI927
S'version'
p929
sI928
S'pedology'
p930
sI929
S'psychopharmacology'
p931
sI930
S'trivia'
p932
sI931
S'buddhist music'
p933
sI932
S'espa\xc3\xb1ol'
p934
sI933
S'railroad'
p935
sI934
S'probability theory'
p936
sI935
S'vocal music'
p937
sI936
S'weaving'
p938
sI937
S'toasting'
p939
sI938
S'violoncelle'
p940
sI939
S'international business'
p941
sI940
S'entrepreneurship'
p942
sI941
S'horticulture'
p943
sI942
S'machine learning'
p944
sI943
S'nlp'
p945
sI944
S'ocarina'
p946
sI945
S'real estate'
p947
sI946
S'vietnamese'
p948
sI947
S'banjo'
p949
sI948
S'japanese language'
p950
sI949
S'critical geography'
p951
sI950
S'french language'
p952
sI951
S'italiano'
p953
sI952
S'music industry'
p954
sI953
S'public affairs'
p955
sI954
S'traditional music'
p956
sI955
S'polo'
p957
sI956
S'etching'
p958
sI957
S'geographical'
p959
sI958
S'islam'
p960
sI959
S'special interests'
p961
sI960
S'kite flying'
p962
sI961
S'beekeeping'
p963
sI962
S'botany'
p964
sI963
S'cloth'
p965
sI964
S'cooperative'
p966
sI965
S'creation spirituality'
p967
sI966
S'figure skating'
p968
sI967
S'digital photography'
p969
sI968
S"jew's harp"
p970
sI969
S'accordion'
p971
sI970
S'black metal'
p972
sI971
S'nordic skiing'
p973
sI972
S'sport climbing'
p974
sI973
S'star trek'
p975
sI974
S'secularism'
p976
sI975
S'glass art'
p977
sI976
S'comb'
p978
sI977
S'pilota'
p979
sI978
S'futures studies'
p980
sI979
S'finnish'
p981
sI980
S'political theatre'
p982
sI981
S'documentary'
p983
sI982
S'software development'
p984
sI983
S'social psychology'
p985
sI984
S'hinduism'
p986
sI985
S'singer-songwriter'
p987
sI986
S'italian language'
p988
sI987
S'mba'
p989
sI988
S'generative design'
p990
sI989
S'denistry'
p991
sI990
S'spelunking'
p992
sI991
S'post-industrial'
p993
sI992
S'table football'
p994
sI993
S'latin american music'
p995
sI994
S'paddle'
p996
sI995
S'measure theory'
p997
sI996
S'charango'
p998
sI997
S'drop'
p999
sI998
S'valencia'
p1000
sI999
S'nederlands'
p1001
sI1000
S'autobiography'
p1002
sI1001
S'soul blues'
p1003
sI1002
S"children's"
p1004
sI1003
S'earth sciences'
p1005
sI1004
S'career'
p1006
sI1005
S'cabaret'
p1007
sI1006
S'stand-up comedy'
p1008
sI1007
S'latinistic'
p1009
sI1008
S'pocket billiards'
p1010
sI1009
S'mariachi'
p1011
sI1010
S'business management'
p1012
sI1011
S'jazz dance'
p1013
sI1012
S'dark cabaret'
p1014
sI1013
S'grindcore'
p1015
sI1014
S'frisbee golf'
p1016
sI1015
S'paintball'
p1017
sI1016
S'freestyle frisbee'
p1018
sI1017
S'taekwondo'
p1019
sI1018
S'docu'
p1020
sI1019
S'computer programming'
p1021
sI1020
S'dominoes'
p1022
sI1021
S'caribbean'
p1023
sI1022
S'egyptology'
p1024
sI1023
S'mural'
p1025
sI1024
S'spoken word'
p1026
sI1025
S'mine exploration'
p1027
sI1026
S'christmas'
p1028
sI1027
S'punctualism'
p1029
sI1028
S'funk music'
p1030
sI1029
S'klezmer'
p1031
sI1030
S'earth science'
p1032
sI1031
S'boi'
p1033
sI1032
S'gadgets'
p1034
sI1033
S'virginals'
p1035
sI1034
S'yuca'
p1036
sI1035
S'roller derby'
p1037
sI1036
S'fran\xc3\xa7ais'
p1038
sI1037
S'economic history'
p1039
sI1038
S'macroeconomics'
p1040
sI1039
S'spirits'
p1041
sI1040
S'rumba'
p1042
sI1041
S'timba'
p1043
sI1042
S'tres'
p1044
sI1043
S'world literature'
p1045
sI1044
S'bluegrass'
p1046
sI1045
S'needlework'
p1047
sI1046
S'foosball'
p1048
sI1047
S'beach music'
p1049
sI1048
S'shuffle'
p1050
sI1049
S'home improvement'
p1051
sI1050
S'computer geek'
p1052
sI1051
S'biomathematics'
p1053
sI1052
S'nanotechnology'
p1054
sI1053
S'electro pop'
p1055
sI1054
S'pipe'
p1056
sI1055
S'cultural anthropology'
p1057
sI1056
S'learning sciences'
p1058
sI1057
S'home repair'
p1059
sI1058
S'tapestry'
p1060
sI1059
S'indoor football'
p1061
sI1060
S'new age'
p1062
sI1061
S'sports news'
p1063
sI1062
S'board game'
p1064
sI1063
S'croquet'
p1065
sI1064
S'set theory'
p1066
sI1065
S'theoretical ecology'
p1067
sI1066
S'balada'
p1068
sI1067
S'dubstep'
p1069
sI1068
S'arabic language'
p1070
sI1069
S'forestry'
p1071
sI1070
S'family game'
p1072
sI1071
S'bomba'
p1073
sI1072
S'musical saw'
p1074
sI1073
S'archaeology'
p1075
sI1074
S'greek'
p1076
sI1075
S'space music'
p1077
sI1076
S'community development'
p1078
sI1077
S'british rock'
p1079
sI1078
S'airsoft'
p1080
sI1079
S'alpine skiing'
p1081
sI1080
S'visual art'
p1082
sI1081
S'powerlifting'
p1083
sI1082
S'psychedelic trance'
p1084
sI1083
S'german literature'
p1085
sI1084
S'industrial music'
p1086
sI1085
S'film studies'
p1087
sI1086
S'educational theory'
p1088
sI1087
S'duda'
p1089
sI1088
S'search engines'
p1090
sI1089
S'beer pong'
p1091
sI1090
S'paleontology'
p1092
sI1091
S'ad'
p1093
sI1092
S'food science'
p1094
sI1093
S'photojournalism'
p1095
sI1094
S'disco rock'
p1096
sI1095
S'downtempo'
p1097
sI1096
S'enka'
p1098
sI1097
S'punk funk'
p1099
sI1098
S'radio broadcasting'
p1100
sI1099
S'square dance'
p1101
sI1100
S'varied'
p1102
sI1101
S'trot'
p1103
sI1102
S'music theory'
p1104
sI1103
S'indie music'
p1105
sI1104
S'tap dance'
p1106
sI1105
S'acid jazz'
p1107
sI1106
S'fluxus'
p1108
sI1107
S'cognitive science'
p1109
sI1108
S'doctorate'
p1110
sI1109
S'project management'
p1111
sI1110
S'sexology'
p1112
sI1111
S'applied linguistics'
p1113
sI1112
S'miniaturization'
p1114
sI1113
S'skate rock'
p1115
sI1114
S'taiko'
p1116
sI1115
S'choral music'
p1117
sI1116
S'aesthetics'
p1118
sI1117
S'wing tsun'
p1119
sI1118
S'zouk'
p1120
sI1119
S'oboe'
p1121
sI1120
S'business law'
p1122
sI1121
S'artificial creativity'
p1123
sI1122
S'jewish'
p1124
sI1123
S'clarinet'
p1125
sI1124
S'dutch'
p1126
sI1125
S'dancehall'
p1127
sI1126
S'indian dance'
p1128
sI1127
S'five animals'
p1129
sI1128
S'human relations'
p1130
sI1129
S'hurling'
p1131
sI1130
S'genetics'
p1132
sI1131
S'word game'
p1133
sI1132
S'german language'
p1134
sI1133
S'telecommunications'
p1135
sI1134
S'conducting'
p1136
sI1135
S'music visualization'
p1137
sI1136
S'information technology'
p1138
sI1137
S'game boy music'
p1139
sI1138
S'taxation'
p1140
sI1139
S'sprint'
p1141
sI1140
S'triathalon'
p1142
sI1141
S'michael jackson'
p1143
sI1142
S'directing'
p1144
sI1143
S'electro hop'
p1145
sI1144
S'physical fitness'
p1146
sI1145
S'biotechnology'
p1147
sI1146
S'software engineering'
p1148
sI1147
S'gong'
p1149
sI1148
S'surf rock'
p1150
sI1149
S'variety arts'
p1151
sI1150
S'parlour game'
p1152
sI1151
S'francais'
p1153
sI1152
S'breakdance'
p1154
sI1153
S'casting'
p1155
sI1154
S'biochemistry'
p1156
sI1155
S'biology,chemistry'
p1157
sI1156
S'endocrinology'
p1158
sI1157
S'quantum mechanics'
p1159
sI1158
S'synthetic biology'
p1160
sI1159
S'palestine'
p1161
sI1160
S'world history'
p1162
sI1161
S'experimental psychology'
p1163
sI1162
S'party game'
p1164
sI1163
S'guzheng'
p1165
sI1164
S'american history'
p1166
sI1165
S'shakers'
p1167
sI1166
S'frame drum'
p1168
sI1167
S'marker'
p1169
sI1168
S'publishing'
p1170
sI1169
S'jump rope'
p1171
sI1170
S'team handball'
p1172
sI1171
S'collage'
p1173
sI1172
S'advertisement'
p1174
sI1173
S'mining'
p1175
sI1174
S'doodle'
p1176
sI1175
S'gaga'
p1177
sI1176
S'software engineer'
p1178
sI1177
S'dystopia'
p1179
sI1178
S'circle dance'
p1180
sI1179
S'violone'
p1181
sI1180
S'trance music'
p1182
sI1181
S'spanish language'
p1183
sI1182
S'hebrew'
p1184
sI1183
S'metalworking'
p1185
sI1184
S'natural medicine'
p1186
sI1185
S'french horn'
p1187
sI1186
S'communication design'
p1188
sI1187
S'industrial arts'
p1189
sI1188
S'ska punk'
p1190
sI1189
S'digital art'
p1191
sI1190
S'veritism'
p1192
sI1191
S'morphology'
p1193
sI1192
S'syntax'
p1194
sI1193
S'ukrainian dance'
p1195
sI1194
S'soul music'
p1196
sI1195
S'medical psychology'
p1197
sI1196
S'partner dancing'
p1198
sI1197
S'urban sociology'
p1199
sI1198
S'weight training'
p1200
sI1199
S'experimental physics'
p1201
sI1200
S'kwaito'
p1202
sI1201
S'soul jazz'
p1203
sI1202
S'hardcore'
p1204
sI1203
S'genocide'
p1205
sI1204
S'cello rock'
p1206
sI1205
S'computer graphics'
p1207
sI1206
S'computer technology'
p1208
sI1207
S'cue sports'
p1209
sI1208
S'ethnomusicology'
p1210
sI1209
S'labor history'
p1211
sI1210
S'ultramarathon'
p1212
sI1211
S'musicology'
p1213
sI1212
S'ugal'
p1214
sI1213
S'devotional'
p1215
sI1214
S'beach rugby'
p1216
sI1215
S'rugby league'
p1217
sI1216
S'chinese language'
p1218
sI1217
S'musical theater'
p1219
sI1218
S'mixed media'
p1220
sI1219
S'hyphy'
p1221
sI1220
S'typography'
p1222
sI1221
S'communications'
p1223
sI1222
S'chimes'
p1224
sI1223
S'npr'
p1225
sI1224
S'trombone'
p1226
sI1225
S'video game'
p1227
sI1226
S'testa'
p1228
sI1227
S'lacrosse'
p1229
sI1228
S'ideology'
p1230
sI1229
S'semiotics'
p1231
sI1230
S'musical improvisation'
p1232
sI1231
S'boogie-woogie'
p1233
sI1232
S'government'
p1234
sI1233
S"children's books"
p1235
sI1234
S'ken'
p1236
sI1235
S'mosaic'
p1237
sI1236
S'sumerian music'
p1238
sI1237
S'motion pictures'
p1239
sI1238
S'migration'
p1240
sI1239
S'mineralogy'
p1241
sI1240
S'darwinism'
p1242
sI1241
S'organ'
p1243
sI1242
S'social relations'
p1244
sI1243
S'piracy'
p1245
sI1244
S'educational music'
p1246
sI1245
S'deutsch'
p1247
sI1246
S'kubing'
p1248
sI1247
S'schlager'
p1249
sI1248
S'glee'
p1250
sI1249
S'fantasy football'
p1251
sI1250
S'personal development'
p1252
sI1251
S'complex systems'
p1253
sI1252
S'a cappella'
p1254
sI1253
S'pirate'
p1255
sI1254
S'podcast'
p1256
sI1255
S'literary criticism'
p1257
sI1256
S'model building'
p1258
sI1257
S'business marketing'
p1259
sI1258
S'orthopedics'
p1260
sI1259
S'tin whistle'
p1261
sI1260
S'theme music'
p1262
sI1261
S'manjur'
p1263
sI1262
S'minimal techno'
p1264
sI1263
S'chant'
p1265
sI1264
S'flower pressing'
p1266
sI1265
S'arm wrestling'
p1267
sI1266
S'digital media'
p1268
sI1267
S'foreign affairs'
p1269
sI1268
S'classic rock'
p1270
sI1269
S'political economy'
p1271
sI1270
S'kinship'
p1272
sI1271
S'veterinary medicine'
p1273
sI1272
S'blues dance'
p1274
sI1273
S'social studies'
p1275
sI1274
S'other games'
p1276
sI1275
S'american politics'
p1277
sI1276
S'woodwind instrument'
p1278
sI1277
S'city planning'
p1279
sI1278
S'behavioral economics'
p1280
sI1279
S'wing chun'
p1281
sI1280
S'erhu'
p1282
sI1281
S'conga'
p1283
sI1282
S'viet'
p1284
sI1283
S'electro rock'
p1285
sI1284
S'soundtrack'
p1286
sI1285
S'darkwave'
p1287
sI1286
S'gothabilly'
p1288
sI1287
S'synthpop'
p1289
sI1288
S'bassoon'
p1290
sI1289
S'reeds'
p1291
sI1290
S'existentialism'
p1292
sI1291
S'cyclocross'
p1293
sI1292
S'coin collecting'
p1294
sI1293
S'country-rap'
p1295
sI1294
S'spoon'
p1296
sI1295
S'space technology'
p1297
sI1296
S'british history'
p1298
sI1297
S'amateur boxing'
p1299
sI1298
S'cryptozoology'
p1300
sI1299
S'quiz'
p1301
sI1300
S'roleplaying game'
p1302
sI1301
S'derecho'
p1303
sI1302
S'emergency medicine'
p1304
sI1303
S'bolero'
p1305
sI1304
S'porro'
p1306
sI1305
S'rpg'
p1307
sI1306
S'ba\xc4\x9flama'
p1308
sI1307
S'salsa cubana'
p1309
sI1308
S'christmas day'
p1310
sI1309
S'paddle tennis'
p1311
sI1310
S'meditation music'
p1312
sI1311
S'management science'
p1313
sI1312
S'nuclear fusion'
p1314
sI1313
S'bebop'
p1315
sI1314
S'prayer'
p1316
sI1315
S'string'
p1317
sI1316
S'koke'
p1318
sI1317
S'performance arts'
p1319
sI1318
S'world news'
p1320
sI1319
S'dnb'
p1321
sI1320
S'santoor'
p1322
sI1321
S'bass flute'
p1323
sI1322
S'lovers rock'
p1324
sI1323
S'wushu'
p1325
sI1324
S'piccolo'
p1326
sI1325
S'book collecting'
p1327
sI1326
S'strategy'
p1328
sI1327
S'show jumping'
p1329
sI1328
S'germanism'
p1330
sI1329
S'tech house'
p1331
sI1330
S'musical performance'
p1332
sI1331
S'kinesiology'
p1333
sI1332
S'physical therapy'
p1334
sI1333
S'theatre organ'
p1335
sI1334
S'mj'
p1336
sI1335
S'russian history'
p1337
sI1336
S'medieval reenactment'
p1338
sI1337
S'meteorology'
p1339
sI1338
S'steampunk'
p1340
sI1339
S'wargaming'
p1341
sI1340
S'bluegrass music'
p1342
sI1341
S'greek dances'
p1343
sI1342
S'moog'
p1344
sI1343
S'palaeontology'
p1345
sI1344
S'marimba'
p1346
sI1345
S'wwii'
p1347
sI1346
S'latin soul'
p1348
sI1347
S'holocaust'
p1349
sI1348
S'radio drama'
p1350
sI1349
S'progressive rock'
p1351
sI1350
S'occult'
p1352
sI1351
S'phycology'
p1353
sI1352
S'outsider music'
p1354
sI1353
S'art education'
p1355
sI1354
S'mass communication'
p1356
sI1355
S'freerunning'
p1357
sI1356
S'dance education'
p1358
sI1357
S'product design'
p1359
sI1358
S'rackett'
p1360
sI1359
S'pommer'
p1361
sI1360
S'gis'
p1362
sI1361
S'language acquisition'
p1363
sI1362
S'rudra veena'
p1364
sI1363
S'surbahar'
p1365
sI1364
S'grunge music'
p1366
sI1365
S'symphonic'
p1367
sI1366
S'fistball'
p1368
sI1367
S'abstract hip hop'
p1369
sI1368
S'breakcore'
p1370
sI1369
S'grime'
p1371
sI1370
S'improvisational comedy'
p1372
sI1371
S'underground music'
p1373
sI1372
S'biogeography'
p1374
sI1373
S'taxonomy'
p1375
sI1374
S'clarion'
p1376
sI1375
S'bhangra'
p1377
sI1376
S'social science'
p1378
sI1377
S'cardmaking'
p1379
sI1378
S'mountain boarding'
p1380
sI1379
S'wildlife conservation'
p1381
sI1380
S'chemical engineering'
p1382
sI1381
S'automation'
p1383
sI1382
S'chinese philosophy'
p1384
sI1383
S'motogp'
p1385
sI1384
S'fiction writing'
p1386
sI1385
S'informatics'
p1387
sI1386
S'kyokushin'
p1388
sI1387
S'meringue'
p1389
sI1388
S'reconstruction'
p1390
sI1389
S'astronautics'
p1391
sI1390
S'beatboxing'
p1392
sI1391
S'community organization'
p1393
sI1392
S'hollands'
p1394
sI1393
S'electronic organ'
p1395
sI1394
S'internet advertising'
p1396
sI1395
S'ang\xc3\xa9lique'
p1397
sI1396
S'college basketball'
p1398
sI1397
S'tar'
p1399
sI1398
S'algebra'
p1400
sI1399
S'makina'
p1401
sI1400
S'social economics'
p1402
sI1401
S'asian languages'
p1403
sI1402
S'bata'
p1404
sI1403
S'cloud watching'
p1405
sI1404
S'indoor soccer'
p1406
sI1405
S'geomatics'
p1407
sI1406
S'bongos'
p1408
sI1407
S'letterboxing'
p1409
sI1408
S'mambo'
p1410
sI1409
S'popular culture'
p1411
sI1410
S'insurance'
p1412
sI1411
S'social club'
p1413
sI1412
S'early music'
p1414
sI1413
S'harpsichord'
p1415
sI1414
S'mathematical sciences'
p1416
sI1415
S'food engineering'
p1417
sI1416
S'bass drum'
p1418
sI1417
S'hang gliding'
p1419
sI1418
S'psychedelia'
p1420
sI1419
S'flash mob'
p1421
sI1420
S'video art'
p1422
sI1421
S'political satire'
p1423
sI1422
S'business economics'
p1424
sI1423
S'economics tripos'
p1425
sI1424
S'online marketing'
p1426
sI1425
S'game art'
p1427
sI1426
S'psychiatry'
p1428
sI1427
S'christian'
p1429
sI1428
S'fishkeeping'
p1430
sI1429
S'space science'
p1431
sI1430
S'concept art'
p1432
sI1431
S'braindance'
p1433
sI1432
S'outdoor recreation'
p1434
sI1433
S'massage therapy'
p1435
sI1434
S'miniature wargaming'
p1436
sI1435
S'agroecology'
p1437
sI1436
S'marine science'
p1438
sI1437
S'interview'
p1439
sI1438
S'beach rock'
p1440
sI1439
S'synth'
p1441
sI1440
S'pirates'
p1442
sI1441
S'telecommunication'
p1443
sI1442
S'neurosciences'
p1444
sI1443
S'radio astronomy'
p1445
sI1444
S'qigong'
p1446
sI1445
S'systema'
p1447
sI1446
S'dramatic literature'
p1448
sI1447
S'jujutsu'
p1449
sI1448
S'cymbals'
p1450
sI1449
S'physical science'
p1451
sI1450
S'anatolian'
p1452
sI1451
S'dizi'
p1453
sI1452
S'behaviorism'
p1454
sI1453
S'psycholinguistics'
p1455
sI1454
S'cross-country skiing'
p1456
sI1455
S'marine biology'
p1457
sI1456
S'road cycling'
p1458
sI1457
S'stoner rock'
p1459
sI1458
S'environmental sciences'
p1460
sI1459
S'swing music'
p1461
sI1460
S'pop folk'
p1462
sI1461
S'ragga'
p1463
sI1462
S'suomi'
p1464
sI1463
S'philology'
p1465
sI1464
S'social networks'
p1466
sI1465
S'laws'
p1467
sI1466
S'electro house'
p1468
sI1467
S'hand drum'
p1469
sI1468
S'wine clubs'
p1470
sI1469
S'turntablism'
p1471
sI1470
S'harmonium'
p1472
sI1471
S'indian music'
p1473
sI1472
S'tabla'
p1474
sI1473
S'kazoo'
p1475
sI1474
S'pharmacology'
p1476
sI1475
S'continuum'
p1477
sI1476
S'scat'
p1478
sI1477
S'microfinance'
p1479
sI1478
S'manager'
p1480
sI1479
S'medical technology'
p1481
sI1480
S'marching percussion'
p1482
sI1481
S'theoretical astronomy'
p1483
sI1482
S'russian rock'
p1484
sI1483
S'judaism'
p1485
sI1484
S'ufo'
p1486
sI1485
S'gospel music'
p1487
sI1486
S'historical geology'
p1488
sI1487
S'astrologie'
p1489
sI1488
S'pathology'
p1490
sI1489
S'rugby football'
p1491
sI1490
S"90's"
p1492
sI1491
S'speed skating'
p1493
sI1492
S'business informatics'
p1494
sI1493
S'doina'
p1495
sI1494
S'soil science'
p1496
sI1495
S'military history'
p1497
sI1496
S'hindu'
p1498
sI1497
S'tambourine'
p1499
sI1498
S'vocals'
p1500
sI1499
S'glitch'
p1501
sI1500
S"d'n'b"
p1502
sI1501
S'free tekno'
p1503
sI1502
S'unix'
p1504
sI1503
S'electrical'
p1505
sI1504
S'embodiment'
p1506
sI1505
S'rugby union'
p1507
sI1506
S'wind instruments'
p1508
sI1507
S'xylophone'
p1509
sI1508
S'religious studies'
p1510
sI1509
S'sports medicine'
p1511
sI1510
S'child psychology'
p1512
sI1511
S'allergies'
p1513
sI1512
S'transportation planning'
p1514
sI1513
S'setar'
p1515
sI1514
S'celesta'
p1516
sI1515
S'freestyle skiing'
p1517
sI1516
S'oenology'
p1518
sI1517
S'bass recorder'
p1519
sI1518
S'music education'
p1520
sI1519
S'hydrology'
p1521
sI1520
S'balalaika'
p1522
sI1521
S'suling'
p1523
sI1522
S'film actor'
p1524
sI1523
S'theatrical design'
p1525
sI1524
S'graphic designer'
p1526
sI1525
S'biological sciences'
p1527
sI1526
S'sport fishing'
p1528
sI1527
S'speech'
p1529
sI1528
S'metal detector'
p1530
sI1529
S'military'
p1531
sI1530
S'hardware'
p1532
sI1531
S'cajon'
p1533
sI1532
S'sitar'
p1534
sI1533
S'light music'
p1535
sI1534
S'brushes'
p1536
sI1535
S'metabolism'
p1537
sI1536
S'science education'
p1538
sI1537
S'environmental health'
p1539
sI1538
S'development studies'
p1540
sI1539
S'programming language'
p1541
sI1540
S'physical education'
p1542
sI1541
S'infectious diseases'
p1543
sI1542
S'live electronics'
p1544
sI1543
S'surgery'
p1545
sI1544
S'lis'
p1546
sI1545
S'conservation biology'
p1547
sI1546
S'web marketing'
p1548
sI1547
S'public service'
p1549
sI1548
S'futurology'
p1550
sI1549
S'radio comedy'
p1551
sI1550
S'biological psychology'
p1552
sI1551
S'bali dance'
p1553
sI1552
S'cowbell'
p1554
sI1553
S'wheelchair basketball'
p1555
sI1554
S'blends'
p1556
sI1555
S'statistics'
p1557
sI1556
S'pipe organ'
p1558
sI1557
S'yodeling'
p1559
sI1558
S'demography'
p1560
sI1559
S'modern literature'
p1561
sI1560
S'visual anthropology'
p1562
sI1561
S'butoh'
p1563
sI1562
S'bongo flava'
p1564
sI1563
S'chemical physics'
p1565
sI1564
S'river running'
p1566
sI1565
S'divinity'
p1567
sI1566
S'multimedia design'
p1568
sI1567
S'environmental ethics'
p1569
sI1568
S'kabbalah'
p1570
sI1569
S'actress'
p1571
sI1570
S'web services'
p1572
sI1571
S'santur'
p1573
sI1572
S'talk radio'
p1574
sI1573
S'public policy'
p1575
sI1574
S'film directing'
p1576
sI1575
S'bjj'
p1577
sI1576
S'artistic gymnastics'
p1578
sI1577
S'music performance'
p1579
sI1578
S'loop'
p1580
sI1579
S'defender'
p1581
sI1580
S'cell biology'
p1582
sI1581
S'linguistic anthropology'
p1583
sI1582
S'tel aviv'
p1584
sI1583
S'food management'
p1585
sI1584
S'religious music'
p1586
sI1585
S'natural science'
p1587
sI1586
S'shredding'
p1588
sI1587
S'tangos'
p1589
sI1588
S'eugenics'
p1590
sI1589
S'sirum'
p1591
sI1590
S'international affairs'
p1592
sI1591
S'oceania'
p1593
sI1592
S'movie actor'
p1594
sI1593
S'tabletop game'
p1595
sI1594
S'healthcare informatics'
p1596
sI1595
S'indian rock'
p1597
sI1596
S'family history'
p1598
sI1597
S'squash tennis'
p1599
sI1598
S'polka'
p1600
sI1599
S'european music'
p1601
sI1600
S'theoretical physics'
p1602
sI1601
S'noise music'
p1603
sI1602
S'soap opera'
p1604
sI1603
S'political ecology'
p1605
sI1604
S'round dance'
p1606
sI1605
S'organum'
p1607
sI1606
S'electronic engineering'
p1608
sI1607
S'bajiquan'
p1609
sI1608
S'drumset'
p1610
sI1609
S'international economics'
p1611
sI1610
S'circus music'
p1612
sI1611
S'automobile engineering'
p1613
sI1612
S'strat'
p1614
sI1613
S'theatre design'
p1615
sI1614
S'dance improvisation'
p1616
sI1615
S'emigration'
p1617
sI1616
S'guitar banjo'
p1618
sI1617
S'informatique'
p1619
sI1618
S'bass clarinet'
p1620
sI1619
S'bujinkan'
p1621
sI1620
S'taijutsu'
p1622
sI1621
S'latin literature'
p1623
sI1622
S'drummer'
p1624
sI1623
S'bansuri'
p1625
sI1624
S'lifting weights'
p1626
sI1625
S'broomball'
p1627
sI1626
S'organizational behavior'
p1628
sI1627
S'western philosophy'
p1629
sI1628
S'mathematics-economics'
p1630
sI1629
S'polish music'
p1631
sI1630
S'negotiation'
p1632
sI1631
S'grateful dead'
p1633
sI1632
S'drum set'
p1634
sI1633
S'interactive arts'
p1635
sI1634
S'nonprofit management'
p1636
sI1635
S'variety show'
p1637
sI1636
S'power soccer'
p1638
sI1637
S'jewelry design'
p1639
sI1638
S'christmas music'
p1640
sI1639
S'chemical sciences'
p1641
sI1640
S'mathematical physics'
p1642
sI1641
S'physical chemistry'
p1643
sI1642
S'molecular biology'
p1644
sI1643
S'horse racing'
p1645
sI1644
S'set design'
p1646
sI1645
S'turku'
p1647
sI1646
S'us news'
p1648
sI1647
S'moto racing'
p1649
sI1648
S'hammond organ'
p1650
sI1649
S'kalimba'
p1651
sI1650
S'visual communication'
p1652
sI1651
S'communication studies'
p1653
sI1652
S'historical reenactment'
p1654
sI1653
S'samba rock'
p1655
sI1654
S'development economics'
p1656
sI1655
S'bharatanatyam'
p1657
sI1656
S'trova'
p1658
sI1657
S'violoncello'
p1659
sI1658
S'northern soul'
p1660
sI1659
S'business analysis'
p1661
sI1660
S'strategic planning'
p1662
sI1661
S'free jazz'
p1663
sI1662
S'squash rackets'
p1664
sI1663
S'hawaiian'
p1665
sI1664
S'tahitian'
p1666
sI1665
S'kadans'
p1667
sI1666
S'country pop'
p1668
sI1667
S'population genetics'
p1669
sI1668
S'table game'
p1670
sI1669
S'professional wrestling'
p1671
sI1670
S'spanish rock'
p1672
sI1671
S'international studies'
p1673
sI1672
S'jazz piano'
p1674
sI1673
S'jugger'
p1675
sI1674
S'zarzuela'
p1676
sI1675
S'physiological biology'
p1677
sI1676
S'home decor'
p1678
sI1677
S'fossil collecting'
p1679
sI1678
S'electroacoustic music'
p1680
sI1679
S'mechatronics'
p1681
sI1680
S"rock n' roll"
p1682
sI1681
S'french literature'
p1683
sI1682
S'english studies'
p1684
sI1683
S'fou'
p1685
sI1684
S'sciences humaines'
p1686
sI1685
S'biwa'
p1687
sI1686
S'ringette'
p1688
sI1687
S'phenomenology'
p1689
sI1688
S'renaissance literature'
p1690
sI1689
S'publications'
p1691
sI1690
S'kane'
p1692
sI1691
S'cajun music'
p1693
sI1692
S'modern language'
p1694
sI1693
S'manufacturing engineering'
p1695
sI1694
S'german opera'
p1696
sI1695
S'media technology'
p1697
sI1696
S'beach soccer'
p1698
sI1697
S'roma music'
p1699
sI1698
S"children's music"
p1700
sI1699
S'shooting sports'
p1701
sI1700
S'gabber'
p1702
sI1701
S'marabi'
p1703
sI1702
S'yu'
p1704
sI1703
S'screenwriting'
p1705
sI1704
S'metallurgy'
p1706
sI1705
S'ebm'
p1707
sI1706
S'roller hockey'
p1708
sI1707
S'sport management'
p1709
sI1708
S'autoharp'
p1710
sI1709
S'computer security'
p1711
sI1710
S'classic pop'
p1712
sI1711
S'screen-print'
p1713
sI1712
S'ancient greece'
p1714
sI1713
S'roller sport'
p1715
sI1714
S'nazi'
p1716
sI1715
S'smelly'
p1717
sI1716
S'rocksteady'
p1718
sI1717
S'radio documentary'
p1719
sI1718
S'kite building'
p1720
sI1719
S'visual kei'
p1721
sI1720
S'tragedy'
p1722
sI1721
S'pharmacy'
p1723
sI1722
S'special education'
p1724
sI1723
S'actuarial science'
p1725
sI1724
S'sport kite'
p1726
sI1725
S'goalball'
p1727
sI1726
S'quena'
p1728
sI1727
S'dancesport'
p1729
sI1728
S'western music'
p1730
sI1729
S'ans synthesizer'
p1731
sI1730
S'calif'
p1732
sI1731
S'percussion instruments'
p1733
sI1732
S'formula one'
p1734
sI1733
S'goverment'
p1735
sI1734
S'eurythmy'
p1736
sI1735
S'lottery'
p1737
sI1736
S'new testament'
p1738
sI1737
S'flight medicine'
p1739
sI1738
S'triangle'
p1740
sI1739
S'edm'
p1741
sI1740
S'progressive house'
p1742
sI1741
S'rap music'
p1743
sI1742
S'health science'
p1744
sI1743
S'language courses'
p1745
sI1744
S'telecom'
p1746
sI1745
S'cognitive neuroscience'
p1747
sI1746
S'kraut'
p1748
sI1747
S'sport rowing'
p1749
sI1748
S'sumo'
p1750
sI1749
S'korfball'
p1751
sI1750
S'viticulture'
p1752
sI1751
S'electronic rock'
p1753
sI1752
S'jiujitsu'
p1754
sI1753
S'mountain biking, downhill'
p1755
sI1754
S'jazz fusion'
p1756
sI1755
S'glockenspiel'
p1757
sI1756
S'bali silat'
p1758
sI1757
S'polyphony'
p1759
sI1758
S'  electronic instruments'
p1760
sI1759
S'applied arts'
p1761
sI1760
S'computer rock'
p1762
sI1761
S'indie pop'
p1763
sI1762
S'mashup'
p1764
sI1763
S'suona'
p1765
sI1764
S'information science'
p1766
sI1765
S'post-hardcore'
p1767
sI1766
S'finnish language'
p1768
sI1767
S'classical period'
p1769
sI1768
S'alternative electronic'
p1770
sI1769
S'soren kierkegaard'
p1771
sI1770
S'pandeiro'
p1772
sI1771
S'hooter'
p1773
sI1772
S"children's literature"
p1774
sI1773
S'geodesy'
p1775
sI1774
S'czech literature'
p1776
sI1775
S'modern history'
p1777
sI1776
S'medicinal chemistry'
p1778
sI1777
S'physics/biology'
p1779
sI1778
S'dub music'
p1780
sI1779
S'cognitive psychology'
p1781
sI1780
S'papermaking'
p1782
sI1781
S'go go'
p1783
sI1782
S'new wave'
p1784
sI1783
S'singing bowl'
p1785
sI1784
S'theater criticism'
p1786
sI1785
S'dulcian'
p1787
sI1786
S'relief'
p1788
sI1787
S'chemistry, music'
p1789
sI1788
S'biological engineering'
p1790
sI1789
S'bouzouki'
p1791
sI1790
S'shotokan'
p1792
sI1791
S'folk pop'
p1793
sI1792
S'arab music'
p1794
sI1793
S'yiddish'
p1795
sI1794
S'sailboarding'
p1796
sI1795
S'lyrical dance'
p1797
sI1796
S'tropical fish'
p1798
sI1797
S'agroforestry'
p1799
sI1798
S'rhythmic gymnastics'
p1800
sI1799
S'hardstyle'
p1801
sI1800
S'synchronised swimming'
p1802
sI1801
S'beach tennis'
p1803
sI1802
S'sentir'
p1804
sI1803
S'rock\xc2\xb4n\xc2\xb4roll'
p1805
sI1804
S'wiffleball'
p1806
sI1805
S'body piercing'
p1807
sI1806
S'iranian languages'
p1808
sI1807
S'concertina'
p1809
sI1808
S'ball badminton'
p1810
sI1809
S'alternative metal'
p1811
sI1810
S'curtal'
p1812
sI1811
S'tax law'
p1813
sI1812
S'organizational psychology'
p1814
sI1813
S'castellano'
p1815
sI1814
S'cover band'
p1816
sI1815
S'pandore'
p1817
sI1816
S'computer applications'
p1818
sI1817
S'concert march'
p1819
sI1818
S'electrojazz'
p1820
sI1819
S'cheerleading'
p1821
sI1820
S'japanese studies'
p1822
sI1821
S'seismology'
p1823
sI1822
S'arabic music'
p1824
sI1823
S'soft rock'
p1825
sI1824
S'independent music'
p1826
sI1825
S'computational biology'
p1827
sI1826
S'thrash metal'
p1828
sI1827
S'comprehension'
p1829
sI1828
S'ancient philosophy'
p1830
sI1829
S'underwater hockey'
p1831
sI1830
S'christmas song'
p1832
sI1831
S'psychophysiology'
p1833
sI1832
S'health education'
p1834
sI1833
S'food chemistry'
p1835
sI1834
S'hapkido'
p1836
sI1835
S'human development'
p1837
sI1836
S'grappling'
p1838
sI1837
S'winemaking'
p1839
sI1838
S'german-style'
p1840
sI1839
S'french history'
p1841
sI1840
S'living poetry'
p1842
sI1841
S'eventing'
p1843
sI1842
S'monoski'
p1844
sI1843
S'organic chemistry'
p1845
sI1844
S'nihilism'
p1846
sI1845
S'romantic music'
p1847
sI1846
S'physical anthropology'
p1848
sI1847
S'progressive metal'
p1849
sI1848
S'recorder'
p1850
sI1849
S'taxidermy'
p1851
sI1850
S'ninjutsu'
p1852
sI1851
S'production design'
p1853
sI1852
S'computer programmer'
p1854
sI1853
S'goblet drum'
p1855
sI1854
S'pole dance'
p1856
sI1855
S'gaelic football'
p1857
sI1856
S'old timey'
p1858
sI1857
S'microhistory'
p1859
sI1858
S'techno music'
p1860
sI1859
S'international health'
p1861
sI1860
S'bocce'
p1862
sI1861
S'miniature golf'
p1863
sI1862
S'baglama'
p1864
sI1863
S'synchronized swimming'
p1865
sI1864
S'rope jumping'
p1866
sI1865
S'korean language'
p1867
sI1866
S'electroacoustics'
p1868
sI1867
S'extreme metal'
p1869
sI1868
S'film soundtrack'
p1870
sI1869
S'biomechanics'
p1871
sI1870
S'country blues'
p1872
sI1871
S'deep house'
p1873
sI1872
S'semiology'
p1874
sI1873
S'enology'
p1875
sI1874
S'lathi'
p1876
sI1875
S'international law'
p1877
sI1876
S'latin pop'
p1878
sI1877
S'cyberpunk'
p1879
sI1878
S'serious game'
p1880
sI1879
S'hailes'
p1881
sI1880
S'epigraphy'
p1882
sI1881
S'slr photography'
p1883
sI1882
S'global health'
p1884
sI1883
S'geriatrics'
p1885
sI1884
S'documentation'
p1886
sI1885
S'brazilian jiu-jitsu'
p1887
sI1886
S'indie folk'
p1888
sI1887
S'dilbert'
p1889
sI1888
S'eurodance'
p1890
sI1889
S'bodhran'
p1891
sI1890
S'trail riding'
p1892
sI1891
S'zamba'
p1893
sI1892
S'free dance'
p1894
sI1893
S'cosplay'
p1895
sI1894
S'ganza'
p1896
sI1895
S'modern arnis'
p1897
sI1896
S'raggaeton'
p1898
sI1897
S'russian literature'
p1899
sI1898
S'bagpipe'
p1900
sI1899
S'formal science'
p1901
sI1900
S'bertsolaritza'
p1902
sI1901
S'liberal arts'
p1903
sI1902
S'glam rock'
p1904
sI1903
S'ski cross'
p1905
sI1904
S'horn'
p1906
sI1905
S'sociolinguistics'
p1907
sI1906
S'choro'
p1908
sI1907
S'comparative government'
p1909
sI1908
S'top 40'
p1910
sI1909
S'human swimming'
p1911
sI1910
S'interaction design'
p1912
sI1911
S'design thinking'
p1913
sI1912
S'information visualization'
p1914
sI1913
S'green design'
p1915
sI1914
S'engineering physics'
p1916
sI1915
S'developmental psychology'
p1917
sI1916
S'astrolog\xc3\xada'
p1918
sI1917
S'english literature'
p1919
sI1918
S'kite construction'
p1920
sI1919
S"women's music"
p1921
sI1920
S'sorority'
p1922
sI1921
S'volcanology'
p1923
sI1922
S'oceanography'
p1924
sI1923
S'motorcycle racing'
p1925
sI1924
S'early christianity'
p1926
sI1925
S'electrical engineer'
p1927
sI1926
S'emo'
p1928
sI1927
S'idm music'
p1929
sI1928
S'allergy'
p1930
sI1929
S'geophysics'
p1931
sI1930
S'country rock'
p1932
sI1931
S'nordic combined'
p1933
sI1932
S'baritone horn'
p1934
sI1933
S'environmental science'
p1935
sI1934
S'urban education'
p1936
sI1935
S'epidemiology'
p1937
sI1936
S'chinese history'
p1938
sI1937
S'bipa'
p1939
sI1938
S'geomorphology'
p1940
sI1939
S'fraternity'
p1941
sI1940
S'hurdy gurdy'
p1942
sI1941
S'anonymity'
p1943
sI1942
S'language game'
p1944
sI1943
S'shorinji kempo'
p1945
sI1944
S'chemical biology'
p1946
sI1945
S'control systems'
p1947
sI1946
S'game show'
p1948
sI1947
S'rogaining'
p1949
sI1948
S'italian renaissance'
p1950
sI1949
S'brass'
p1951
sI1950
S'natural resources'
p1952
sI1951
S'latin rock'
p1953
sI1952
S'islamic studies'
p1954
sI1953
S'plastic surgery'
p1955
sI1954
S'roots reggae'
p1956
sI1955
S'physical geography'
p1957
sI1956
S'tulum'
p1958
sI1957
S'elementary education'
p1959
sI1958
S'steam punk'
p1960
sI1959
S'violincello'
p1961
sI1960
S'maracas'
p1962
sI1961
S'son jarocho'
p1963
sI1962
S'balboa'
p1964
sI1963
S'transnationality'
p1965
sI1964
S'group dance'
p1966
sI1965
S'criminal law'
p1967
sI1966
S'investment management'
p1968
sI1967
S'architectural pattern'
p1969
sI1968
S'oriental studies'
p1970
sI1969
S'patch collecting'
p1971
sI1970
S'urban studies'
p1972
sI1971
S'microphone'
p1973
sI1972
S'tro'
p1974
sI1973
S'neurobiology'
p1975
sI1974
S'paleoanthropology'
p1976
sI1975
S'financial economics'
p1977
sI1976
S'musical keyboard'
p1978
sI1977
S'electropunk'
p1979
sI1978
S'para para'
p1980
sI1979
S'jazz studies'
p1981
sI1980
S'jug'
p1982
sI1981
S'brassband'
p1983
sI1982
S'signal processing'
p1984
sI1983
S'electrical engineering'
p1985
sI1984
S'boogaloo'
p1986
sI1985
S'caribbean music'
p1987
sI1986
S'aviation medicine'
p1988
sI1987
S'fly tying'
p1989
sI1988
S'postmodern literature'
p1990
sI1989
S'cinema-television'
p1991
sI1990
S'olympic games'
p1992
sI1991
S'lucha libre'
p1993
sI1992
S'classic country'
p1994
sI1993
S'country folk'
p1995
sI1994
S'folk jazz'
p1996
sI1995
S'ancient greek'
p1997
sI1996
S'xiao'
p1998
sI1997
S'plant sciences'
p1999
sI1998
S'record collecting'
p2000
sI1999
S'economic policy'
p2001
sI2000
S'business psychology'
p2002
sI2001
S'planking'
p2003
sI2002
S'hip hop soul'
p2004
sI2003
S'photographic reporting'
p2005
sI2004
S'outlaw country'
p2006
sI2005
S'stone skipping'
p2007
sI2006
S'contemporary folk'
p2008
sI2007
S'boomerang'
p2009
sI2008
S'pole vault'
p2010
sI2009
S'progg'
p2011
sI2010
S'singing game'
p2012
sI2011
S'molecular genetics'
p2013
sI2012
S'vacuum cleaner'
p2014
sI2013
S'hihat'
p2015
sI2014
S'lute'
p2016
sI2015
S'social welare'
p2017
sI2016
S'aeronautics'
p2018
sI2017
S'canadian football'
p2019
sI2018
S'nde'
p2020
sI2019
S'alto horn'
p2021
sI2020
S'theremin'
p2022
sI2021
S'net art'
p2023
sI2022
S'\xd8\xb9\xd8\xb1\xd8\xa8\xd9\x8a'
p2024
sI2023
S'user experience'
p2025
sI2024
S'urban sprawl'
p2026
sI2025
S'melbourne shuffle'
p2027
sI2026
S'computer engineering'
p2028
sI2027
S'gangsta rap'
p2029
sI2028
S'computing science'
p2030
sI2029
S'persian literature'
p2031
sI2030
S'jianzi'
p2032
sI2031
S'architectural engineering'
p2033
sI2032
S'underwater rugby'
p2034
sI2033
S'bandy'
p2035
sI2034
S'harp guitar'
p2036
sI2035
S'kizomba'
p2037
sI2036
S'mechanical engineering'
p2038
sI2037
S'library science'
p2039
sI2038
S'progressive music'
p2040
sI2039
S'neural network'
p2041
sI2040
S'british literature'
p2042
sI2041
S'syd barrett'
p2043
sI2042
S'information management'
p2044
sI2043
S'phonetics'
p2045
sI2044
S'guitar pop'
p2046
sI2045
S'active rock'
p2047
sI2046
S'twee pop'
p2048
sI2047
S'internet marketing'
p2049
sI2048
S'mass communications'
p2050
sI2049
S'nanga'
p2051
sI2050
S'vocal trance'
p2052
sI2051
S'occupational therapy'
p2053
sI2052
S'christian theology'
p2054
sI2053
S'bass violin'
p2055
sI2054
S'software developer'
p2056
sI2055
S'keyboard bass'
p2057
sI2056
S'vocal house'
p2058
sI2057
S'ancient music'
p2059
sI2058
S'visual design'
p2060
sI2059
S'intelligent design'
p2061
sI2060
S'zil'
p2062
sI2061
S'lithuanian music'
p2063
sI2062
S'marching band'
p2064
sI2063
S'higher education'
p2065
sI2064
S'quality management'
p2066
sI2065
S'student movement'
p2067
sI2066
S'extreme music'
p2068
sI2067
S'alternative 90s'
p2069
sI2068
S'community networking'
p2070
sI2069
S'dentist'
p2071
sI2070
S'industrial rock'
p2072
sI2071
S'drum machine'
p2073
sI2072
S'alternative folk'
p2074
sI2073
S'metaphysical politics'
p2075
sI2074
S'greek language'
p2076
sI2075
S'track cycling'
p2077
sI2076
S'gamelan'
p2078
sI2077
S'short story'
p2079
sI2078
S'big drum'
p2080
sI2079
S'bamboo flute'
p2081
sI2080
S'computer software'
p2082
sI2081
S'planetary science'
p2083
sI2082
S'modernization theory'
p2084
sI2083
S'wind chime'
p2085
sI2084
S'hard trance'
p2086
sI2085
S'amateur astronomy'
p2087
sI2086
S'guitarron'
p2088
sI2087
S'crust punk'
p2089
sI2088
S'regency dance'
p2090
sI2089
S'brass instrument'
p2091
sI2090
S'sound collage'
p2092
sI2091
S'aggrotech'
p2093
sI2092
S'computational linguistics'
p2094
sI2093
S'doom metal'
p2095
sI2094
S'thrash'
p2096
sI2095
S'amigurumi'
p2097
sI2096
S'butter sculpture'
p2098
sI2097
S'country soul'
p2099
sI2098
S'beach handball'
p2100
sI2099
S'street basketball'
p2101
sI2100
S'bioengineering'
p2102
sI2101
S'string band'
p2103
sI2102
S'dendrology'
p2104
sI2103
S'russian people'
p2105
sI2104
S'drum kit'
p2106
sI2105
S'third reich'
p2107
sI2106
S'arghul'
p2108
sI2107
S'material science'
p2109
sI2108
S'mechanical sciences'
p2110
sI2109
S'barbat'
p2111
sI2110
S'rai'
p2112
sI2111
S'acid rock'
p2113
sI2112
S'classical funk'
p2114
sI2113
S'goa trance'
p2115
sI2114
S'happy hardcore'
p2116
sI2115
S'sustainable design'
p2117
sI2116
S'classical studies'
p2118
sI2117
S'kliningan'
p2119
sI2118
S'film score'
p2120
sI2119
S'inspirational music'
p2121
sI2120
S'particle physics'
p2122
sI2121
S'geological sciences'
p2123
sI2122
S'punk blues'
p2124
sI2123
S'sacred dance'
p2125
sI2124
S'oncology nursing'
p2126
sI2125
S'applied art'
p2127
sI2126
S'western movie'
p2128
sI2127
S'economics, sociology'
p2129
sI2128
S'zionism'
p2130
sI2129
S'general relativity'
p2131
sI2130
S'art punk'
p2132
sI2131
S'econ'
p2133
sI2132
S'music cognition'
p2134
sI2133
S'data mining'
p2135
sI2134
S'environmental history'
p2136
sI2135
S'big band'
p2137
sI2136
S'education technology'
p2138
sI2137
S'balafon'
p2139
sI2138
S'transverse flute'
p2140
sI2139
S'broken beat'
p2141
sI2140
S'alternating current'
p2142
sI2141
S'equestrianism'
p2143
sI2142
S'organizational studies'
p2144
sI2143
S'assyriology'
p2145
sI2144
S'baggy'
p2146
sI2145
S'ocean engineering'
p2147
sI2146
S'traffic engineering'
p2148
sI2147
S'whittling'
p2149
sI2148
S'political management'
p2150
sI2149
S'electro acoustic'
p2151
sI2150
S'tech news'
p2152
sI2151
S'international education'
p2153
sI2152
S'mbalax'
p2154
sI2153
S'communication arts'
p2155
sI2154
S'nutrition science'
p2156
sI2155
S'kantele'
p2157
sI2156
S'saz'
p2158
sI2157
S'fresco'
p2159
sI2158
S'chamber music'
p2160
sI2159
S'legal studies'
p2161
sI2160
S'naban'
p2162
sI2161
S'african studies'
p2163
sI2162
S'policy studies'
p2164
sI2163
S'boy band'
p2165
sI2164
S'art pop'
p2166
sI2165
S'contemporary ballet'
p2167
sI2166
S'german studies'
p2168
sI2167
S'environmental engineering'
p2169
sI2168
S'ceilidh'
p2170
sI2169
S'asian studies'
p2171
sI2170
S'cardiology'
p2172
sI2171
S'extreme poverty'
p2173
sI2172
S'information design'
p2174
sI2173
S'concept design'
p2175
sI2174
S'grid computing'
p2176
sI2175
S'brain teaser'
p2177
sI2176
S'discourse analysis'
p2178
sI2177
S'moral psychology'
p2179
sI2178
S'american civilization'
p2180
sI2179
S'tenor saxophone'
p2181
sI2180
S'comparative literature'
p2182
sI2181
S'ausdruckstanz'
p2183
sI2182
S'expressionist dance'
p2184
sI2183
S'indietronica'
p2185
sI2184
S'nuclear physics'
p2186
sI2185
S'noise rock'
p2187
sI2186
S'cuatro'
p2188
sI2187
S'classical latin'
p2189
sI2188
S'chacha'
p2190
sI2189
S'standards'
p2191
sI2190
S'sousaphone'
p2192
sI2191
S'afrobeat'
p2193
sI2192
S'grind'
p2194
sI2193
S'cpu'
p2195
sI2194
S'bock'
p2196
sI2195
S'medieval music'
p2197
sI2196
S'accordian'
p2198
sI2197
S'kombatan'
p2199
sI2198
S'physiological science'
p2200
sI2199
S'inorganic chemistry'
p2201
sI2200
S'pop punk'
p2202
sI2201
S'new romantic'
p2203
sI2202
S'guitar comedy'
p2204
sI2203
S'parlour music'
p2205
sI2204
S'bassline'
p2206
sI2205
S'cambo'
p2207
sI2206
S'tchoukball'
p2208
sI2207
S'freebord'
p2209
sI2208
S'victorian era'
p2210
sI2209
S'econometrics'
p2211
sI2210
S'alarm clock'
p2212
sI2211
S'arts administration'
p2213
sI2212
S'oud'
p2214
sI2213
S'kalarippayattu'
p2215
sI2214
S'environmental studies'
p2216
sI2215
S'infectious disease'
p2217
sI2216
S'sludge metal'
p2218
sI2217
S'euphonium'
p2219
sI2218
S'russki'
p2220
sI2219
S'social class'
p2221
sI2220
S'cryptography'
p2222
sI2221
S'transportation design'
p2223
sI2222
S'computer architecture'
p2224
sI2223
S'pragmatics'
p2225
sI2224
S'business finance'
p2226
sI2225
S'keytar'
p2227
sI2226
S'plena'
p2228
sI2227
S'marketing management'
p2229
sI2228
S'drum n bass'
p2230
sI2229
S'maya music'
p2231
sI2230
S'fantasy novel'
p2232
sI2231
S'gynecology'
p2233
sI2232
S'fue'
p2234
sI2233
S'developmental biology'
p2235
sI2234
S'supply chain'
p2236
sI2235
S'dependency theory'
p2237
sI2236
S'behavioural sciences'
p2238
sI2237
S'public law'
p2239
sI2238
S'ligature'
p2240
sI2239
S'xingyiquan'
p2241
sI2240
S'dice game'
p2242
sI2241
S'water resources'
p2243
sI2242
S'chinlone'
p2244
sI2243
S'aves'
p2245
sI2244
S'decima'
p2246
sI2245
S'eskrima'
p2247
sI2246
S'extreme ironing'
p2248
sI2247
S'crocker'
p2249
sI2248
S'space physics'
p2250
sI2249
S'jurisprudence'
p2251
sI2250
S'normative ethics'
p2252
sI2251
S'grec'
p2253
sI2252
S'interfaith'
p2254
sI2253
S'medieval literature'
p2255
sI2254
S'virtual reality'
p2256
sI2255
S'world game'
p2257
sI2256
S'modern rock'
p2258
sI2257
S'rope skipping'
p2259
sI2258
S'viennese waltz'
p2260
sI2259
S'bongo drum'
p2261
sI2260
S'afox\xc3\xa9'
p2262
sI2261
S'garage punk'
p2263
sI2262
S'physical cosmology'
p2264
sI2263
S'herpetology'
p2265
sI2264
S'general science'
p2266
sI2265
S'pan flute'
p2267
sI2266
S'foreign relations'
p2268
sI2267
S'wind machine'
p2269
sI2268
S'meat science'
p2270
sI2269
S'synth metal'
p2271
sI2270
S'power pop'
p2272
sI2271
S'telecommunications engineering'
p2273
sI2272
S'medical informatics'
p2274
sI2273
S'political realism'
p2275
sI2274
S'zither'
p2276
sI2275
S'japanese pop'
p2277
sI2276
S'dance mix'
p2278
sI2277
S'uptempo'
p2279
sI2278
S'book binding'
p2280
sI2279
S'quantum chemistry'
p2281
sI2280
S'sikaran'
p2282
sI2281
S'media studies'
p2283
sI2282
S'nonlocality'
p2284
sI2283
S'hot box'
p2285
sI2284
S'boules'
p2286
sI2285
S'latin metal'
p2287
sI2286
S'information engineering'
p2288
sI2287
S'general chemistry'
p2289
sI2288
S'audio production'
p2290
sI2289
S'soleares'
p2291
sI2290
S'ragga jungle'
p2292
sI2291
S'chande'
p2293
sI2292
S'bugle'
p2294
sI2293
S'african reggae'
p2295
sI2294
S'mozambique'
p2296
sI2295
S'salon music'
p2297
sI2296
S'cryptology'
p2298
sI2297
S'detroit techno'
p2299
sI2298
S'aviation engineering'
p2300
sI2299
S'buk'
p2301
sI2300
S'vovinam'
p2302
sI2301
S'self-organization'
p2303
sI2302
S'creole'
p2304
sI2303
S'ocean drum'
p2305
sI2304
S'movies collecting'
p2306
sI2305
S'cybernetics'
p2307
sI2306
S'systems engineering'
p2308
sI2307
S'background music'
p2309
sI2308
S'vocal harmony'
p2310
sI2309
S'vibraphone'
p2311
sI2310
S'freethought'
p2312
sI2311
S'jewish music'
p2313
sI2312
S'downtown music'
p2314
sI2313
S'chill out music'
p2315
sI2314
S'environmental geology'
p2316
sI2315
S'parranda'
p2317
sI2316
S'shukokai'
p2318
sI2317
S'sanskrit language'
p2319
sI2318
S'flugelhorn'
p2320
sI2319
S'jodo'
p2321
sI2320
S'record producer'
p2322
sI2321
S'applied science'
p2323
sI2322
S'gothic novel'
p2324
sI2323
S'clinical psychology'
p2325
sI2324
S'rock collecting'
p2326
sI2325
S'trip rock'
p2327
sI2326
S'biophysics'
p2328
sI2327
S'rock fran\xc3\xa7ais'
p2329
sI2328
S'professional writing'
p2330
sI2329
S'phylogenetics'
p2331
sI2330
S'russians'
p2332
sI2331
S'neurolinguistics'
p2333
sI2332
S'cornet'
p2334
sI2333
S'aerodynamics'
p2335
sI2334
S'microlending'
p2336
sI2335
S'axe throwing'
p2337
sI2336
S'experimental rock'
p2338
sI2337
S'chr'
p2339
sI2338
S'criminal justice'
p2340
sI2339
S'human genetics'
p2341
sI2340
S'baguazhang'
p2342
sI2341
S'category theory'
p2343
sI2342
S'human biology'
p2344
sI2343
S'group theory'
p2345
sI2344
S'evaluation'
p2346
sI2345
S'russian studies'
p2347
sI2346
S'chinese opera'
p2348
sI2347
S'image analysis'
p2349
sI2348
S'alternative dance'
p2350
sI2349
S'orchestral'
p2351
sI2350
S'digital electronics'
p2352
sI2351
S'melodica'
p2353
sI2352
S'buddhist studies'
p2354
sI2353
S'hymn'
p2355
sI2354
S'alto saxophone'
p2356
sI2355
S'kaval'
p2357
sI2356
S'mexican rock'
p2358
sI2357
S'nortec'
p2359
sI2358
S'dj music'
p2360
sI2359
S'turkish music'
p2361
sI2360
S'bandoneon'
p2362
sI2361
S'wildlife ecology'
p2363
sI2362
S'applied computing'
p2364
sI2363
S'dream house'
p2365
sI2364
S'lambada'
p2366
sI2365
S'applied mathematics'
p2367
sI2366
S'beadwork'
p2368
sI2367
S'baroque music'
p2369
sI2368
S'vexillology'
p2370
sI2369
S'model aircraft'
p2371
sI2370
S'duranguense'
p2372
sI2371
S'makossa'
p2373
sI2372
S'mbira'
p2374
sI2373
S'chicano studies'
p2375
sI2374
S'vocal improvisation'
p2376
sI2375
S'double dutch'
p2377
sI2376
S'hebrew language'
p2378
sI2377
S'electric folk'
p2379
sI2378
S'operations research'
p2380
sI2379
S'stoner metal'
p2381
sI2380
S'minimal house'
p2382
sI2381
S'ululation'
p2383
sI2382
S'embryology'
p2384
sI2383
S'electronic piano'
p2385
sI2384
S'hard dance'
p2386
sI2385
S'turkish language'
p2387
sI2386
S'lion dance'
p2388
sI2387
S'pipa'
p2389
sI2388
S'backyard astronomy'
p2390
sI2389
S'voluntary organizations'
p2391
sI2390
S'hobby farming'
p2392
sI2391
S'landscape ecology'
p2393
sI2392
S'rave music'
p2394
sI2393
S'cultural analytics'
p2395
sI2394
S'phonology'
p2396
sI2395
S'krautrock'
p2397
sI2396
S'bandurria'
p2398
sI2397
S'italo disco'
p2399
sI2398
S'japanese literature'
p2400
sI2399
S'portugu\xc3\xaas'
p2401
sI2400
S'future jazz'
p2402
sI2401
S'beat music'
p2403
sI2402
S'electric violin'
p2404
sI2403
S'foxtrot'
p2405
sI2404
S'string instruments'
p2406
sI2405
S'candombe'
p2407
sI2406
S'pediatrics'
p2408
sI2407
S'information architecture'
p2409
sI2408
S'praxeology'
p2410
sI2409
S'inline hockey'
p2411
sI2410
S'electronic drum'
p2412
sI2411
S'electropop'
p2413
sI2412
S'french house'
p2414
sI2413
S'seggae'
p2415
sI2414
S'greco'
p2416
sI2415
S'thermodynamics'
p2417
sI2416
S'dramaturgy'
p2418
sI2417
S'repetitive music'
p2419
sI2418
S'sakara music'
p2420
sI2419
S'agricultural engineering'
p2421
sI2420
S'daf'
p2422
sI2421
S'finnish tango'
p2423
sI2422
S'french rock'
p2424
sI2423
S'financial management'
p2425
sI2424
S'geoinformatics'
p2426
sI2425
S'alto flute'
p2427
sI2426
S'pop funk'
p2428
sI2427
S'fidget'
p2429
sI2428
S'international finance'
p2430
sI2429
S'general management'
p2431
sI2430
S'health services'
p2432
sI2431
S'kuduro'
p2433
sI2432
S'semba'
p2434
sI2433
S'pub rock'
p2435
sI2434
S'tanbur'
p2436
sI2435
S'remix'
p2437
sI2436
S'platformer'
p2438
sI2437
S'mrdanga'
p2439
sI2438
S'kenpo'
p2440
sI2439
S'hurban'
p2441
sI2440
S'pianoforte'
p2442
sI2441
S'kenjutsu'
p2443
sI2442
S'semiclassical'
p2444
sI2443
S'boha'
p2445
sI2444
S'kundi'
p2446
sI2445
S'combat sport'
p2447
sI2446
S'topology'
p2448
sI2447
S'shot put'
p2449
sI2448
S'advert'
p2450
sI2449
S'structural biology'
p2451
sI2450
S'italian rock'
p2452
sI2451
S'political game'
p2453
sI2452
S'suizen'
p2454
sI2453
S'technical sciences'
p2455
sI2454
S'naval architecture'
p2456
sI2455
S'structural engineering'
p2457
sI2456
S'other percussion'
p2458
sI2457
S'cinema studies'
p2459
sI2458
S'jewish studies'
p2460
sI2459
S'speed badminton'
p2461
sI2460
S'church history'
p2462
sI2461
S'human resources'
p2463
sI2462
S'fantasy fiction'
p2464
sI2463
S'microfinancing'
p2465
sI2464
S'art song'
p2466
sI2465
S'cosmetology'
p2467
sI2466
S'smooth jazz'
p2468
sI2467
S'treble recorder'
p2469
sI2468
S'business news'
p2470
sI2469
S'computer studies'
p2471
sI2470
S'chuk'
p2472
sI2471
S'mathematical chemistry'
p2473
sI2472
S'nu jazz'
p2474
sI2473
S'stav'
p2475
sI2474
S'crm'
p2476
sI2475
S'monkey stick'
p2477
sI2476
S'renaissance music'
p2478
sI2477
S'scottish literature'
p2479
sI2478
S'creative studies'
p2480
sI2479
S'normative theory'
p2481
sI2480
S'design pattern'
p2482
sI2481
S'pop soul'
p2483
sI2482
S'careers'
p2484
sI2483
S'alternative country'
p2485
sI2484
S'veena'
p2486
sI2485
S'scale model'
p2487
sI2486
S'college rock'
p2488
sI2487
S'rap metal'
p2489
sI2488
S'canci\xc3\xb3n'
p2490
sI2489
S'shakuhachi'
p2491
sI2490
S'underwater archaeology'
p2492
sI2491
S'business history'
p2493
sI2492
S'hobby game'
p2494
sI2493
S'industrial technology'
p2495
sI2494
S'greyhound racing'
p2496
sI2495
S'marvel comics'
p2497
sI2496
S'street game'
p2498
sI2497
S'sufi rock'
p2499
sI2498
S'crossover'
p2500
sI2499
S'shagur'
p2501
sI2500
S'shock rock'
p2502
sI2501
S'ney'
p2503
sI2502
S'disco polo'
p2504
sI2503
S'riot grrrl'
p2505
sI2504
S'spamming'
p2506
sI2505
S'software programmer'
p2507
sI2506
S'wood chopping'
p2508
sI2507
S'celtic punk'
p2509
sI2508
S'dark ambient'
p2510
sI2509
S'neofolk'
p2511
sI2510
S'lied'
p2512
sI2511
S'metalcore'
p2513
sI2512
S'kyudo'
p2514
sI2513
S'medical research'
p2515
sI2514
S'talking blues'
p2516
sI2515
S'steeplechase'
p2517
sI2516
S'association football'
p2518
sI2517
S'dog agility'
p2519
sI2518
S'general surgery'
p2520
sI2519
S'gaelic music'
p2521
sI2520
S'surgeon'
p2522
sI2521
S'old salsa'
p2523
sI2522
S'serpent'
p2524
sI2523
S'timpani'
p2525
sI2524
S'complex analysis'
p2526
sI2525
S'engineering science'
p2527
sI2526
S'uilleann pipes'
p2528
sI2527
S'banjo guitar'
p2529
sI2528
S'jesus music'
p2530
sI2529
S'latin american history'
p2531
sI2530
S'economic geology'
p2532
sI2531
S'koto'
p2533
sI2532
S'managment'
p2534
sI2533
S'gothic music'
p2535
sI2534
S'sacred music'
p2536
sI2535
S'supercomputer'
p2537
sI2536
S'math rock'
p2538
sI2537
S'vt'
p2539
sI2538
S'analytic philosophy'
p2540
sI2539
S'gerontology'
p2541
sI2540
S'portuguese language'
p2542
sI2541
S'parody'
p2543
sI2542
S'2 tone'
p2544
sI2543
S'electroclash'
p2545
sI2544
S'garage rock'
p2546
sI2545
S'bicycle racing'
p2547
sI2546
S'folk metal'
p2548
sI2547
S'business communications'
p2549
sI2548
S'indian fusion'
p2550
sI2549
S'italian opera'
p2551
sI2550
S'keyboard instruments'
p2552
sI2551
S'gypsy jazz'
p2553
sI2552
S'german rock'
p2554
sI2553
S'roots rock'
p2555
sI2554
S'chiptune'
p2556
sI2555
S'sneakerhead'
p2557
sI2556
S'photochemistry'
p2558
sI2557
S'naturopathic medicine'
p2559
sI2558
S'nose flute'
p2560
sI2559
S'brand management'
p2561
sI2560
S'retail management'
p2562
sI2561
S'letter game'
p2563
sI2562
S'bicycle collecting'
p2564
sI2563
S'slow jam'
p2565
sI2564
S'local knowledge'
p2566
sI2565
S'biology/immunology'
p2567
sI2566
S'rebec'
p2568
sI2567
S'limbo'
p2569
sI2568
S'business administration'
p2570
sI2569
S'xaphoon'
p2571
sI2570
S'mystery novel'
p2572
sI2571
S'dermatology'
p2573
sI2572
S'medical ethics'
p2574
sI2573
S'fan club'
p2575
sI2574
S'evolutionary systematics'
p2576
sI2575
S'soukous'
p2577
sI2576
S'lock picking'
p2578
sI2577
S'dietetics'
p2579
sI2578
S'fender stratocaster'
p2580
sI2579
S'classic punk'
p2581
sI2580
S'arkan'
p2582
sI2581
S'knowledge management'
p2583
sI2582
S'publication'
p2584
sI2583
S'boccia'
p2585
sI2584
S'bokator'
p2586
sI2585
S'paleobiology'
p2587
sI2586
S'conch'
p2588
sI2587
S'water organ'
p2589
sI2588
S'medical physics'
p2590
sI2589
S'target practice'
p2591
sI2590
S'free funk'
p2592
sI2591
S'rope climbing'
p2593
sI2592
S'fiddlesticks'
p2594
sI2593
S'comedy rock'
p2595
sI2594
S'contemporary jazz'
p2596
sI2595
S'piano rock'
p2597
sI2596
S't\xc3\xbcrkisch'
p2598
sI2597
S'dirty south'
p2599
sI2598
S'funky breaks'
p2600
sI2599
S'aggressive inline skating'
p2601
sI2600
S'string instrument'
p2602
sI2601
S'latin house'
p2603
sI2602
S'interdisciplinary studies'
p2604
sI2603
S'ecommerce'
p2605
sI2604
S'lituus'
p2606
sI2605
S'morsing'
p2607
sI2606
S'power metal'
p2608
sI2607
S'vocal jazz'
p2609
sI2608
S'pop rap'
p2610
sI2609
S'medical genetics'
p2611
sI2610
S'personal computers'
p2612
sI2611
S'caribbean literature'
p2613
sI2612
S'ethnic studies'
p2614
sI2613
S'jousting'
p2615
sI2614
S'riddim'
p2616
sI2615
S'skeleton'
p2617
sI2616
S'downhill cycling'
p2618
sI2617
S'chemistry & biochemistry'
p2619
sI2618
S'madrigal'
p2620
sI2619
S'gothic metal'
p2621
sI2620
S'high fantasy'
p2622
sI2621
S'mountain unicycling'
p2623
sI2622
S'electrogoth'
p2624
sI2623
S'knife throwing'
p2625
sI2624
S'semantic web'
p2626
sI2625
S'suka'
p2627
sI2626
S'militaria'
p2628
sI2627
S'cavaquinho'
p2629
sI2628
S'turki'
p2630
sI2629
S'austin, texas'
p2631
sI2630
S'haidong gumdo'
p2632
sI2631
S'kora'
p2633
sI2632
S'operating system'
p2634
sI2633
S'yuka'
p2635
sI2634
S'weissenborn'
p2636
sI2635
S'euro-trance'
p2637
sI2636
S'medical sociology'
p2638
sI2637
S'steeldrum'
p2639
sI2638
S'oncology'
p2640
sI2639
S'social technology'
p2641
sI2640
S'electronics engineering'
p2642
sI2641
S'pharmaceuticals'
p2643
sI2642
S'duduk'
p2644
sI2643
S'virology'
p2645
sI2644
S'punk jazz'
p2646
sI2645
S'shaker'
p2647
sI2646
S'tenor drum'
p2648
sI2647
S'studio art'
p2649
sI2648
S'critical psychology'
p2650
sI2649
S'plant physiology'
p2651
sI2650
S'hip hop dance'
p2652
sI2651
S'dutch language'
p2653
sI2652
S'health sciences'
p2654
sI2653
S'gemology'
p2655
sI2654
S'blue beat'
p2656
sI2655
S'tamburello'
p2657
sI2656
S'soul rock'
p2658
sI2657
S'berimbau'
p2659
sI2658
S'wireless network'
p2660
sI2659
S'tomoi'
p2661
sI2660
S'gandingan'
p2662
sI2661
S'computational neuroscience'
p2663
sI2662
S'military science'
p2664
sI2663
S'indiepop'
p2665
sI2664
S'hornpipe'
p2666
sI2665
S'communication sciences'
p2667
sI2666
S'classical acting'
p2668
sI2667
S'experimental medicine'
p2669
sI2668
S'digital filmmaking'
p2670
sI2669
S'oriental languages'
p2671
sI2670
S'jam rock'
p2672
sI2671
S'application software'
p2673
sI2672
S'geographic medicine'
p2674
sI2673
S'washboard'
p2675
sI2674
S'padel tennis'
p2676
sI2675
S'sepak takraw'
p2677
sI2676
S'mouth organ'
p2678
sI2677
S'lisp'
p2679
sI2678
S'tibetan music'
p2680
sI2679
S'meta-ethics'
p2681
sI2680
S'ivrit'
p2682
sI2681
S'italian jazz'
p2683
sI2682
S'ssireum'
p2684
sI2683
S'acoustic rock'
p2685
sI2684
S'systems biology'
p2686
sI2685
S'flying trapeze'
p2687
sI2686
S'emo violence'
p2688
sI2687
S'screamo'
p2689
sI2688
S'russian pop'
p2690
sI2689
S'medical anthropology'
p2691
sI2690
S'humppa'
p2692
sI2691
S'modern pentathlon'
p2693
sI2692
S'electric piano'
p2694
sI2693
S'soprano saxophone'
p2695
sI2694
S'kumdo'
p2696
sI2695
S'freestyle bmx'
p2697
sI2696
S'handbells'
p2698
sI2697
S'agricultural economics'
p2699
sI2698
S'production engineering'
p2700
sI2699
S'internal medicine'
p2701
sI2700
S'business studies'
p2702
sI2701
S'legal history'
p2703
sI2702
S'digital synthesizer'
p2704
sI2703
S'post-apocalypse'
p2705
sI2704
S'diva house'
p2706
sI2705
S'piri'
p2707
sI2706
S'avantgarde music'
p2708
sI2707
S'microkorg'
p2709
sI2708
S'evolutionary ecology'
p2710
sI2709
S"women's studies"
p2711
sI2710
S'broadcast journalism'
p2712
sI2711
S'general education'
p2713
sI2712
S'vietnamese language'
p2714
sI2713
S'nuclear chemistry'
p2715
sI2714
S'geobiology'
p2716
sI2715
S'nutritional sciences'
p2717
sI2716
S'flatland bmx'
p2718
sI2717
S'sho'
p2719
sI2718
S'storm chasing'
p2720
sI2719
S'drum programming'
p2721
sI2720
S'computational creativity'
p2722
sI2721
S'document design'
p2723
sI2722
S'latin american studies'
p2724
sI2723
S'uv astronomy'
p2725
sI2724
S'bass trumpet'
p2726
sI2725
S'frontenis'
p2727
sI2726
S'podcasting'
p2728
sI2727
S'slide guitar'
p2729
sI2728
S'golden state'
p2730
sI2729
S'print journalism'
p2731
sI2730
S'tropical medicine'
p2732
sI2731
S'danzon'
p2733
sI2732
S'high german'
p2734
sI2733
S'kwela'
p2735
sI2734
S'lur'
p2736
sI2735
S'tech trance'
p2737
sI2736
S'urban anthropology'
p2738
sI2737
S'mainland china'
p2739
sI2738
S'kankl\xc4\x97s'
p2740
sI2739
S'murder mystery'
p2741
sI2740
S'nyckelharpa'
p2742
sI2741
S'renaissance dance'
p2743
sI2742
S'shawm'
p2744
sI2743
S'jingle'
p2745
sI2744
S'jitterbug'
p2746
sI2745
S'instrumental rock'
p2747
sI2746
S'computational design'
p2748
sI2747
S'communications management'
p2749
sI2748
S'clinical medicine'
p2750
sI2749
S'new pop'
p2751
sI2750
S'gatka'
p2752
sI2751
S'group sounds'
p2753
sI2752
S'general studies'
p2754
sI2753
S'norwegian rock'
p2755
sI2754
S'water basketball'
p2756
sI2755
S'clapping game'
p2757
sI2756
S'big beat'
p2758
sI2757
S'high jump'
p2759
sI2758
S'jug band'
p2760
sI2759
S'sinology'
p2761
sI2760
S'plant pathology'
p2762
sI2761
S'genomics'
p2763
sI2762
S'pachanga'
p2764
sI2763
S'street punk'
p2765
sI2764
S'nuevo tango'
p2766
sI2765
S'organization development'
p2767
sI2766
S'show tune'
p2768
sI2767
S'fluid mechanics'
p2769
sI2768
S'thai rock'
p2770
sI2769
S'austrian music'
p2771
sI2770
S'gouren'
p2772
sI2771
S'preventive medicine'
p2773
sI2772
S'maxixe'
p2774
sI2773
S'database design'
p2775
sI2774
S'dhol'
p2776
sI2775
S'hardcore techno'
p2777
sI2776
S'graph theory'
p2778
sI2777
S'systematics'
p2779
sI2778
S'machete'
p2780
sI2779
S'gothic rock'
p2781
sI2780
S'block flute'
p2782
sI2781
S'crotales'
p2783
sI2782
S'chess boxing'
p2784
sI2783
S'industrial metal'
p2785
sI2784
S'doumbek'
p2786
sI2785
S'decathlon'
p2787
sI2786
S'digital marketing'
p2788
sI2787
S'immigration law'
p2789
sI2788
S'drum solo'
p2790
sI2789
S'filmi pop'
p2791
sI2790
S'american war'
p2792
sI2791
S'kempul'
p2793
sI2792
S'information integration'
p2794
sI2793
S'ss'
p2795
sI2794
S'funk carioca'
p2796
sI2795
S'olfaction'
p2797
sI2796
S'honky tonk'
p2798
sI2797
S'industrial engineering'
p2799
sI2798
S'international management'
p2800
sI2799
S'free improvisation'
p2801
sI2800
S'uplifting trance'
p2802
sI2801
S'other flutes'
p2803
sI2802
S'agricultural science'
p2804
sI2803
S'chicago house'
p2805
sI2804
S'korean drum'
p2806
sI2805
S'rattlesnake'
p2807
sI2806
S'regional planning'
p2808
sI2807
S'sonny'
p2809
sI2808
S'bass pedals'
p2810
sI2809
S'professional boxing'
p2811
sI2810
S'bodhr\xc3\xa1n'
p2812
sI2811
S'organized crime'
p2813
sI2812
S'claves'
p2814
sI2813
S'tenpin bowling'
p2815
sI2814
S'urban acupuncture'
p2816
sI2815
S'biomedical research'
p2817
sI2816
S'complex system'
p2818
sI2817
S'ixd'
p2819
sI2818
S'ux'
p2820
sI2819
S'intellectual history'
p2821
sI2820
S'information theory'
p2822
sI2821
S'tranverse flute'
p2823
sI2822
S'environmental biology'
p2824
sI2823
S'anthology'
p2825
sI2824
S'woodwind'
p2826
sI2825
S'skacore'
p2827
sI2826
S'chemistry;mathematics'
p2828
sI2827
S'gaita'
p2829
sI2828
S'mathematical statistics'
p2830
sI2829
S'statistical physics'
p2831
sI2830
S'mathematical astronomy'
p2832
sI2831
S'biniou'
p2833
sI2832
S'bombard'
p2834
sI2833
S'surdo'
p2835
sI2834
S'hammered dulcimer'
p2836
sI2835
S'classic hits'
p2837
sI2836
S'los che'
p2838
sI2837
S'plant collecting'
p2839
sI2838
S'lead guitar'
p2840
sI2839
S'woodwind quintet'
p2841
sI2840
S'electronic rap'
p2842
sI2841
S'taiwanese pop'
p2843
sI2842
S'radio special'
p2844
sI2843
S'scientific visualization'
p2845
sI2844
S'keyboard controller'
p2846
sI2845
S'forest ecology'
p2847
sI2846
S'krav'
p2848
sI2847
S'pre medicine'
p2849
sI2848
S'organetto'
p2850
sI2849
S'hydraulis'
p2851
sI2850
S'udu'
p2852
sI2851
S'competitive eating'
p2853
sI2852
S'environmental planning'
p2854
sI2853
S'hulusi'
p2855
sI2854
S'wind instrument'
p2856
sI2855
S'tropicalismo'
p2857
sI2856
S'security studies'
p2858
sI2857
S'deep funk'
p2859
sI2858
S'crustacean'
p2860
sI2859
S'vietnam war'
p2861
sI2860
S'guqin'
p2862
sI2861
S'still photographer'
p2863
sI2862
S'indology'
p2864
sI2863
S'seishinkai'
p2865
sI2864
S'casiotone'
p2866
sI2865
S'\xe6\x97\xa5\xe6\x9c\xac\xe8\xaa\x9e'
p2867
sI2866
S'irish flute'
p2868
sI2867
S'alto clarinet'
p2869
sI2868
S'cardiovascular systems'
p2870
sI2869
S'car game'
p2871
sI2870
S'valencia cf'
p2872
sI2871
S'township music'
p2873
sI2872
S'combatives'
p2874
sI2873
S'international security'
p2875
sI2874
S'defendo'
p2876
sI2875
S'qa engineering'
p2877
sI2876
S'antisemitism'
p2878
sI2877
S'surf punk'
p2879
sI2878
S'nagara'
p2880
sI2879
S'greek rock'
p2881
sI2880
S'milonga'
p2882
sI2881
S'aerospace engineering'
p2883
sI2882
S'argentine rock'
p2884
sI2883
S'race walking'
p2885
sI2884
S'ubiquitous computing'
p2886
sI2885
S'cuban rumba'
p2887
sI2886
S'automobile racing'
p2888
sI2887
S'european studies'
p2889
sI2888
S'tonette'
p2890
sI2889
S'japanese hardcore'
p2891
sI2890
S'percussion instrument'
p2892
sI2891
S'cx'
p2893
sI2892
S'horror novel'
p2894
sI2893
S'long jump'
p2895
sI2894
S'urban contemporary'
p2896
sI2895
S'storytelling game'
p2897
sI2896
S'koras'
p2898
sI2897
S'mathematical logic'
p2899
sI2898
S'economics, mathematics'
p2900
sI2899
S'technical management'
p2901
sI2900
S'cellular biology'
p2902
sI2901
S'development sociology'
p2903
sI2902
S'systematic theology'
p2904
sI2903
S'parody music'
p2905
sI2904
S'mathematical education'
p2906
sI2905
S'area studies'
p2907
sI2906
S'west indies'
p2908
sI2907
S'alegrias'
p2909
sI2908
S'secondary education'
p2910
sI2909
S'podiatry'
p2911
sI2910
S'mathematical biology'
p2912
sI2911
S'sportfishing'
p2913
sI2912
S'melodeon'
p2914
sI2913
S'classic salsa'
p2915
sI2914
S'rn'
p2916
sI2915
S'street piano'
p2917
sI2916
S'chacarera'
p2918
sI2917
S'brazilian jazz'
p2919
sI2918
S'system analysis'
p2920
sI2919
S'steel guitar'
p2921
sI2920
S'vaccination'
p2922
sI2921
S'welfare state'
p2923
sI2922
S'thumb piano'
p2924
sI2923
S'ra\xc3\xaf'
p2925
sI2924
S'epigenetics'
p2926
sI2925
S'computational statistics'
p2927
sI2926
S'goje'
p2928
sI2927
S'radiology'
p2929
sI2928
S'mongolian wrestling'
p2930
sI2929
S'fingerstyle guitar'
p2931
sI2930
S'neoclassicism'
p2932
sI2931
S'melodic music'
p2933
sI2932
S'sambo'
p2934
sI2933
S'oneirology'
p2935
sI2934
S'red dirt'
p2936
sI2935
S'e-marketing'
p2937
sI2936
S'model rocket'
p2938
sI2937
S'danger music'
p2939
sI2938
S'czech studies'
p2940
sI2939
S'finance management'
p2941
sI2940
S'contemporary country'
p2942
sI2941
S'bendir'
p2943
sI2942
S'classick rock'
p2944
sI2943
S'investigative journalism'
p2945
sI2944
S'general engineering'
p2946
sI2945
S'biblical studies'
p2947
sI2946
S'digital hardcore'
p2948
sI2947
S'mineral collecting'
p2949
sI2948
S'aircraft spotting'
p2950
sI2949
S'aqua aerobics'
p2951
sI2950
S'applied physics'
p2952
sI2951
S'tai chi chuan'
p2953
sI2952
S'union pipes'
p2954
sI2953
S'developmental linguistics'
p2955
sI2954
S'geography / meteorology'
p2956
sI2955
S'qawwali'
p2957
sI2956
S'toy piano'
p2958
sI2957
S'pentathlon'
p2959
sI2958
S'canso'
p2960
sI2959
S'eurogame'
p2961
sI2960
S'glam metal'
p2962
sI2961
S'ehealth'
p2963
sI2962
S'textile technology'
p2964
sI2963
S'hematology'
p2965
sI2964
S'control engineering'
p2966
sI2965
S'gaida'
p2967
sI2966
S'miniten'
p2968
sI2967
S'symphonic rock'
p2969
sI2968
S'geological engineering'
p2970
sI2969
S'snare drum'
p2971
sI2970
S'striptease'
p2972
sI2971
S'southern rock'
p2973
sI2972
S'home economics'
p2974
sI2973
S'calypso music'
p2975
sI2974
S'industrial economics'
p2976
sI2975
S'country gospel'
p2977
sI2976
S'cancion'
p2978
sI2977
S'holiday music'
p2979
sI2978
S"00's"
p2980
sI2979
S'fourth world'
p2981
sI2980
S'sanshin'
p2982
sI2981
S'acid techno'
p2983
sI2982
S'dental surgery'
p2984
sI2983
S'bounce music'
p2985
sI2984
S'group processes'
p2986
sI2985
S'worship music'
p2987
sI2986
S'metamorphic'
p2988
sI2987
S'petrology'
p2989
sI2988
S'timbales'
p2990
sI2989
S'medieval dance'
p2991
sI2990
S'new beat'
p2992
sI2991
S'tuned percussion'
p2993
sI2992
S'fishing game'
p2994
sI2993
S'sarangi'
p2995
sI2994
S'jump blues'
p2996
sI2995
S'blues ballad'
p2997
sI2996
S'audio blogs'
p2998
sI2997
S'pantalon'
p2999
sI2998
S'rumba flamenca'
p3000
sI2999
S'rapper sword'
p3001
sI3000
S'sword dance'
p3002
sI3001
S'catch wrestling'
p3003
sI3002
S"punk 'n' roll"
p3004
sI3003
S'formal logic'
p3005
sI3004
S'fortepiano'
p3006
sI3005
S'calva'
p3007
sI3006
S'electronic technology'
p3008
sI3007
S'equestrian vaulting'
p3009
sI3008
S'castanet'
p3010
sI3009
S'alt-country'
p3011
sI3010
S'trap shooting'
p3012
sI3011
S'digital piano'
p3013
sI3012
S'freestyle music'
p3014
sI3013
S'pan pipe'
p3015
sI3014
S'mathmatics'
p3016
sI3015
S'production management'
p3017
sI3016
S'sports radio'
p3018
sI3017
S'dobro'
p3019
sI3018
S'electricity generation'
p3020
sI3019
S'rock and roll'
p3021
sI3020
S'physician assistant'
p3022
sI3021
S'web engineering'
p3023
sI3022
S'russ'
p3024
sI3023
S'information retrieval'
p3025
sI3024
S'classical percussion'
p3026
sI3025
S'volksmusik'
p3027
sI3026
S'taido'
p3028
sI3027
S'technology management'
p3029
sI3028
S'afro pop'
p3030
sI3029
S'international marketing'
p3031
sI3030
S'operations management'
p3032
sI3031
S'arp 2600'
p3033
sI3032
S'transportation engineering'
p3034
sI3033
S'irish bouzouki'
p3035
sI3034
S'post-grunge'
p3036
sI3035
S'powerboating'
p3037
sI3036
S'noise pop'
p3038
sI3037
S'boxe fran\xc3\xa7aise'
p3039
sI3038
S'atonal music'
p3040
sI3039
S'web science'
p3041
sI3040
S'cumbus'
p3042
sI3041
S'geochemistry'
p3043
sI3042
S'acoustical engineering'
p3044
sI3043
S'international folk dance'
p3045
sI3044
S'acid house'
p3046
sI3045
S'battojutsu'
p3047
sI3046
S'iaijutsu'
p3048
sI3047
S'naginata'
p3049
sI3048
S'katsa'
p3050
sI3049
S'anarcho-punk'
p3051
sI3050
S'organ transplant'
p3052
sI3051
S'were music'
p3053
sI3052
S'carnatic music'
p3054
sI3053
S'futuribles'
p3055
sI3054
S'foresight'
p3056
sI3055
S'food industry'
p3057
sI3056
S'war crime'
p3058
sI3057
S'chorinho'
p3059
sI3058
S'dixieland'
p3060
sI3059
S'uk garage'
p3061
sI3060
S'girl group'
p3062
sI3061
S'folkcore'
p3063
sI3062
S't\xc3\xbcrk\xc3\xa7e'
p3064
sI3063
S'business admin.'
p3065
sI3064
S'praise song'
p3066
sI3065
S'finacial analysis'
p3067
sI3066
S'scat singing'
p3068
sI3067
S'romaic'
p3069
sI3068
S'morna'
p3070
sI3069
S'dombra'
p3071
sI3070
S'eai'
p3072
sI3071
S'motion picture'
p3073
sI3072
S'cumbia rock'
p3074
sI3073
S'slide whistle'
p3075
sI3074
S'cooperative game'
p3076
sI3075
S'jing'
p3077
sI3076
S'music hall'
p3078
sI3077
S'cancer biology'
p3079
sI3078
S'breaking news'
p3080
sI3079
S'string bass'
p3081
sI3080
S'bass saxophone'
p3082
sI3081
S'data visualization'
p3083
sI3082
S'social planning'
p3084
sI3083
S'medical engineering'
p3085
sI3084
S'wood block'
p3086
sI3085
S'modernization'
p3087
sI3086
S'danso'
p3088
sI3087
S'nu rave'
p3089
sI3088
S'modern hebrew'
p3090
sI3089
S'ragtime'
p3091
sI3090
S'special functions'
p3092
sI3091
S'financial services'
p3093
sI3092
S'talking drum'
p3094
sI3093
S'new flamenco'
p3095
sI3094
S'chalga'
p3096
sI3095
S'space rock'
p3097
sI3096
S'golf fitness'
p3098
sI3097
S'managerial economics'
p3099
sI3098
S'chicken scratch'
p3100
sI3099
S'port engineering'
p3101
sI3100
S'guarania'
p3102
sI3101
S'knowledge discovery'
p3103
sI3102
S'temple dance'
p3104
sI3103
S'ulla'
p3105
sI3104
S'performance studies'
p3106
sI3105
S'agribusiness'
p3107
sI3106
S'search marketing'
p3108
sI3107
S'audio technology'
p3109
sI3108
S'kakaki'
p3110
sI3109
S'spoof'
p3111
sI3110
S'hurdling'
p3112
sI3111
S'samba funk'
p3113
sI3112
S'basic medicine'
p3114
sI3113
S'nuclear engineering'
p3115
sI3114
S'coal mining'
p3116
sI3115
S'bobsledding'
p3117
sI3116
S'guban'
p3118
sI3117
S'engineering sciences'
p3119
sI3118
S'music sequencer'
p3120
sI3119
S'kud\xc3\xbcm'
p3121
sI3120
S'wallyball'
p3122
sI3121
S'\xd8\xa7\xd9\x84\xd9\x84\xd8\xba\xd8\xa9 \xd8\xa7\xd9\x84\xd8\xb9\xd8\xb1\xd8\xa8\xd9\x8a\xd8\xa9'
p3123
sI3122
S'guaracha'
p3124
sI3123
S'counseling psychology'
p3125
sI3124
S'tetherball'
p3126
sI3125
S'zooarchaeology'
p3127
sI3126
S'freak folk'
p3128
sI3127
S'new rave'
p3129
sI3128
S'stabule'
p3130
sI3129
S'chinese studies'
p3131
sI3130
S'cyberpunk music'
p3132
sI3131
S'rare groove'
p3133
sI3132
S'kabaddi'
p3134
sI3133
S'bandura'
p3135
sI3134
S'ballo'
p3136
sI3135
S'book burning'
p3137
sI3136
S'punjabi dances'
p3138
sI3137
S'drone music'
p3139
sI3138
S'piano blues'
p3140
sI3139
S'mountain bike racing'
p3141
sI3140
S'kus'
p3142
sI3141
S'systems science'
p3143
sI3142
S'electrical science'
p3144
sI3143
S'finswimming'
p3145
sI3144
S'greek literature'
p3146
sI3145
S'abstract photography'
p3147
sI3146
S'biomedical sciences'
p3148
sI3147
S'fullon'
p3149
sI3148
S'neo soul'
p3150
sI3149
S'biostatistics'
p3151
sI3150
S'ethnohistory'
p3152
sI3151
S'funk metal'
p3153
sI3152
S'fluid dynamics'
p3154
sI3153
S'hardtechno'
p3155
sI3154
S'cakewalk'
p3156
sI3155
S'japanology'
p3157
sI3156
S'biological chemistry'
p3158
sI3157
S'nintendocore'
p3159
sI3158
S'dark psytrance'
p3160
sI3159
S'piatti'
p3161
sI3160
S'tricordia'
p3162
sI3161
S'hung gar'
p3163
sI3162
S'bmx racing'
p3164
sI3163
S'domra'
p3165
sI3164
S'sacred harp'
p3166
sI3165
S'angampora'
p3167
sI3166
S'yiquan'
p3168
sI3167
S'cuica'
p3169
sI3168
S'health physics'
p3170
sI3169
S'castilian'
p3171
sI3170
S'slipknot'
p3172
sI3171
S'glass harmonica'
p3173
sI3172
S'american handball'
p3174
sI3173
S'speedrock'
p3175
sI3174
S'skate punk'
p3176
sI3175
S'gregorian chant'
p3177
sI3176
S'electric mandolin'
p3178
sI3177
S'portative organ'
p3179
sI3178
S'oina'
p3180
sI3179
S'kali sikaran'
p3181
sI3180
S'human\xe2\x80\x93computer interaction'
p3182
sI3181
S'underground rap'
p3183
sI3182
S'hindu music'
p3184
sI3183
S'enterprise software'
p3185
sI3184
S'merengue music'
p3186
sI3185
S'engineering management'
p3187
sI3186
S'ngoni'
p3188
sI3187
S'swingball'
p3189
sI3188
S'lirone'
p3190
sI3189
S'obscuro'
p3191
sI3190
S'furniture music'
p3192
sI3191
S'chicago blues'
p3193
sI3192
S'continuum mechanics'
p3194
sI3193
S'ektara'
p3195
sI3194
S'industrial techno'
p3196
sI3195
S'pure mathematics'
p3197
sI3196
S'sci-fi music'
p3198
sI3197
S'docudrama'
p3199
sI3198
S'electric blues'
p3200
sI3199
S'dhrupad'
p3201
sI3200
S'dansk'
p3202
sI3201
S'process control'
p3203
sI3202
S'technical writing'
p3204
sI3203
S'urban running'
p3205
sI3204
S'abstract algebra'
p3206
sI3205
S'pump organ'
p3207
sI3206
S'pin shooting'
p3208
sI3207
S'vale tudo'
p3209
sI3208
S'cognitive synonymy'
p3210
sI3209
S'occupational health'
p3211
sI3210
S"women's history"
p3212
sI3211
S'power electronics'
p3213
sI3212
S'conscious hip hop'
p3214
sI3213
S'cueca'
p3215
sI3214
S'organology'
p3216
sI3215
S'mellophone'
p3217
sI3216
S'hospitality management'
p3218
sI3217
S'contra bass'
p3219
sI3218
S'yacht racing'
p3220
sI3219
S'political hip hop'
p3221
sI3220
S'limnology'
p3222
sI3221
S'construction engineering'
p3223
sI3222
S'atmospheric sciences'
p3224
sI3223
S'firebird'
p3225
sI3224
S'water volleyball'
p3226
sI3225
S'brake house'
p3227
sI3226
S'castillian'
p3228
sI3227
S'farfisa'
p3229
sI3228
S'toxicology'
p3230
sI3229
S'chromatic harmonica'
p3231
sI3230
S'biochemical engineering'
p3232
sI3231
S'gongs'
p3233
sI3232
S'famo'
p3234
sI3233
S'birdfeeding'
p3235
sI3234
S'labour law'
p3236
sI3235
S'yiddish language'
p3237
sI3236
S'neoclassical'
p3238
sI3237
S'kanun'
p3239
sI3238
S'marine engineering'
p3240
sI3239
S'engineering drawing'
p3241
sI3240
S'hypersensitivity'
p3242
sI3241
S'design management'
p3243
sI3242
S'scurfing'
p3244
sI3243
S'trash rock'
p3245
sI3244
S'future bass'
p3246
sI3245
S'surrealist game'
p3247
sI3246
S'gwo ka'
p3248
sI3247
S'tenor violin'
p3249
sI3248
S'harmonica blues'
p3250
sI3249
S'camogie'
p3251
sI3250
S'shoot wrestling'
p3252
sI3251
S'anarchist gardener'
p3253
sI3252
S'true metal'
p3254
sI3253
S'classic metal'
p3255
sI3254
S'british opera'
p3256
sI3255
S'avionics'
p3257
sI3256
S'american government'
p3258
sI3257
S'pankration'
p3259
sI3258
S'maloya'
p3260
sI3259
S'british invasion'
p3261
sI3260
S'delta blues'
p3262
sI3261
S'chamber pop'
p3263
sI3262
S'musica negra'
p3264
sI3263
S'musical composition'
p3265
sI3264
S'theoretical mathematics'
p3266
sI3265
S'danish language'
p3267
sI3266
S'veterinary sciences'
p3268
sI3267
S'cristiano'
p3269
sI3268
S'malunga'
p3270
sI3269
S'analytical chemistry'
p3271
sI3270
S'forensic anthropology'
p3272
sI3271
S'adani'
p3273
sI3272
S'extreme unicycling'
p3274
sI3273
S'atmospheric physics'
p3275
sI3274
S'machine translation'
p3276
sI3275
S'personal computer'
p3277
sI3276
S'parallel computing'
p3278
sI3277
S'balaban'
p3279
sI3278
S'flute traversi\xc3\xa8re'
p3280
sI3279
S'county collecting'
p3281
sI3280
S'ophthalmology'
p3282
sI3281
S'yuman music'
p3283
sI3282
S'skiffle'
p3284
sI3283
S'radiobiology'
p3285
sI3284
S'novelty song'
p3286
sI3285
S'colloid chemistry'
p3287
sI3286
S'mathematical analysis'
p3288
sI3287
S'process music'
p3289
sI3288
S'sophiology'
p3290
sI3289
S'shito ryu'
p3291
sI3290
S'metal casting'
p3292
sI3291
S'health informatics'
p3293
sI3292
S'dark electro'
p3294
sI3293
S'regional mexican'
p3295
sI3294
S'ambient industrial'
p3296
sI3295
S'javelin throw'
p3297
sI3296
S'no wave'
p3298
sI3297
S'water aerobics'
p3299
sI3298
S'mining engineering'
p3300
sI3299
S"lion's roar"
p3301
sI3300
S'norteno'
p3302
sI3301
S'scramble band'
p3303
sI3302
S'nederlandse taal'
p3304
sI3303
S'violon alto'
p3305
sI3304
S'microhouse'
p3306
sI3305
S'quantitative methods'
p3307
sI3306
S'model mugging'
p3308
sI3307
S'automation engineering'
p3309
sI3308
S'economic statistics'
p3310
sI3309
S'neuroimaging'
p3311
sI3310
S'ethnic electronica'
p3312
sI3311
S'tape music'
p3313
sI3312
S'kabak kemane'
p3314
sI3313
S'english horn'
p3315
sI3314
S'optometry'
p3316
sI3315
S'pickleball'
p3317
sI3316
S'anti-zionism'
p3318
sI3317
S'film scoring'
p3319
sI3318
S'fantasy sport'
p3320
sI3319
S'wingtsun'
p3321
sI3320
S'ethno jazz'
p3322
sI3321
S'family laws'
p3323
sI3322
S'downbeat'
p3324
sI3323
S'aquatics diving'
p3325
sI3324
S'qanun'
p3326
sI3325
S'son montuno'
p3327
sI3326
S'nota'
p3328
sI3327
S'shekere'
p3329
sI3328
S'kajukenbo'
p3330
sI3329
S'guatemalan rock'
p3331
sI3330
S'viking metal'
p3332
sI3331
S'billiard sports'
p3333
sI3332
S'kankles'
p3334
sI3333
S'wife carrying'
p3335
sI3334
S'mathematical finance'
p3336
sI3335
S'psychedelic soul'
p3337
sI3336
S'bojutsu'
p3338
sI3337
S'steel-string guitar'
p3339
sI3338
S'western swing'
p3340
sI3339
S'alesis ion'
p3341
sI3340
S'carillon'
p3342
sI3341
S'electronic hip hop'
p3343
sI3342
S'kobud\xc5\x8d'
p3344
sI3343
S'medieval studies'
p3345
sI3344
S'mento'
p3346
sI3345
S'twitching'
p3347
sI3346
S'orchestral jazz'
p3348
sI3347
S'minimal wave'
p3349
sI3348
S'danz\xc3\xb3n'
p3350
sI3349
S'peteca'
p3351
sI3350
S'scoutball'
p3352
sI3351
S'kite buggy'
p3353
sI3352
S'earthquake engineering'
p3354
sI3353
S'dream pop'
p3355
sI3354
S'melodic hardcore'
p3356
sI3355
S'music analysis'
p3357
sI3356
S'enshin karate'
p3358
sI3357
S'ichthyology'
p3359
sI3358
S'emeiquan'
p3360
sI3359
S'lau gar'
p3361
sI3360
S'basque dance'
p3362
sI3361
S'search engine'
p3363
sI3362
S'modal jazz'
p3364
sI3363
S'jkd'
p3365
sI3364
S'stomp box'
p3366
sI3365
S'linked data'
p3367
sI3366
S'housing development'
p3368
sI3367
S'real aikido'
p3369
sI3368
S'habitat conservation'
p3370
sI3369
S'technical communication'
p3371
sI3370
S'digital rock'
p3372
sI3371
S'cat\xc3\xb3lica'
p3373
sI3372
S'western painting'
p3374
sI3373
S'soapbox'
p3375
sI3374
S'public administration'
p3376
sI3375
S'hammer throw'
p3377
sI3376
S'balinese dance'
p3378
sI3377
S'dwarf tossing'
p3379
sI3378
S'automotive technology'
p3380
sI3379
S'fan fiction'
p3381
sI3380
S'geotechnical engineering'
p3382
sI3381
S'yamaha motif'
p3383
sI3382
S'reproductive health'
p3384
sI3383
S'rowing exercise'
p3385
sI3384
S'tumba'
p3386
sI3385
S'proteomics'
p3387
sI3386
S'sea shanty'
p3388
sI3387
S'symphonic techno'
p3389
sI3388
S'college baseball'
p3390
sI3389
S'hypertext'
p3391
sI3390
S'triple jump'
p3392
sI3391
S'\xc5\x93nology'
p3393
sI3392
S'cb radio'
p3394
sI3393
S'mainstream rock'
p3395
sI3394
S'rainstick'
p3396
sI3395
S'concept album'
p3397
sI3396
S'shinobue'
p3398
sI3397
S'deep soul'
p3399
sI3398
S'ndi'
p3400
sI3399
S'aeronautical engineering'
p3401
sI3400
S'logrolling'
p3402
sI3401
S'harness racing'
p3403
sI3402
S'mathematical economics'
p3404
sI3403
S'american kenpo'
p3405
sI3404
S'kenpo karate'
p3406
sI3405
S'social analytics'
p3407
sI3406
S'goaltimate'
p3408
sI3407
S'new blues'
p3409
sI3408
S'baroque guitar'
p3410
sI3409
S'jazz violin'
p3411
sI3410
S'gothic fiction'
p3412
sI3411
S'torban'
p3413
sI3412
S'yass'
p3414
sI3413
S'psychedelic pop'
p3415
sI3414
S'portfolio management'
p3416
sI3415
S'space western'
p3417
sI3416
S"children's games"
p3418
sI3417
S'sonification'
p3419
sI3418
S'romantic drama'
p3420
sI3419
S'developmental genetics'
p3421
sI3420
S'materials engineering'
p3422
sI3421
S'darkstep'
p3423
sI3422
S'penicillin'
p3424
sI3423
S'biology/english'
p3425
sI3424
S'black ambient'
p3426
sI3425
S'harsh noise'
p3427
sI3426
S'hourglass drum'
p3428
sI3427
S'box lacrosse'
p3429
sI3428
S'comparative politics'
p3430
sI3429
S'heavy metal music'
p3431
sI3430
S'systems management'
p3432
sI3431
S'ranchera'
p3433
sI3432
S'bartitsu'
p3434
sI3433
S'dutar'
p3435
sI3434
S'deltiology'
p3436
sI3435
S'regal'
p3437
sI3436
S'yabusame'
p3438
sI3437
S'chamberlin'
p3439
sI3438
S'plainsong'
p3440
sI3439
S'xun'
p3441
sI3440
S'hip-hop klezmer'
p3442
sI3441
S'dramyin'
p3443
sI3442
S'gibson sg'
p3444
sI3443
S'male actor'
p3445
sI3444
S'piano pedagogy'
p3446
sI3445
S'piguaquan'
p3447
sI3446
S'gayo'
p3448
sI3447
S'officer training'
p3449
sI3448
S'gothic funk'
p3450
sI3449
S'tinku'
p3451
sI3450
S'contemporary blues'
p3452
sI3451
S'modern soul'
p3453
sI3452
S'steelpan'
p3454
sI3453
S'glaciology'
p3455
sI3454
S'costing'
p3456
sI3455
S'russian guitar'
p3457
sI3456
S'sung poetry'
p3458
sI3457
S'psycho-oncology'
p3459
sI3458
S'bass trombone'
p3460
sI3459
S'military tactics'
p3461
sI3460
S'querfl\xc3\xb6te'
p3462
sI3461
S'dance anthem'
p3463
sI3462
S'the pit'
p3464
sI3463
S'hellenistic philosophy'
p3465
sI3464
S'incidental music'
p3466
sI3465
S'hospital administration'
p3467
sI3466
S'gaelic handball'
p3468
sI3467
S'data mapping'
p3469
sI3468
S'musique concr\xc3\xa8te'
p3470
sI3469
S'forensic chemistry'
p3471
sI3470
S'microelectronics'
p3472
sI3471
S'management engineering'
p3473
sI3472
S'kemenche'
p3474
sI3473
S'pharmacogenomics'
p3475
sI3474
S'sequential art'
p3476
sI3475
S'biomedical science'
p3477
sI3476
S'gusli'
p3478
sI3477
S'psaltery'
p3479
sI3478
S'minimal electronica'
p3480
sI3479
S'non-associative algebra'
p3481
sI3480
S'daytime drama'
p3482
sI3481
S'surface science'
p3483
sI3482
S'lieder'
p3484
sI3483
S'punk cabaret'
p3485
sI3484
S'\xd7\xa2\xd7\x91\xd7\xa8\xd7\x99\xd7\xaa'
p3486
sI3485
S'cytology'
p3487
sI3486
S'fretless guitar'
p3488
sI3487
S'warr guitar'
p3489
sI3488
S'kite culture'
p3490
sI3489
S'social institutions'
p3491
sI3490
S'flight dynamics'
p3492
sI3491
S'corporate finance'
p3493
sI3492
S'systems integration'
p3494
sI3493
S'pep band'
p3495
sI3494
S'physical oceanography'
p3496
sI3495
S'exercise physiology'
p3497
sI3496
S'insect collecting'
p3498
sI3497
S'avant garde metal'
p3499
sI3498
S'petroleum engineering'
p3500
sI3499
S'foreign service'
p3501
sI3500
S'overclocking'
p3502
sI3501
S'combinatorial mathematics'
p3503
sI3502
S'classic trance'
p3504
sI3503
S'marxist philosophy'
p3505
sI3504
S'orthopaedics'
p3506
sI3505
S'begena'
p3507
sI3506
S'visual analytics'
p3508
sI3507
S'hawaiian music'
p3509
sI3508
S'footbag net'
p3510
sI3509
S'bulgarian music'
p3511
sI3510
S'highlife'
p3512
sI3511
S'israeli theatre'
p3513
sI3512
S'participation dance'
p3514
sI3513
S'europop'
p3515
sI3514
S'upic'
p3516
sI3515
S'key instruments'
p3517
sI3516
S'pradal serey'
p3518
sI3517
S'freestyle wrestling'
p3519
sI3518
S'pallone'
p3520
sI3519
S'moog synthesizer'
p3521
sI3520
S'mathcore'
p3522
sI3521
S'bandola'
p3523
sI3522
S'charanga'
p3524
sI3523
S'habanera'
p3525
sI3524
S'drum and bass'
p3526
sI3525
S'linear algebra'
p3527
sI3526
S'bando'
p3528
sI3527
S'chamam\xc3\xa9'
p3529
sI3528
S'inline speed skating'
p3530
sI3529
S'stickball'
p3531
sI3530
S'collegiate wrestling'
p3532
sI3531
S'orthopedic surgery'
p3533
sI3532
S'cricket spitting'
p3534
sI3533
S'chinese law'
p3535
sI3534
S'baritone saxophone'
p3536
sI3535
S'biometrics'
p3537
sI3536
S'change ringing'
p3538
sI3537
S'box kite'
p3539
sI3538
S"pumpin' house"
p3540
sI3539
S'pencak silat'
p3541
sI3540
S'longa'
p3542
sI3541
S'torball'
p3543
sI3542
S'commercial law'
p3544
sI3543
S'triple swing'
p3545
sI3544
S'cuarteto'
p3546
sI3545
S'morin khuur'
p3547
sI3546
S'ncaa basketball'
p3548
sI3547
S'setor'
p3549
sI3548
S'the jacksons'
p3550
sI3549
S'seido'
p3551
sI3550
S'avant-garde jazz'
p3552
sI3551
S'pit fighting'
p3553
sI3552
S'hungarian folk music'
p3554
sI3553
S'bobsleigh'
p3555
sI3554
S'cool jazz'
p3556
sI3555
S'sephardic music'
p3557
sI3556
S'classical philology'
p3558
sI3557
S'rabab'
p3559
sI3558
S'portuguese guitar'
p3560
sI3559
S'handclaps'
p3561
sI3560
S'dirty blues'
p3562
sI3561
S'progressive electro'
p3563
sI3562
S'deathcore'
p3564
sI3563
S'computational geometry'
p3565
sI3564
S'baroque violin'
p3566
sI3565
S'hardcore hip hop'
p3567
sI3566
S'racial inequality'
p3568
sI3567
S'electric instrument'
p3569
sI3568
S'virtual band'
p3570
sI3569
S'osteopathic medicine'
p3571
sI3570
S'teen pop'
p3572
sI3571
S'mandocello'
p3573
sI3572
S'web service'
p3574
sI3573
S'astrochemistry'
p3575
sI3574
S'mammalogy'
p3576
sI3575
S'lapta'
p3577
sI3576
S'romanian rock'
p3578
sI3577
S'bell chimes'
p3579
sI3578
S'yoseikan budo'
p3580
sI3579
S'system integration'
p3581
sI3580
S'ashiko'
p3582
sI3581
S'rheumatology'
p3583
sI3582
S'stand up comedian'
p3584
sI3583
S'jawbone'
p3585
sI3584
S'guiro'
p3586
sI3585
S'chaabi'
p3587
sI3586
S'cycle ball'
p3588
sI3587
S'v50'
p3589
sI3588
S'cfd'
p3590
sI3589
S'guitar mashing'
p3591
sI3590
S'swing hip hop'
p3592
sI3591
S'jai alai'
p3593
sI3592
S'pungi'
p3594
sI3593
S'personal journals'
p3595
sI3594
S'enumerative combinatorics'
p3596
sI3595
S'booty house'
p3597
sI3596
S'japanoise'
p3598
sI3597
S'skicross'
p3599
sI3598
S'musique concrete'
p3600
sI3599
S'san shou'
p3601
sI3600
S'txalaparta'
p3602
sI3601
S'rhythm guitar'
p3603
sI3602
S'english philology'
p3604
sI3603
S'shooto'
p3605
sI3604
S'algebraic combinatorics'
p3606
sI3605
S'biguine'
p3607
sI3606
S'mathematical game'
p3608
sI3607
S'horseball'
p3609
sI3608
S'dark metal'
p3610
sI3609
S'gayageum'
p3611
sI3610
S'janggu'
p3612
sI3611
S'stradivarius'
p3613
sI3612
S'bridge engineering'
p3614
sI3613
S'euro disco'
p3615
sI3614
S'speech recognition'
p3616
sI3615
S'mobb music'
p3617
sI3616
S'psychrometry'
p3618
sI3617
S'ceng'
p3619
sI3618
S'emarketing'
p3620
sI3619
S'genge'
p3621
sI3620
S'hiplife'
p3622
sI3621
S'marrabenta'
p3623
sI3622
S'tecno brega'
p3624
sI3623
S'khol'
p3625
sI3624
S'eastern swing'
p3626
sI3625
S'obstetrics'
p3627
sI3626
S'revolutionary war'
p3628
sI3627
S'nippon kempo'
p3629
sI3628
S'byzantine music'
p3630
s.