(dp1
S'bagpipe'
p2
I1898
sS'electro hop'
p3
I1143
sS'power metal'
p4
I2606
sS'meat science'
p5
I2268
sS'irish flute'
p6
I2866
sS'tropicalismo'
p7
I2855
sS'heavy metal'
p8
I660
sS'classical acting'
p9
I2666
sS'skeleton'
p10
I2615
sS'relationships'
p11
I127
sS'orthopaedics'
p12
I3504
sS'cognitive neuroscience'
p13
I1745
sS'electricity'
p14
I240
sS'ektara'
p15
I3193
sS'stone skipping'
p16
I2005
sS'parlour music'
p17
I2203
sS'metamorphic'
p18
I2986
sS'glam rock'
p19
I1902
sS'technical sciences'
p20
I2453
sS'emo violence'
p21
I2686
sS'bass trumpet'
p22
I2724
sS'goa trance'
p23
I2113
sS'nippon kempo'
p24
I3627
sS'west africa'
p25
I665
sS'regal'
p26
I3435
sS'romaic'
p27
I3067
sS'engineering science'
p28
I2525
sS'rap metal'
p29
I2487
sS'marimba'
p30
I1344
sS'geology'
p31
I705
sS'regional'
p32
I524
sS'computer networking'
p33
I579
sS'nuclear chemistry'
p34
I2713
sS'eugenics'
p35
I1588
sS'capoeira'
p36
I491
sS'computational design'
p37
I2746
sS'washboard'
p38
I2673
sS'high jump'
p39
I2757
sS'general science'
p40
I2264
sS'chinese opera'
p41
I2346
sS'musical comedy'
p42
I737
sS'aviation engineering'
p43
I2298
sS'acid house'
p44
I3044
sS'urban anthropology'
p45
I2736
sS'israeli theatre'
p46
I3511
sS'acoustical engineering'
p47
I3042
sS'singing bowl'
p48
I1783
sS'decima'
p49
I2244
sS'noise pop'
p50
I3036
sS'computational geometry'
p51
I3563
sS'hardcore techno'
p52
I2775
sS'curtal'
p53
I1810
sS'sanskrit language'
p54
I2317
sS'car game'
p55
I2869
sS'soundtracks'
p56
I827
sS'formal logic'
p57
I3003
sS'auto racing'
p58
I437
sS'normative ethics'
p59
I2250
sS'sky diving'
p60
I36
sS'aeronautics'
p61
I2016
sS'rhythm guitar'
p62
I3601
sS'deutsch'
p63
I1245
sS'heavy metal music'
p64
I3429
sS'japanese'
p65
I101
sS'horn'
p66
I1904
sS'korean language'
p67
I1865
sS'bongo drum'
p68
I2259
sS'noise music'
p69
I1601
sS'discourse analysis'
p70
I2176
sS'nanga'
p71
I2049
sS'home economics'
p72
I2972
sS'cooking'
p73
I14
sS'kus'
p74
I3140
sS'asia'
p75
I479
sS'pop funk'
p76
I2426
sS'ans synthesizer'
p77
I1729
sS'eastern philosophy'
p78
I514
sS'nintendocore'
p79
I3157
sS'reconstruction'
p80
I1388
sS'qigong'
p81
I1444
sS'surdo'
p82
I2833
sS'pharmacy'
p83
I1721
sS'fly tying'
p84
I1987
sS'mathematical chemistry'
p85
I2471
sS'roller skating'
p86
I284
sS'zamba'
p87
I1891
sS'mbira'
p88
I2372
sS'environmental science'
p89
I1933
sS'historical geology'
p90
I1486
sS'surf music'
p91
I406
sS'anthropology'
p92
I1
sS'ching'
p93
I564
sS'pate'
p94
I777
sS'transportation planning'
p95
I1512
sS'lindy hop'
p96
I468
sS'screamo'
p97
I2687
sS'miniature wargaming'
p98
I1434
sS'mey'
p99
I901
sS'information technology'
p100
I1136
sS'etching'
p101
I956
sS'kids'
p102
I549
sS'shock rock'
p103
I2500
sS'auction'
p104
I538
sS'economics'
p105
I179
sS'snooker'
p106
I663
sS'meta-ethics'
p107
I2679
sS'contemporary ballet'
p108
I2165
sS'dizi'
p109
I1451
sS'double bass'
p110
I600
sS'music education'
p111
I1518
sS'neofolk'
p112
I2509
sS'military'
p113
I1529
sS'aikido'
p114
I486
sS'rafting'
p115
I196
sS'renaissance dance'
p116
I2741
sS'samba rock'
p117
I1653
sS'human rights'
p118
I143
sS'japanese hardcore'
p119
I2889
sS'ska jazz'
p120
I521
sS'computer architecture'
p121
I2222
sS'nyckelharpa'
p122
I2740
sS'strat'
p123
I1612
sS'population genetics'
p124
I1667
sS'milonga'
p125
I2880
sS'rocksteady'
p126
I1716
sS'unix'
p127
I1502
sS'reproductive health'
p128
I3382
sS'mrdanga'
p129
I2437
sS'modern hebrew'
p130
I3088
sS'ragga'
p131
I1461
sS'greek rock'
p132
I2879
sS'ethnomusicology'
p133
I1208
sS'genomics'
p134
I2761
sS'power electronics'
p135
I3211
sS'dnb'
p136
I1319
sS'systematics'
p137
I2777
sS'cajun music'
p138
I1691
sS'high german'
p139
I2732
sS'political realism'
p140
I2273
sS'shredding'
p141
I1586
sS'music'
p142
I28
sS'rock climbing'
p143
I298
sS'hiplife'
p144
I3620
sS'straight edge'
p145
I54
sS'cardiology'
p146
I2170
sS'jazz dance'
p147
I1011
sS'general engineering'
p148
I2944
sS'kadans'
p149
I1665
sS'frisbee golf'
p150
I1014
sS'glass'
p151
I135
sS'computational linguistics'
p152
I2092
sS'billiard sports'
p153
I3331
sS'french horn'
p154
I1185
sS'cuarteto'
p155
I3544
sS'brake house'
p156
I3225
sS'russian guitar'
p157
I3455
sS'kabbalah'
p158
I1568
sS'beach soccer'
p159
I1696
sS'word'
p160
I348
sS'progressive electro'
p161
I3561
sS'kraut'
p162
I1746
sS'guqin'
p163
I2860
sS'double dutch'
p164
I2375
sS'mj'
p165
I1334
sS'movies'
p166
I58
sS'category theory'
p167
I2341
sS'political satire'
p168
I1421
sS'climatology'
p169
I782
sS'motorcycle racing'
p170
I1923
sS'serpent'
p171
I2522
sS'sung poetry'
p172
I3456
sS'indie'
p173
I52
sS'programming'
p174
I215
sS'guarania'
p175
I3100
sS'jam rock'
p176
I2670
sS'clapping game'
p177
I2755
sS'gadgets'
p178
I1032
sS'euphonium'
p179
I2217
sS'bongo flava'
p180
I1562
sS'chande'
p181
I2291
sS'media arts'
p182
I582
sS'counseling'
p183
I615
sS'calva'
p184
I3005
sS'other flutes'
p185
I2801
sS'pure mathematics'
p186
I3195
sS'harmonium'
p187
I1470
sS'professional boxing'
p188
I2809
sS'association football'
p189
I2516
sS'suona'
p190
I1763
sS'travel'
p191
I77
sS'philosophy/psychology'
p192
I385
sS'skate rock'
p193
I1113
sS'yamaha motif'
p194
I3381
sS'anarcho-punk'
p195
I3049
sS'twitching'
p196
I3345
sS'drummer'
p197
I1622
sS'ent'
p198
I159
sS'interview'
p199
I1437
sS'martial arts'
p200
I145
sS'chinese studies'
p201
I3129
sS'ambient industrial'
p202
I3294
sS'bebop'
p203
I1313
sS'computer technology'
p204
I1206
sS'music analysis'
p205
I3355
sS'chinese law'
p206
I3533
sS'beauty'
p207
I321
sS'balada'
p208
I1066
sS'pocket billiards'
p209
I1008
sS"children's literature"
p210
I1772
sS'spearfishing'
p211
I413
sS'tulum'
p212
I1956
sS'computer graphics'
p213
I1205
sS'cultural studies'
p214
I543
sS'partner dancing'
p215
I1196
sS'historical linguistics'
p216
I527
sS'salsa'
p217
I197
sS'law'
p218
I494
sS'book binding'
p219
I2278
sS'critical theory'
p220
I618
sS'fluid mechanics'
p221
I2767
sS'sentir'
p222
I1802
sS'arts administration'
p223
I2211
sS'spectralism'
p224
I467
sS'software programmer'
p225
I2505
sS'fungi'
p226
I637
sS'gothic metal'
p227
I2619
sS'greek'
p228
I1074
sS'process music'
p229
I3287
sS'jungle'
p230
I367
sS'development sociology'
p231
I2901
sS'archaeology'
p232
I1073
sS'musica negra'
p233
I3262
sS'wine'
p234
I88
sS'bossa nova'
p235
I829
sS'fife'
p236
I896
sS'clapper'
p237
I773
sS'tetherball'
p238
I3124
sS'new rave'
p239
I3127
sS'rope climbing'
p240
I2591
sS'arabic music'
p241
I1822
sS'gaelic handball'
p242
I3466
sS'free dance'
p243
I1892
sS'stand up comedian'
p244
I3582
sS'game boy music'
p245
I1137
sS'investigative journalism'
p246
I2943
sS'art music'
p247
I186
sS'nederlandse taal'
p248
I3302
sS'western philosophy'
p249
I1627
sS'harmonica'
p250
I263
sS'seishinkai'
p251
I2863
sS'canci\xc3\xb3n'
p252
I2488
sS'naturopathic medicine'
p253
I2557
sS'social relations'
p254
I1242
sS'writing'
p255
I89
sS'concept design'
p256
I2173
sS'stoner rock'
p257
I1457
sS'synchronised swimming'
p258
I1800
sS'information engineering'
p259
I2286
sS'church history'
p260
I2460
sS'croquet'
p261
I1063
sS'forest ecology'
p262
I2845
sS'fado'
p263
I361
sS'automation engineering'
p264
I3307
sS'sacred harp'
p265
I3164
sS'vocal music'
p266
I935
sS'labour law'
p267
I3234
sS'lau gar'
p268
I3359
sS'entomology'
p269
I840
sS'erhu'
p270
I1280
sS'beach volleyball'
p271
I484
sS'bojutsu'
p272
I3336
sS'ballroom dance'
p273
I395
sS'radiobiology'
p274
I3283
sS'iaido'
p275
I702
sS'tourism'
p276
I208
sS'marching band'
p277
I2062
sS'hermeneutics'
p278
I560
sS'home improvement'
p279
I1049
sS'indology'
p280
I2862
sS'street basketball'
p281
I2099
sS'cooperative game'
p282
I3074
sS'choir'
p283
I293
sS'folkcore'
p284
I3061
sS'plainsong'
p285
I3438
sS'fitness'
p286
I141
sS'mandocello'
p287
I3571
sS'health physics'
p288
I3168
sS'behavioral finance'
p289
I311
sS'german studies'
p290
I2166
sS'music industry'
p291
I952
sS'shagur'
p292
I2499
sS'wargaming'
p293
I1339
sS'aerodynamics'
p294
I2333
sS'japanese studies'
p295
I1820
sS'oriental studies'
p296
I1968
sS'bowls'
p297
I719
sS'chamam\xc3\xa9'
p298
I3527
sS'cueca'
p299
I3213
sS'cultural geography'
p300
I451
sS'video art'
p301
I1420
sS'dubstep'
p302
I1067
sS'juggling'
p303
I265
sS'pantalon'
p304
I2997
sS'kud\xc3\xbcm'
p305
I3119
sS'particle physics'
p306
I2120
sS'alternative electronic'
p307
I1768
sS'engineering management'
p308
I3185
sS'dirty blues'
p309
I3560
sS'network'
p310
I482
sS'rare groove'
p311
I3131
sS'sneakerhead'
p312
I2555
sS'electronic rock'
p313
I1751
sS'marketing management'
p314
I2227
sS'minimal house'
p315
I2380
sS'fellowship'
p316
I390
sS'scurfing'
p317
I3242
sS'medicine'
p318
I184
sS'rn'
p319
I2914
sS'cryptozoology'
p320
I1298
sS'creole'
p321
I2302
sS'guitar pop'
p322
I2044
sS'financial services'
p323
I3091
sS'ska punk'
p324
I1188
sS'hand drum'
p325
I1467
sS'telecommunication'
p326
I1441
sS'aussie rules'
p327
I589
sS'technical management'
p328
I2899
sS'extreme metal'
p329
I1867
sS'organology'
p330
I3214
sS'begena'
p331
I3505
sS'free tekno'
p332
I1501
sS'muay thai'
p333
I727
sS'modern language'
p334
I1692
sS'parlour game'
p335
I1150
sS'general education'
p336
I2711
sS'chamber pop'
p337
I3261
sS'assyriology'
p338
I2143
sS'ethnology'
p339
I614
sS'musique concr\xc3\xa8te'
p340
I3468
sS'racquetball'
p341
I687
sS'varma kalai'
p342
I301
sS'christmas song'
p343
I1830
sS'refugee'
p344
I757
sS'control engineering'
p345
I2964
sS'secularism'
p346
I974
sS'fantasy fiction'
p347
I2462
sS'chess boxing'
p348
I2782
sS'gender studies'
p349
I595
sS'designer game'
p350
I826
sS'xun'
p351
I3439
sS'record producer'
p352
I2320
sS'hora'
p353
I490
sS'digital rock'
p354
I3370
sS'phycology'
p355
I1351
sS'classical guitar'
p356
I217
sS'bombard'
p357
I2832
sS'rant'
p358
I915
sS'spinning'
p359
I223
sS'stylistics'
p360
I635
sS'astronautics'
p361
I1389
sS'community organization'
p362
I1391
sS'soren kierkegaard'
p363
I1769
sS'grateful dead'
p364
I1631
sS'talking drum'
p365
I3092
sS'piano blues'
p366
I3138
sS'basketball'
p367
I74
sS'psycho-oncology'
p368
I3457
sS'health services'
p369
I2430
sS'biomathematics'
p370
I1051
sS'blue beat'
p371
I2654
sS'modern history'
p372
I1775
sS'tango'
p373
I512
sS'fiction'
p374
I881
sS'boating'
p375
I201
sS'beach rugby'
p376
I1214
sS'thai boxing'
p377
I728
sS'woodwind'
p378
I2824
sS'tom'
p379
I430
sS'table game'
p380
I1668
sS'farming'
p381
I94
sS'fantasy novel'
p382
I2230
sS'ganza'
p383
I1894
sS'danish'
p384
I68
sS'contemporary folk'
p385
I2006
sS'applied art'
p386
I2125
sS'landscape architecture'
p387
I847
sS'brushes'
p388
I1534
sS'actuarial science'
p389
I1723
sS'physics/biology'
p390
I1777
sS'palestine'
p391
I1159
sS'radio broadcasting'
p392
I1098
sS'weightlifting'
p393
I559
sS'western'
p394
I646
sS'biniou'
p395
I2831
sS'boarding'
p396
I575
sS'technical communication'
p397
I3369
sS'atonal music'
p398
I3038
sS'embryology'
p399
I2382
sS'blues music'
p400
I191
sS'shoot wrestling'
p401
I3250
sS'futurology'
p402
I1548
sS'meteorology'
p403
I1337
sS'trap shooting'
p404
I3010
sS'environmental biology'
p405
I2822
sS'science education'
p406
I1536
sS'historical'
p407
I204
sS'jai alai'
p408
I3591
sS'economic policy'
p409
I1999
sS'tres'
p410
I1042
sS'para para'
p411
I1978
sS'fashion'
p412
I78
sS'rattle'
p413
I696
sS'mina'
p414
I70
sS'rai'
p415
I2110
sS'xaphoon'
p416
I2569
sS'theoretical astronomy'
p417
I1481
sS'system integration'
p418
I3579
sS'street piano'
p419
I2915
sS'biological sciences'
p420
I1525
sS'local knowledge'
p421
I2564
sS'grind'
p422
I2192
sS'sinology'
p423
I2759
sS'theater arts'
p424
I531
sS'medieval music'
p425
I2195
sS'modal jazz'
p426
I3362
sS'steel guitar'
p427
I2919
sS'bass clarinet'
p428
I1618
sS'flash mob'
p429
I1419
sS'classic salsa'
p430
I2913
sS'ncaa basketball'
p431
I3546
sS'signal processing'
p432
I1982
sS'chess'
p433
I425
sS'handclaps'
p434
I3559
sS'steam punk'
p435
I1958
sS'hun'
p436
I795
sS'new beat'
p437
I2990
sS'koke'
p438
I1316
sS'stabule'
p439
I3128
sS'kanun'
p440
I3237
sS'handbells'
p441
I2696
sS'new country'
p442
I470
sS'anatomy'
p443
I0
sS'microfinancing'
p444
I2463
sS'khol'
p445
I3623
sS'free-diving'
p446
I319
sS'wood block'
p447
I3084
sS'coin'
p448
I130
sS'green design'
p449
I1913
sS'thriller'
p450
I487
sS'business finance'
p451
I2224
sS'bokator'
p452
I2584
sS'lituus'
p453
I2604
sS'systematic theology'
p454
I2902
sS'popular culture'
p455
I1409
sS'water sport'
p456
I124
sS'slipknot'
p457
I3170
sS'cumbia'
p458
I518
sS'gothabilly'
p459
I1286
sS'tech'
p460
I495
sS'search engine'
p461
I3361
sS'world game'
p462
I2255
sS'cricket spitting'
p463
I3532
sS'kankl\xc4\x97s'
p464
I2738
sS'rabab'
p465
I3557
sS'astrologie'
p466
I1487
sS'supply chain'
p467
I2234
sS'josephus'
p468
I673
sS'western swing'
p469
I3338
sS'oina'
p470
I3178
sS'syntax'
p471
I1192
sS'\xe6\x97\xa5\xe6\x9c\xac\xe8\xaa\x9e'
p472
I2865
sS'black metal'
p473
I970
sS'radio'
p474
I309
sS'business studies'
p475
I2700
sS'automobile racing'
p476
I2886
sS'speed badminton'
p477
I2459
sS'aleatoric music'
p478
I856
sS'divinity'
p479
I1565
sS'crossfit'
p480
I134
sS'classical latin'
p481
I2187
sS'cinema-television'
p482
I1989
sS'theatre studies'
p483
I760
sS'guidance'
p484
I523
sS'symphonic'
p485
I1365
sS'web marketing'
p486
I1546
sS'soul rock'
p487
I2656
sS'brass band'
p488
I652
sS'orienteering'
p489
I653
sS'dietetics'
p490
I2577
sS'harness racing'
p491
I3401
sS'bluegrass music'
p492
I1340
sS'college basketball'
p493
I1396
sS'graph theory'
p494
I2776
sS'cryptography'
p495
I2220
sS'gothic music'
p496
I2533
sS'rave music'
p497
I2392
sS"children's music"
p498
I1698
sS'physical cosmology'
p499
I2262
sS'board game'
p500
I1062
sS'hematology'
p501
I2963
sS'soleares'
p502
I2289
sS'medicinal chemistry'
p503
I1776
sS'danso'
p504
I3086
sS'fistball'
p505
I1366
sS'dansk'
p506
I3200
sS'yabusame'
p507
I3436
sS'breakbeat'
p508
I900
sS'gayo'
p509
I3446
sS'mountaineering'
p510
I181
sS'santur'
p511
I1571
sS'underwater archaeology'
p512
I2490
sS'scottish literature'
p513
I2477
sS'cover band'
p514
I1814
sS'rowing'
p515
I405
sS'disco'
p516
I371
sS'stomp box'
p517
I3364
sS"children's"
p518
I1002
sS'hardstyle'
p519
I1799
sS'hip hop'
p520
I391
sS'linear algebra'
p521
I3525
sS'marine engineering'
p522
I3238
sS'victorian era'
p523
I2208
sS'worship music'
p524
I2985
sS'skiffle'
p525
I3282
sS'electronic technology'
p526
I3006
sS'outsider music'
p527
I1352
sS'weight training'
p528
I1198
sS'guzheng'
p529
I1163
sS'furniture design'
p530
I846
sS'death metal'
p531
I671
sS'uplifting trance'
p532
I2800
sS'jiujitsu'
p533
I1752
sS'hourglass drum'
p534
I3426
sS'record collecting'
p535
I1998
sS'fine art'
p536
I594
sS'virology'
p537
I2643
sS'fiddlesticks'
p538
I2592
sS'design management'
p539
I3241
sS'cabaret'
p540
I1005
sS'neoclassical'
p541
I3236
sS'economic geology'
p542
I2530
sS'box lacrosse'
p543
I3427
sS'criminal justice'
p544
I2338
sS'sludge metal'
p545
I2216
sS'ethnic studies'
p546
I2612
sS'political economy'
p547
I1269
sS'biomechanics'
p548
I1869
sS'basque dance'
p549
I3360
sS'pirate'
p550
I1253
sS'rudible'
p551
I271
sS'social planning'
p552
I3082
sS'political hip hop'
p553
I3219
sS'italian renaissance'
p554
I1948
sS'nature'
p555
I39
sS'medieval studies'
p556
I3343
sS'romantic drama'
p557
I3418
sS'aviation medicine'
p558
I1986
sS"women's music"
p559
I1919
sS'decathlon'
p560
I2785
sS'censorship'
p561
I678
sS'news'
p562
I842
sS'angling'
p563
I880
sS'indoor climbing'
p564
I581
sS'topology'
p565
I2446
sS'visual arts'
p566
I412
sS'classical period'
p567
I1767
sS'european studies'
p568
I2887
sS'flute traversi\xc3\xa8re'
p569
I3278
sS'conch'
p570
I2586
sS'country'
p571
I318
sS'scramble band'
p572
I3301
sS'mariachi'
p573
I1009
sS'linguistic anthropology'
p574
I1581
sS'german-style'
p575
I1838
sS'argul'
p576
I417
sS'games'
p577
I356
sS'logic'
p578
I550
sS'communication artist'
p579
I569
sS'folk pop'
p580
I1791
sS'ethnic electronica'
p581
I3310
sS'theoretical mathematics'
p582
I3264
sS'negotiation'
p583
I1630
sS'big drum'
p584
I2078
sS'rounders'
p585
I346
sS'physical therapy'
p586
I1332
sS'statistical physics'
p587
I2829
sS'mathematical education'
p588
I2904
sS'comprehension'
p589
I1827
sS'classic metal'
p590
I3253
sS'piano accordion'
p591
I922
sS'trust'
p592
I209
sS'telecommunications'
p593
I1133
sS'wind instrument'
p594
I2854
sS'noise rock'
p595
I2185
sS'bingo'
p596
I689
sS'oceanography'
p597
I1922
sS'chinese language'
p598
I1216
sS'asian music'
p599
I282
sS'tax law'
p600
I1811
sS'submarine'
p601
I925
sS'home repair'
p602
I1057
sS'psaltery'
p603
I3477
sS'mineral collecting'
p604
I2947
sS'skate punk'
p605
I3174
sS'screen-print'
p606
I1711
sS'brassband'
p607
I1981
sS'international business'
p608
I939
sS'hebrew language'
p609
I2376
sS'cosmetology'
p610
I2465
sS'chuk'
p611
I2470
sS'racquets'
p612
I905
sS'koto'
p613
I2531
sS'soft rock'
p614
I1823
sS'aquatics diving'
p615
I3323
sS'kali sikaran'
p616
I3179
sS'italian rock'
p617
I2450
sS'catch'
p618
I105
sS'aviation'
p619
I178
sS'personal growth'
p620
I769
sS'punk funk'
p621
I1097
sS'spin'
p622
I250
sS'cambo'
p623
I2205
sS'american history'
p624
I1164
sS'chill'
p625
I328
sS'commerce'
p626
I432
sS'drumset'
p627
I1608
sS'lifting weights'
p628
I1624
sS'economic statistics'
p629
I3308
sS'alesis ion'
p630
I3339
sS'amateur theatre'
p631
I567
sS'thrash'
p632
I2094
sS'voice'
p633
I664
sS'electroacoustics'
p634
I1866
sS'eskrima'
p635
I2245
sS'mathematical sciences'
p636
I1414
sS'intellectual history'
p637
I2819
sS'canoeing'
p638
I102
sS'planking'
p639
I2001
sS"50's"
p640
I561
sS'keyboard controller'
p641
I2844
sS'ir'
p642
I388
sS'kankles'
p643
I3332
sS'nuclear physics'
p644
I2184
sS'alpine skiing'
p645
I1079
sS'music theory'
p646
I1102
sS'viennese waltz'
p647
I2258
sS'hebrew'
p648
I1182
sS'violin'
p649
I237
sS'pathology'
p650
I1488
sS'snare drum'
p651
I2969
sS'rock and roll'
p652
I3019
sS'christian music'
p653
I863
sS'mbalax'
p654
I2152
sS'financial economics'
p655
I1975
sS'go go'
p656
I1781
sS'surf rock'
p657
I1148
sS'occupational therapy'
p658
I2051
sS'visual anthropology'
p659
I1560
sS'design thinking'
p660
I1911
sS'bharatanatyam'
p661
I1655
sS'electro'
p662
I389
sS'model mugging'
p663
I3306
sS"70's"
p664
I607
sS'modern arnis'
p665
I1895
sS'business news'
p666
I2468
sS'american government'
p667
I3256
sS'ocean engineering'
p668
I2145
sS'hang'
p669
I108
sS'managment'
p670
I2532
sS'acoustic rock'
p671
I2683
sS'norwegian'
p672
I463
sS'dark psytrance'
p673
I3158
sS'jkd'
p674
I3363
sS'business law'
p675
I1120
sS'vermont'
p676
I802
sS'salsa cubana'
p677
I1307
sS'water organ'
p678
I2587
sS'acoustics'
p679
I500
sS'image analysis'
p680
I2347
sS'english language'
p681
I243
sS'suka'
p682
I2625
sS'pandore'
p683
I1815
sS'big band'
p684
I2135
sS'roller hockey'
p685
I1706
sS'physician assistant'
p686
I3020
sS'melodica'
p687
I2351
sS'experimental psychology'
p688
I1161
sS'kinship'
p689
I1270
sS'film editing'
p690
I903
sS'pianoforte'
p691
I2440
sS'sarangi'
p692
I2993
sS'jazz fusion'
p693
I1754
sS'geotechnical engineering'
p694
I3380
sS'officer training'
p695
I3447
sS'lock picking'
p696
I2576
sS'american literature'
p697
I916
sS'international affairs'
p698
I1590
sS'hobby game'
p699
I2492
sS'trip hop'
p700
I822
sS'pan pipe'
p701
I3013
sS'emergence'
p702
I180
sS'syd barrett'
p703
I2041
sS'visualization'
p704
I129
sS'bhangra'
p705
I1375
sS'dutar'
p706
I3433
sS'cavaquinho'
p707
I2627
sS'japanoise'
p708
I3596
sS'metal casting'
p709
I3290
sS'bass flute'
p710
I1321
sS'easy listening'
p711
I751
sS'cue sports'
p712
I1207
sS'alchemy'
p713
I677
sS'new romantic'
p714
I2201
sS'pickleball'
p715
I3315
sS'bandy'
p716
I2033
sS'casting'
p717
I1153
sS'paleontology'
p718
I1090
sS'tricking'
p719
I726
sS'alternative dance'
p720
I2348
sS'fusion'
p721
I44
sS'brazilian jazz'
p722
I2917
sS'bando'
p723
I3526
sS'sorority'
p724
I1920
sS'rock music'
p725
I229
sS'korean'
p726
I627
sS'trip rock'
p727
I2325
sS'trivia'
p728
I930
sS'jazz piano'
p729
I1672
sS'glitch'
p730
I1499
sS'free jazz'
p731
I1661
sS'kitesurfing'
p732
I214
sS'arabic language'
p733
I1068
sS'bujinkan'
p734
I1619
sS'online marketing'
p735
I1424
sS'mountain boarding'
p736
I1378
sS'meringue'
p737
I1387
sS'music sequencer'
p738
I3118
sS'computer software'
p739
I2080
sS'agricultural engineering'
p740
I2419
sS'portuguese'
p741
I273
sS'agricultural science'
p742
I2802
sS'sequential art'
p743
I3474
sS'fue'
p744
I2232
sS'big beat'
p745
I2756
sS'pin shooting'
p746
I3206
sS'latin music'
p747
I828
sS'vibraphone'
p748
I2309
sS'dark metal'
p749
I3608
sS'trombone'
p750
I1224
sS'social sciences'
p751
I838
sS'ululation'
p752
I2381
sS'criminology'
p753
I798
sS'fou'
p754
I1683
sS'sociology'
p755
I8
sS'humor'
p756
I465
sS'cognitive psychology'
p757
I1779
sS'industrial arts'
p758
I1187
sS'digital electronics'
p759
I2350
sS'stand-up comedy'
p760
I1006
sS'gypsy jazz'
p761
I2551
sS'zionism'
p762
I2128
sS'flight dynamics'
p763
I3490
sS'underwater hockey'
p764
I1829
sS'infectious disease'
p765
I2215
sS'christmas'
p766
I1026
sS'biochemical engineering'
p767
I3230
sS'pep band'
p768
I3493
sS'shaker'
p769
I2645
sS'english studies'
p770
I1682
sS'gaita'
p771
I2827
sS'cumbia rock'
p772
I3072
sS'marketing'
p773
I568
sS'trampoline'
p774
I401
sS'funk carioca'
p775
I2794
sS'bali dance'
p776
I1551
sS'illustration'
p777
I808
sS'kite buggy'
p778
I3351
sS'kwaito'
p779
I1200
sS'plastic surgery'
p780
I1953
sS'nose flute'
p781
I2558
sS'word game'
p782
I1131
sS'horseball'
p783
I3607
sS'high school'
p784
I345
sS'genocide'
p785
I1203
sS'anime'
p786
I608
sS'russki'
p787
I2218
sS'mathcore'
p788
I3520
sS'family game'
p789
I1070
sS'melbourne shuffle'
p790
I2025
sS'fran\xc3\xa7ais'
p791
I1036
sS'bata'
p792
I1402
sS'speed skating'
p793
I1491
sS'moto racing'
p794
I1647
sS'mba'
p795
I987
sS'son'
p796
I296
sS'technical writing'
p797
I3202
sS'steelpan'
p798
I3452
sS'mathematical logic'
p799
I2897
sS'mambo'
p800
I1408
sS'progressive house'
p801
I1740
sS'gardening'
p802
I21
sS'broadcast journalism'
p803
I2710
sS'personal development'
p804
I1250
sS'internal medicine'
p805
I2699
sS'categorization'
p806
I258
sS'gis'
p807
I1360
sS'fabric'
p808
I529
sS'flatland bmx'
p809
I2716
sS'combinatorics'
p810
I458
sS'tama'
p811
I477
sS'interior design'
p812
I667
sS'lambada'
p813
I2364
sS'holiday music'
p814
I2977
sS'oneirology'
p815
I2933
sS'geography / meteorology'
p816
I2954
sS'conservation'
p817
I565
sS'dwarf tossing'
p818
I3377
sS'astrophysics'
p819
I445
sS'table football'
p820
I992
sS'kiting'
p821
I577
sS'banjo guitar'
p822
I2527
sS'congas'
p823
I662
sS'accountancy'
p824
I800
sS'space technology'
p825
I1295
sS'ice hockey'
p826
I341
sS'amateur'
p827
I162
sS'eventing'
p828
I1841
sS'developmental genetics'
p829
I3419
sS'honky tonk'
p830
I2796
sS'boogie-woogie'
p831
I1231
sS'coal mining'
p832
I3114
sS'keytar'
p833
I2225
sS'banda music'
p834
I157
sS'breakcore'
p835
I1368
sS'dark electro'
p836
I3292
sS'ski jumping'
p837
I306
sS'thai rock'
p838
I2768
sS'dumpster diving'
p839
I536
sS'cuban rumba'
p840
I2885
sS'movies collecting'
p841
I2304
sS'string instruments'
p842
I2404
sS'electrical engineering'
p843
I1983
sS'document design'
p844
I2721
sS'soprano saxophone'
p845
I2693
sS'higher education'
p846
I2063
sS'classic'
p847
I632
sS'nudity'
p848
I708
sS'alto flute'
p849
I2425
sS'sticke'
p850
I375
sS'downhill cycling'
p851
I2616
sS'theoretical physics'
p852
I1600
sS'prayer'
p853
I1314
sS'toy collecting'
p854
I762
sS'hyphy'
p855
I1219
sS'petroleum engineering'
p856
I3498
sS'moral theory'
p857
I656
sS'english philology'
p858
I3602
sS'light music'
p859
I1533
sS'engineering physics'
p860
I1914
sS'mashup'
p861
I1762
sS'actor'
p862
I359
sS'vallenato'
p863
I875
sS'card game'
p864
I211
sS'computer science'
p865
I304
sS'digital'
p866
I548
sS'radio special'
p867
I2842
sS'social economics'
p868
I1400
sS'smell'
p869
I249
sS'crotales'
p870
I2781
sS'reggae'
p871
I256
sS'sophiology'
p872
I3288
sS'country gospel'
p873
I2975
sS'hammered dulcimer'
p874
I2834
sS'french language'
p875
I950
sS'technology management'
p876
I3027
sS'traditional music'
p877
I954
sS'fantasy football'
p878
I1249
sS"lion's roar"
p879
I3299
sS'other games'
p880
I1274
sS'afox\xc3\xa9'
p881
I2260
sS'belly dance'
p882
I876
sS'talk radio'
p883
I1572
sS'social studies'
p884
I1273
sS'neuroscience'
p885
I305
sS'hand cricket'
p886
I590
sS'sephardic music'
p887
I3555
sS'circus music'
p888
I1610
sS'jazz guitar'
p889
I830
sS'male actor'
p890
I3443
sS'other sports'
p891
I221
sS'mountain biking, downhill'
p892
I1753
sS'painting'
p893
I40
sS'hammond organ'
p894
I1648
sS'chicano studies'
p895
I2373
sS'marabi'
p896
I1701
sS'islamic studies'
p897
I1952
sS'information integration'
p898
I2792
sS'american studies'
p899
I433
sS'contemporary jazz'
p900
I2594
sS'film score'
p901
I2118
sS'hypertext'
p902
I3389
sS'diplomacy'
p903
I701
sS'dance'
p904
I126
sS'professional writing'
p905
I2328
sS'conservation biology'
p906
I1545
sS'morin khuur'
p907
I3545
sS'computer geek'
p908
I1050
sS'swing hip hop'
p909
I3590
sS'regional mexican'
p910
I3293
sS'manager'
p911
I1478
sS'skiing'
p912
I24
sS'morphology'
p913
I1191
sS'world history'
p914
I1160
sS'cancion'
p915
I2976
sS'post-hardcore'
p916
I1765
sS'alto horn'
p917
I2019
sS'physical education'
p918
I1540
sS'motion pictures'
p919
I1237
sS'ballet'
p920
I574
sS'alto clarinet'
p921
I2867
sS'finance management'
p922
I2939
sS'glockenspiel'
p923
I1755
sS'knowledge discovery'
p924
I3101
sS'netball'
p925
I115
sS'business psychology'
p926
I2000
sS'environment'
p927
I82
sS'scientific visualization'
p928
I2843
sS'kinnor'
p929
I647
sS'iaijutsu'
p930
I3046
sS'frontenis'
p931
I2725
sS'giga'
p932
I238
sS'winemaking'
p933
I1837
sS'electric violin'
p934
I2402
sS'modernization theory'
p935
I2082
sS'electronics engineering'
p936
I2640
sS'string'
p937
I1315
sS'computer programmer'
p938
I1852
sS'espa\xc3\xb1ol'
p939
I932
sS"00's"
p940
I2978
sS'alto saxophone'
p941
I2354
sS'screenwriting'
p942
I1703
sS'greyhound racing'
p943
I2494
sS'bamboo flute'
p944
I2079
sS'photographic reporting'
p945
I2003
sS'computability theory'
p946
I770
sS'bassline'
p947
I2204
sS'gayageum'
p948
I3609
sS'judaism'
p949
I1483
sS'crust punk'
p950
I2087
sS'concept art'
p951
I1430
sS'jazz blues'
p952
I489
sS'standards'
p953
I2189
sS'civil engineering'
p954
I885
sS'diy'
p955
I438
sS'guitars'
p956
I160
sS'real estate'
p957
I945
sS"90's"
p958
I1490
sS'mathematical astronomy'
p959
I2830
sS'nortec'
p960
I2357
sS'spiritual'
p961
I207
sS'revolution'
p962
I534
sS'design pattern'
p963
I2480
sS'psycholinguistics'
p964
I1453
sS'collage'
p965
I1171
sS'film studies'
p966
I1085
sS'seido'
p967
I3549
sS'agroforestry'
p968
I1797
sS'a cappella'
p969
I1252
sS'sport studies'
p970
I877
sS'radio comedy'
p971
I1549
sS'top 40'
p972
I1908
sS'portfolio management'
p973
I3414
sS'parachuting'
p974
I188
sS'hymn'
p975
I2353
sS'pan flute'
p976
I2265
sS'biometrics'
p977
I3535
sS'indie rock'
p978
I732
sS'urbanism'
p979
I31
sS'slavistics'
p980
I864
sS'ufo'
p981
I1484
sS'olifant'
p982
I297
sS'fan club'
p983
I2573
sS'mainland china'
p984
I2737
sS'psychophysiology'
p985
I1831
sS'country pop'
p986
I1666
sS'creative writing'
p987
I416
sS'international'
p988
I175
sS'geography'
p989
I287
sS'vexillology'
p990
I2368
sS'music performance'
p991
I1577
sS'tabletop game'
p992
I1593
sS'transportation'
p993
I587
sS'oldies'
p994
I461
sS'social technology'
p995
I2639
sS'logrolling'
p996
I3400
sS'chalga'
p997
I3094
sS'french'
p998
I173
sS'ausdruckstanz'
p999
I2181
sS'guitar comedy'
p1000
I2202
sS'baseball'
p1001
I50
sS'yuka'
p1002
I2633
sS'boogaloo'
p1003
I1984
sS'child psychology'
p1004
I1510
sS'software development'
p1005
I982
sS'special education'
p1006
I1722
sS'scoutball'
p1007
I3350
sS'kalarippayattu'
p1008
I2213
sS'boi'
p1009
I1031
sS'baritone horn'
p1010
I1932
sS'freerunning'
p1011
I1355
sS'medieval history'
p1012
I525
sS'stage design'
p1013
I688
sS'vocals'
p1014
I1498
sS'filmi pop'
p1015
I2789
sS'chemical biology'
p1016
I1944
sS'timpani'
p1017
I2523
sS'humour'
p1018
I429
sS'dark cabaret'
p1019
I1012
sS'italiano'
p1020
I951
sS'animal science'
p1021
I919
sS'freestyle bmx'
p1022
I2695
sS'europop'
p1023
I3513
sS'baroque violin'
p1024
I3564
sS'marker'
p1025
I1167
sS'semiology'
p1026
I1872
sS'dental surgery'
p1027
I2982
sS'sciences humaines'
p1028
I1684
sS'engineering drawing'
p1029
I3239
sS'filmi'
p1030
I172
sS'abstract algebra'
p1031
I3204
sS'sport management'
p1032
I1707
sS'duda'
p1033
I1087
sS'future bass'
p1034
I3244
sS'sports'
p1035
I37
sS'healthcare informatics'
p1036
I1594
sS'comic book'
p1037
I542
sS'hard dance'
p1038
I2384
sS'horse racing'
p1039
I1643
sS'beadwork'
p1040
I2366
sS'amateur radio'
p1041
I850
sS'egyptology'
p1042
I1022
sS'bass saxophone'
p1043
I3080
sS'theatre music'
p1044
I152
sS'vale tudo'
p1045
I3207
sS'girl group'
p1046
I3060
sS'chicago blues'
p1047
I3191
sS'unicycling'
p1048
I504
sS'geophysics'
p1049
I1929
sS'revolutionary war'
p1050
I3626
sS'health education'
p1051
I1832
sS'educational music'
p1052
I1244
sS'business admin.'
p1053
I3063
sS'international studies'
p1054
I1671
sS'applied linguistics'
p1055
I1111
sS'dirty south'
p1056
I2597
sS'organizations'
p1057
I247
sS'aggrotech'
p1058
I2091
sS'judo'
p1059
I612
sS'food engineering'
p1060
I1415
sS'caribbean literature'
p1061
I2611
sS'video games'
p1062
I155
sS'soul'
p1063
I148
sS'machine learning'
p1064
I942
sS'printing'
p1065
I552
sS'modern art'
p1066
I232
sS'dream house'
p1067
I2363
sS'krautrock'
p1068
I2395
sS'bioengineering'
p1069
I2100
sS'laughter'
p1070
I503
sS'makina'
p1071
I1399
sS'upright bass'
p1072
I644
sS'nursing'
p1073
I794
sS'fullon'
p1074
I3147
sS'post-industrial'
p1075
I991
sS'world literature'
p1076
I1043
sS'avant-garde jazz'
p1077
I3550
sS'parranda'
p1078
I2315
sS'skydiving'
p1079
I71
sS'rock collecting'
p1080
I2324
sS'interior decoration'
p1081
I544
sS'architectural history'
p1082
I911
sS'atmospheric physics'
p1083
I3273
sS'fantasy literature'
p1084
I882
sS'shinty'
p1085
I883
sS'organizational behavior'
p1086
I1626
sS'acid rock'
p1087
I2111
sS'scat'
p1088
I1476
sS'lounge'
p1089
I276
sS'capoeira angola'
p1090
I513
sS'tapestry'
p1091
I1058
sS'fps'
p1092
I920
sS'social psychology'
p1093
I983
sS'drum machine'
p1094
I2071
sS'photography'
p1095
I41
sS'concert band'
p1096
I913
sS'sports news'
p1097
I1061
sS'computational biology'
p1098
I1825
sS'arm wrestling'
p1099
I1265
sS'freethought'
p1100
I2310
sS'jousting'
p1101
I2613
sS'medical engineering'
p1102
I3083
sS'political science'
p1103
I680
sS'comedy rock'
p1104
I2593
sS'sociolinguistics'
p1105
I1905
sS'surfing'
p1106
I85
sS'ss'
p1107
I2793
sS'visual kei'
p1108
I1719
sS'cosmology'
p1109
I2
sS'trampolining'
p1110
I683
sS'francais'
p1111
I1151
sS'amateur astronomy'
p1112
I2085
sS'dutch language'
p1113
I2651
sS'roller derby'
p1114
I1035
sS'catch wrestling'
p1115
I3001
sS'manga'
p1116
I161
sS'se'
p1117
I434
sS'soukous'
p1118
I2575
sS'oncology'
p1119
I2638
sS'vietnam war'
p1120
I2859
sS'monoski'
p1121
I1842
sS'progressive metal'
p1122
I1847
sS'dj music'
p1123
I2358
sS'portative organ'
p1124
I3177
sS'military science'
p1125
I2662
sS'blues dance'
p1126
I1272
sS'veena'
p1127
I2484
sS'plant collecting'
p1128
I2837
sS'habitat conservation'
p1129
I3368
sS'group'
p1130
I322
sS'lied'
p1131
I2510
sS'classic pop'
p1132
I1710
sS'accordion'
p1133
I969
sS'audio technology'
p1134
I3107
sS'board games'
p1135
I597
sS'nuclear engineering'
p1136
I3113
sS'independent music'
p1137
I1824
sS'control theory'
p1138
I699
sS'digital media'
p1139
I1266
sS'jit'
p1140
I815
sS'tangos'
p1141
I1587
sS'dance improvisation'
p1142
I1614
sS'urban sociology'
p1143
I1197
sS'indie-electro'
p1144
I724
sS'water skiing'
p1145
I156
sS'turkish language'
p1146
I2385
sS'chamber music'
p1147
I2158
sS'beekeeping'
p1148
I961
sS'earthquake engineering'
p1149
I3352
sS'finance'
p1150
I312
sS'indie folk'
p1151
I1886
sS'variety show'
p1152
I1635
sS'regency dance'
p1153
I2088
sS'chemistry;mathematics'
p1154
I2826
sS'diva house'
p1155
I2704
sS'semiotics'
p1156
I1229
sS'aqua aerobics'
p1157
I2949
sS'occult'
p1158
I1350
sS'teen pop'
p1159
I3570
sS'pommer'
p1160
I1359
sS'sonification'
p1161
I3417
sS'language acquisition'
p1162
I1361
sS'opera'
p1163
I505
sS'set theory'
p1164
I1064
sS'show jumping'
p1165
I1327
sS'ethnobotany'
p1166
I739
sS'orpharion'
p1167
I426
sS'fiction writing'
p1168
I1384
sS'synchronized swimming'
p1169
I1863
sS'ssireum'
p1170
I2682
sS'bowling'
p1171
I51
sS'violon alto'
p1172
I3303
sS'liberal arts'
p1173
I1901
sS'turtle'
p1174
I878
sS'pungi'
p1175
I3592
sS'soul music'
p1176
I1194
sS'electric piano'
p1177
I2692
sS'alternative 90s'
p1178
I2067
sS'kane'
p1179
I1690
sS'directing'
p1180
I1142
sS'sexuality'
p1181
I147
sS'high fantasy'
p1182
I2620
sS'skicross'
p1183
I3597
sS'shotokan'
p1184
I1790
sS'social institutions'
p1185
I3489
sS'hacker'
p1186
I113
sS'renaissance music'
p1187
I2476
sS'inorganic chemistry'
p1188
I2199
sS'player piano'
p1189
I383
sS'grime'
p1190
I1369
sS'alarm clock'
p1191
I2210
sS'dance mix'
p1192
I2276
sS'gaida'
p1193
I2965
sS'doumbek'
p1194
I2784
sS'dutch'
p1195
I1124
sS'medical ethics'
p1196
I2572
sS'latin rock'
p1197
I1951
sS'elementary education'
p1198
I1957
sS'jazz band'
p1199
I601
sS'hula'
p1200
I400
sS'theory'
p1201
I48
sS'uptempo'
p1202
I2277
sS'existentialism'
p1203
I1290
sS'czech literature'
p1204
I1774
sS'freestyle music'
p1205
I3012
sS'danz\xc3\xb3n'
p1206
I3348
sS'natural horn'
p1207
I796
sS'california'
p1208
I784
sS'euro disco'
p1209
I3613
sS'rebec'
p1210
I2566
sS'biophysics'
p1211
I2326
sS'training'
p1212
I138
sS'natural resources'
p1213
I1950
sS'language'
p1214
I136
sS'bandoneon'
p1215
I2360
sS'soul blues'
p1216
I1001
sS'viet'
p1217
I1282
sS'punk'
p1218
I378
sS'clarion'
p1219
I1374
sS'ethology'
p1220
I897
sS'vaccination'
p1221
I2920
sS'industrial technology'
p1222
I2493
sS'microlending'
p1223
I2334
sS'tai chi chuan'
p1224
I2951
sS'swing'
p1225
I270
sS'geomorphology'
p1226
I1938
sS'charleston'
p1227
I812
sS'gangsta rap'
p1228
I2027
sS'bali silat'
p1229
I1756
sS'acoustic music'
p1230
I861
sS'cheese'
p1231
I547
sS'tennis'
p1232
I167
sS'americana'
p1233
I616
sS'bioinformatics'
p1234
I658
sS'media technology'
p1235
I1695
sS'kantele'
p1236
I2155
sS'cybernetics'
p1237
I2305
sS'txalaparta'
p1238
I3600
sS'family history'
p1239
I1596
sS'spanish'
p1240
I84
sS'tech news'
p1241
I2150
sS'hard rock'
p1242
I333
sS'search marketing'
p1243
I3106
sS'data mapping'
p1244
I3467
sS'folk punk'
p1245
I279
sS'city'
p1246
I10
sS'chanson'
p1247
I633
sS'daytime drama'
p1248
I3480
sS'modern pentathlon'
p1249
I2691
sS'phonetics'
p1250
I2043
sS'jewish studies'
p1251
I2458
sS'living poetry'
p1252
I1840
sS'schlager'
p1253
I1247
sS'arghul'
p1254
I2106
sS'organizational studies'
p1255
I2142
sS'bicycle collecting'
p1256
I2562
sS'acid jazz'
p1257
I1105
sS'drum n bass'
p1258
I2228
sS'microhouse'
p1259
I3304
sS'nutrition'
p1260
I731
sS'mining'
p1261
I1173
sS'popular music'
p1262
I788
sS'bmx racing'
p1263
I3162
sS'naginata'
p1264
I3047
sS'taxation'
p1265
I1138
sS'shawm'
p1266
I2742
sS'vocal jazz'
p1267
I2607
sS'cheerleading'
p1268
I1819
sS'chemical sciences'
p1269
I1639
sS'indian music'
p1270
I1471
sS'ethnohistory'
p1271
I3150
sS'progg'
p1272
I2009
sS'gin'
p1273
I244
sS'genge'
p1274
I3619
sS'global health'
p1275
I1882
sS'semantics'
p1276
I674
sS'ceramics'
p1277
I563
sS'art history'
p1278
I334
sS'theatre arts'
p1279
I754
sS'television'
p1280
I676
sS'forensic chemistry'
p1281
I3469
sS'slow food'
p1282
I573
sS'sailing'
p1283
I97
sS'visual analytics'
p1284
I3506
sS'historical reenactment'
p1285
I1652
sS'typography'
p1286
I1220
sS'family laws'
p1287
I3321
sS'metabolism'
p1288
I1535
sS'karate'
p1289
I641
sS'kinesiology'
p1290
I1331
sS'computer'
p1291
I194
sS'business management'
p1292
I1010
sS'desert rock'
p1293
I917
sS'cymbals'
p1294
I1448
sS'trash rock'
p1295
I3243
sS'luge'
p1296
I289
sS'community networking'
p1297
I2068
sS'marrabenta'
p1298
I3621
sS'rumba flamenca'
p1299
I2998
sS'drum set'
p1300
I1632
sS'military history'
p1301
I1495
sS'piccolo'
p1302
I1324
sS'persian literature'
p1303
I2029
sS'crossover'
p1304
I2498
sS'saz'
p1305
I2156
sS'merengue music'
p1306
I3184
sS'wing chun'
p1307
I1279
sS'nazi'
p1308
I1714
sS'marathon'
p1309
I686
sS'field hockey'
p1310
I799
sS'italian language'
p1311
I986
sS'corporate finance'
p1312
I3491
sS'hung gar'
p1313
I3161
sS'home decor'
p1314
I1676
sS'nonlocality'
p1315
I2282
sS'sciences'
p1316
I205
sS'rudra veena'
p1317
I1362
sS'animation'
p1318
I226
sS'nota'
p1319
I3326
sS'mobb music'
p1320
I3615
sS'sport rowing'
p1321
I1747
sS'performance'
p1322
I267
sS'tambourine'
p1323
I1497
sS'marine science'
p1324
I1436
sS'ultimate'
p1325
I528
sS'tape music'
p1326
I3311
sS'denistry'
p1327
I989
sS'computer applications'
p1328
I1816
sS'theatre'
p1329
I30
sS'long jump'
p1330
I2893
sS'finnish tango'
p1331
I2421
sS'murder mystery'
p1332
I2739
sS'crochet'
p1333
I153
sS'cb radio'
p1334
I3392
sS'systems integration'
p1335
I3492
sS'modern music'
p1336
I779
sS'olympic games'
p1337
I1990
sS'electro rock'
p1338
I1283
sS'camping'
p1339
I9
sS'transnationality'
p1340
I1963
sS'dramyin'
p1341
I3441
sS'koras'
p1342
I2896
sS'gothic rock'
p1343
I2779
sS'metalworking'
p1344
I1183
sS'change ringing'
p1345
I3536
sS'veterinary sciences'
p1346
I3266
sS'upic'
p1347
I3514
sS'professional'
p1348
I151
sS"80's"
p1349
I355
sS'cultural anthropology'
p1350
I1055
sS'freestyle skiing'
p1351
I1515
sS'laws'
p1352
I1465
sS'nlp'
p1353
I943
sS'walking'
p1354
I60
sS'claves'
p1355
I2812
sS'industrial techno'
p1356
I3194
sS'german'
p1357
I79
sS'computational statistics'
p1358
I2925
sS'kendo'
p1359
I642
sS'wind machine'
p1360
I2267
sS'shoa'
p1361
I342
sS'competitive eating'
p1362
I2851
sS'scale model'
p1363
I2485
sS'contemporary country'
p1364
I2940
sS'ocarina'
p1365
I944
sS'mexican rock'
p1366
I2356
sS'trot'
p1367
I1101
sS'deportation'
p1368
I42
sS'pandeiro'
p1369
I1770
sS'extreme ironing'
p1370
I2246
sS'continuum mechanics'
p1371
I3192
sS'crime'
p1372
I475
sS'spirituality'
p1373
I402
sS'hockey'
p1374
I326
sS'tibetan music'
p1375
I2678
sS'colloid chemistry'
p1376
I3285
sS'arab music'
p1377
I1792
sS'punk blues'
p1378
I2122
sS'informatique'
p1379
I1617
sS'future jazz'
p1380
I2400
sS'hailes'
p1381
I1879
sS'pipe organ'
p1382
I1556
sS'modern dance'
p1383
I891
sS'personal computer'
p1384
I3275
sS'jazz'
p1385
I556
sS'homebrewing'
p1386
I602
sS'slide guitar'
p1387
I2727
sS'electrojazz'
p1388
I1818
sS'pharmacogenomics'
p1389
I3473
sS'framing'
p1390
I857
sS'singer-songwriter'
p1391
I985
sS'systems biology'
p1392
I2684
sS'mysticism'
p1393
I640
sS'paleoanthropology'
p1394
I1974
sS'bass drum'
p1395
I1416
sS'blends'
p1396
I1554
sS'bomba'
p1397
I1071
sS'gibson sg'
p1398
I3442
sS'naker'
p1399
I873
sS'keyboards'
p1400
I694
sS'morning'
p1401
I87
sS'incidental music'
p1402
I3464
sS'toy piano'
p1403
I2956
sS'international economics'
p1404
I1609
sS'basic medicine'
p1405
I3112
sS'torban'
p1406
I3411
sS'bachata'
p1407
I758
sS'biogeography'
p1408
I1372
sS'great books'
p1409
I718
sS'classical funk'
p1410
I2112
sS'moog synthesizer'
p1411
I3519
sS'economic development'
p1412
I584
sS'trail riding'
p1413
I1890
sS'new wave'
p1414
I1782
sS'college'
p1415
I344
sS'physical science'
p1416
I1449
sS'criminal law'
p1417
I1965
sS'surgery'
p1418
I1543
sS'sport'
p1419
I118
sS'evolutionary biology'
p1420
I409
sS'new blues'
p1421
I3407
sS'developmental linguistics'
p1422
I2953
sS'dressage'
p1423
I580
sS'italian jazz'
p1424
I2681
sS'health informatics'
p1425
I3291
sS'siter'
p1426
I104
sS'urban studies'
p1427
I1970
sS'kempul'
p1428
I2791
sS'farfisa'
p1429
I3227
sS'gaga'
p1430
I1175
sS'military tactics'
p1431
I3459
sS'surbahar'
p1432
I1363
sS'klezmer'
p1433
I1029
sS'shoegazing'
p1434
I651
sS'psychedelic music'
p1435
I738
sS'kite culture'
p1436
I3488
sS'punto'
p1437
I793
sS'guitar'
p1438
I174
sS'chacha'
p1439
I2188
sS'dixieland'
p1440
I3058
sS'conscious hip hop'
p1441
I3212
sS'boomerang'
p1442
I2007
sS'jugger'
p1443
I1673
sS'comb'
p1444
I976
sS'foxtrot'
p1445
I2403
sS'rugby'
p1446
I347
sS'data visualization'
p1447
I3081
sS'gothic fiction'
p1448
I3410
sS'carnatic music'
p1449
I3052
sS'yiquan'
p1450
I3166
sS'chromatic harmonica'
p1451
I3229
sS'residency'
p1452
I902
sS'probability theory'
p1453
I934
sS'software engineer'
p1454
I1176
sS'pop punk'
p1455
I2200
sS'greek language'
p1456
I2074
sS'legal studies'
p1457
I2159
sS'cancer'
p1458
I485
sS'kazoo'
p1459
I1473
sS'robotics'
p1460
I735
sS'pop'
p1461
I393
sS'wine tasting'
p1462
I277
sS'learning'
p1463
I5
sS'data mining'
p1464
I2133
sS'polo'
p1465
I955
sS'information science'
p1466
I1764
sS'guitarron'
p1467
I2086
sS'virtual reality'
p1468
I2254
sS'golf fitness'
p1469
I3096
sS'textile technology'
p1470
I2962
sS'epistemology'
p1471
I532
sS'arts'
p1472
I168
sS'cycling'
p1473
I95
sS'international education'
p1474
I2151
sS'bansuri'
p1475
I1623
sS'tropical'
p1476
I834
sS'uv astronomy'
p1477
I2723
sS'son montuno'
p1478
I3325
sS'shakers'
p1479
I1165
sS'davul'
p1480
I555
sS'serious game'
p1481
I1878
sS'chicago house'
p1482
I2803
sS'direction'
p1483
I578
sS'charango'
p1484
I996
sS'shopping'
p1485
I364
sS'battojutsu'
p1486
I3045
sS'molecular biology'
p1487
I1642
sS'true metal'
p1488
I3252
sS'squash'
p1489
I427
sS'nordic walking'
p1490
I860
sS'classical music'
p1491
I729
sS'soapbox'
p1492
I3373
sS'cloud watching'
p1493
I1403
sS'brass instrument'
p1494
I2089
sS'futsal'
p1495
I366
sS'virginals'
p1496
I1033
sS'bendir'
p1497
I2941
sS'political management'
p1498
I2148
sS'early music'
p1499
I1412
sS'deltiology'
p1500
I3434
sS'northern soul'
p1501
I1658
sS'serialism'
p1502
I307
sS'port engineering'
p1503
I3099
sS'seggae'
p1504
I2413
sS'sci-fi music'
p1505
I3196
sS'language courses'
p1506
I1743
sS'trance music'
p1507
I1180
sS'world news'
p1508
I1318
sS'xingyiquan'
p1509
I2239
sS'newspaper'
p1510
I629
sS'underground rap'
p1511
I3181
sS'samba funk'
p1512
I3111
sS'mass communication'
p1513
I1354
sS'kuduro'
p1514
I2431
sS'roller sport'
p1515
I1713
sS'viking metal'
p1516
I3330
sS'international security'
p1517
I2873
sS'management science'
p1518
I1311
sS'accounting'
p1519
I483
sS'analytic philosophy'
p1520
I2538
sS'rugby football'
p1521
I1489
sS'boy band'
p1522
I2163
sS'technology'
p1523
I308
sS'arp 2600'
p1524
I3031
sS'furniture music'
p1525
I3190
sS'electronic organ'
p1526
I1393
sS'religious music'
p1527
I1584
sS'pepa'
p1528
I379
sS'media'
p1529
I373
sS'structural biology'
p1530
I2449
sS'nuevo tango'
p1531
I2764
sS'speech'
p1532
I1527
sS'aerobics'
p1533
I403
sS'paddle tennis'
p1534
I1309
sS'kajukenbo'
p1535
I3328
sS'circle dance'
p1536
I1178
sS'punk jazz'
p1537
I2644
sS'model building'
p1538
I1256
sS'environmental planning'
p1539
I2852
sS'space rock'
p1540
I3095
sS'drone music'
p1541
I3137
sS'tecno brega'
p1542
I3622
sS'house music'
p1543
I887
sS'derecho'
p1544
I1301
sS'disco music'
p1545
I771
sS'drum programming'
p1546
I2719
sS'zooarchaeology'
p1547
I3125
sS'mountain unicycling'
p1548
I2621
sS'running'
p1549
I59
sS'alt-country'
p1550
I3009
sS'lute'
p1551
I2014
sS'special interests'
p1552
I959
sS'advertisement'
p1553
I1172
sS'techno music'
p1554
I1858
sS'climbing'
p1555
I13
sS'electrical engineer'
p1556
I1925
sS'freak folk'
p1557
I3126
sS'control systems'
p1558
I1945
sS'theater'
p1559
I169
sS'gaelic football'
p1560
I1855
sS'bagpipes'
p1561
I604
sS'biwa'
p1562
I1685
sS'semantic web'
p1563
I2624
sS'relief'
p1564
I1786
sS'concert march'
p1565
I1817
sS'behaviorism'
p1566
I1452
sS'film music'
p1567
I570
sS'glass art'
p1568
I975
sS'environmental engineering'
p1569
I2167
sS'microkorg'
p1570
I2707
sS'electrical science'
p1571
I3142
sS'other instruments'
p1572
I695
sS'digital marketing'
p1573
I2786
sS'performing arts'
p1574
I858
sS'outdoor'
p1575
I35
sS'natural sciences'
p1576
I823
sS'cat\xc3\xb3lica'
p1577
I3371
sS'flugelhorn'
p1578
I2318
sS'actress'
p1579
I1569
sS'brazillian music'
p1580
I360
sS'bertsolaritza'
p1581
I1900
sS'speedrock'
p1582
I3173
sS'glaciology'
p1583
I3453
sS'heuristic'
p1584
I69
sS'samba'
p1585
I362
sS'breaking news'
p1586
I3078
sS'public administration'
p1587
I3374
sS'mandolin'
p1588
I507
sS'yu'
p1589
I1702
sS'sambo'
p1590
I2932
sS'musical theater'
p1591
I1217
sS'contesting'
p1592
I572
sS'foreign relations'
p1593
I2266
sS'biomedical sciences'
p1594
I3146
sS'sampler'
p1595
I681
sS'funk music'
p1596
I1028
sS'evolutionary systematics'
p1597
I2574
sS'peteca'
p1598
I3349
sS'careers'
p1599
I2482
sS'geodesy'
p1600
I1773
sS'steeldrum'
p1601
I2637
sS'agricultural economics'
p1602
I2697
sS'jazz manouche'
p1603
I519
sS'shakuhachi'
p1604
I2489
sS'general chemistry'
p1605
I2287
sS'sumo'
p1606
I1748
sS'geriatrics'
p1607
I1883
sS'tech house'
p1608
I1329
sS'parody'
p1609
I2541
sS'rugby league'
p1610
I1215
sS'railroad'
p1611
I933
sS'mod'
p1612
I414
sS'irish bouzouki'
p1613
I3033
sS'dog agility'
p1614
I2517
sS'net art'
p1615
I2021
sS'musical performance'
p1616
I1330
sS'space physics'
p1617
I2248
sS'bungee jumping'
p1618
I33
sS'biathlon'
p1619
I511
sS'cinema studies'
p1620
I2457
sS'contemporary dance'
p1621
I404
sS'base jumping'
p1622
I685
sS'ehealth'
p1623
I2961
sS'demography'
p1624
I1558
sS'pop soul'
p1625
I2481
sS'cancer biology'
p1626
I3077
sS'fives'
p1627
I476
sS'bass violin'
p1628
I2053
sS'public relations'
p1629
I721
sS'dilbert'
p1630
I1887
sS'alternative health'
p1631
I440
sS'classical studies'
p1632
I2116
sS'information retrieval'
p1633
I3023
sS'proteomics'
p1634
I3385
sS'gerontology'
p1635
I2539
sS'chacarera'
p1636
I2916
sS'diving'
p1637
I16
sS'kyokushin'
p1638
I1386
sS'public service'
p1639
I1547
sS'afro pop'
p1640
I3028
sS'square dance'
p1641
I1099
sS'pilates'
p1642
I248
sS'genetics'
p1643
I1130
sS'moog'
p1644
I1342
sS'modern rock'
p1645
I2256
sS'afrobeat'
p1646
I2191
sS"children's books"
p1647
I1233
sS'tuba'
p1648
I198
sS'parasitology'
p1649
I821
sS'body piercing'
p1650
I1805
sS'pentathlon'
p1651
I2957
sS'melodic hardcore'
p1652
I3354
sS'autoharp'
p1653
I1708
sS'sousaphone'
p1654
I2190
sS'programming language'
p1655
I1539
sS'birdfeeding'
p1656
I3233
sS'jewelry design'
p1657
I1637
sS'football'
p1658
I112
sS'educational theory'
p1659
I1086
sS'legal philosophy'
p1660
I316
sS'river running'
p1661
I1564
sS'manufacturing engineering'
p1662
I1693
sS'secondary education'
p1663
I2908
sS'jazz studies'
p1664
I1979
sS'comparative government'
p1665
I1907
sS'racial inequality'
p1666
I3566
sS'drums'
p1667
I213
sS'us news'
p1668
I1646
sS'acid techno'
p1669
I2981
sS'biomedical engineering'
p1670
I772
sS'kite flying'
p1671
I960
sS'emeiquan'
p1672
I3358
sS'rogaining'
p1673
I1947
sS'organic chemistry'
p1674
I1843
sS'conducting'
p1675
I1134
sS'firebird'
p1676
I3223
sS'broken beat'
p1677
I2139
sS'chamberlin'
p1678
I3437
sS'security studies'
p1679
I2856
sS'ideology'
p1680
I1228
sS'preventive medicine'
p1681
I2771
sS'exotica'
p1682
I562
sS'natural medicine'
p1683
I1184
sS'stradivarius'
p1684
I3611
sS'oncology nursing'
p1685
I2124
sS'ecommerce'
p1686
I2603
sS'curling'
p1687
I598
sS'old salsa'
p1688
I2521
sS'systems science'
p1689
I3141
sS'communication'
p1690
I439
sS'smooth jazz'
p1691
I2466
sS'group dance'
p1692
I1964
sS'film production'
p1693
I111
sS'bjj'
p1694
I1575
sS'tenor saxophone'
p1695
I2179
sS'italian opera'
p1696
I2549
sS'mathematical physics'
p1697
I1640
sS'warr guitar'
p1698
I3487
sS'digital synthesizer'
p1699
I2702
sS'yacht racing'
p1700
I3218
sS'music visualization'
p1701
I1135
sS'lead guitar'
p1702
I2838
sS'rap music'
p1703
I1741
sS'semba'
p1704
I2432
sS'racquet'
p1705
I588
sS'transportation engineering'
p1706
I3032
sS'radiology'
p1707
I2927
sS'emergency medicine'
p1708
I1302
sS'crunk'
p1709
I625
sS'environmental geology'
p1710
I2314
sS'communication design'
p1711
I1186
sS'ultramarathon'
p1712
I1210
sS'christianity'
p1713
I330
sS'book collecting'
p1714
I1325
sS'synth metal'
p1715
I2269
sS'harpsichord'
p1716
I1413
sS'underwater rugby'
p1717
I2032
sS'valencia'
p1718
I998
sS'psychopharmacology'
p1719
I929
sS'wine making'
p1720
I185
sS'human relations'
p1721
I1128
sS'industrial metal'
p1722
I2783
sS'interfaith'
p1723
I2252
sS'grunge'
p1724
I775
sS'jug'
p1725
I1980
sS'fluxus'
p1726
I1106
sS'remix'
p1727
I2435
sS'booty house'
p1728
I3595
sS'indian rock'
p1729
I1595
sS'indian dance'
p1730
I1126
sS'astrolog\xc3\xada'
p1731
I1916
sS'electroclash'
p1732
I2543
sS'chemical engineering'
p1733
I1380
sS'computer security'
p1734
I1709
sS'drum and bass'
p1735
I3524
sS'podcast'
p1736
I1254
sS'audio production'
p1737
I2288
sS'squash rackets'
p1738
I1662
sS'cytology'
p1739
I3485
sS'miniature golf'
p1740
I1861
sS'comics'
p1741
I255
sS'electronic rap'
p1742
I2840
sS'harmonica blues'
p1743
I3248
sS'melodeon'
p1744
I2912
sS'spamming'
p1745
I2504
sS'kalimba'
p1746
I1649
sS'computational photography'
p1747
I448
sS'ceng'
p1748
I3617
sS'roots reggae'
p1749
I1954
sS'russ'
p1750
I3022
sS'communication studies'
p1751
I1651
sS'applied computing'
p1752
I2362
sS'beach rock'
p1753
I1438
sS'gong'
p1754
I1147
sS'ad'
p1755
I1091
sS'cinema'
p1756
I163
sS'ai'
p1757
I833
sS'gouren'
p1758
I2770
sS'hurdy gurdy'
p1759
I1940
sS'sales'
p1760
I516
sS'health care'
p1761
I460
sS'organ transplant'
p1762
I3050
sS'hobbies'
p1763
I339
sS'politics'
p1764
I73
sS'surf punk'
p1765
I2877
sS'film'
p1766
I190
sS'french rock'
p1767
I2422
sS'geographic medicine'
p1768
I2672
sS'yoga'
p1769
I32
sS'baglama'
p1770
I1862
sS'bicycling'
p1771
I75
sS'piracy'
p1772
I1243
sS'dramatic literature'
p1773
I1446
sS'hellenistic philosophy'
p1774
I3463
sS'dream pop'
p1775
I3353
sS'penicillin'
p1776
I3422
sS'new age'
p1777
I1060
sS'non-associative algebra'
p1778
I3479
sS'storytelling game'
p1779
I2895
sS'beach tennis'
p1780
I1801
sS'gambling'
p1781
I407
sS'goalball'
p1782
I1725
sS'string bass'
p1783
I3079
sS'son jarocho'
p1784
I1961
sS'county collecting'
p1785
I3279
sS'parkour'
p1786
I725
sS'spanish guitar'
p1787
I895
sS'chorale'
p1788
I634
sS'still photographer'
p1789
I2861
sS'urban exploration'
p1790
I210
sS'nederlands'
p1791
I999
sS'seismology'
p1792
I1821
sS'mechanical'
p1793
I789
sS'cuica'
p1794
I3167
sS'fluid dynamics'
p1795
I3152
sS'brass'
p1796
I1949
sS'pool'
p1797
I396
sS'economic history'
p1798
I1037
sS'marine biology'
p1799
I1455
sS'ball badminton'
p1800
I1808
sS'french boxing'
p1801
I713
sS'madrigal'
p1802
I2618
sS"rock n' roll"
p1803
I1680
sS'mento'
p1804
I3344
sS'indietronica'
p1805
I2183
sS'combat sport'
p1806
I2445
sS'talking blues'
p1807
I2514
sS'mathmatics'
p1808
I3014
sS'korean drum'
p1809
I2804
sS'interaction design'
p1810
I1910
sS'urban education'
p1811
I1934
sS'combinatorial mathematics'
p1812
I3501
sS'turkish music'
p1813
I2359
sS'strings'
p1814
I710
sS'\xd8\xa7\xd9\x84\xd9\x84\xd8\xba\xd8\xa9 \xd8\xa7\xd9\x84\xd8\xb9\xd8\xb1\xd8\xa8\xd9\x8a\xd8\xa9'
p1815
I3121
sS'internet advertising'
p1816
I1394
sS'engineering technology'
p1817
I576
sS'geoinformatics'
p1818
I2424
sS'speedcore'
p1819
I918
sS'allergy'
p1820
I1928
sS'gothic funk'
p1821
I3448
sS'mammalogy'
p1822
I3574
sS'cooperative'
p1823
I964
sS'welfare'
p1824
I643
sS'aggressive inline skating'
p1825
I2599
sS'meditation'
p1826
I86
sS'gemology'
p1827
I2653
sS'chill out music'
p1828
I2313
sS'hardcore'
p1829
I1202
sS'folk dance'
p1830
I797
sS'hunting'
p1831
I546
sS'tv'
p1832
I123
sS'frame drum'
p1833
I1166
sS'savate'
p1834
I116
sS'bandola'
p1835
I3521
sS'physical fitness'
p1836
I1144
sS'japanese language'
p1837
I948
sS'modernization'
p1838
I3085
sS'ugal'
p1839
I1212
sS'mathematical analysis'
p1840
I3286
sS'adani'
p1841
I3271
sS'qawwali'
p1842
I2955
sS'materials science'
p1843
I767
sS'mpb'
p1844
I787
sS'automobile engineering'
p1845
I1611
sS'horror'
p1846
I392
sS'supercomputer'
p1847
I2535
sS'documentaries'
p1848
I452
sS'british literature'
p1849
I2040
sS'street punk'
p1850
I2763
sS'wushu'
p1851
I1323
sS'foreign service'
p1852
I3499
sS'software developer'
p1853
I2054
sS'infectious diseases'
p1854
I1541
sS'anatolian'
p1855
I1450
sS'castilian'
p1856
I3169
sS'no wave'
p1857
I3296
sS'extreme unicycling'
p1858
I3272
sS'casiotone'
p1859
I2864
sS'shekere'
p1860
I3327
sS'medical technology'
p1861
I1479
sS'lisp'
p1862
I2677
sS'evaluation'
p1863
I2344
sS'variety arts'
p1864
I1149
sS'brazilian jiu-jitsu'
p1865
I1885
sS'hammer throw'
p1866
I3375
sS'phonology'
p1867
I2394
sS'art punk'
p1868
I2130
sS'saxophone'
p1869
I268
sS'krav maga'
p1870
I867
sS'norteno'
p1871
I3300
sS'french house'
p1872
I2412
sS'sanj'
p1873
I299
sS'forensic anthropology'
p1874
I3270
sS'music theatre'
p1875
I351
sS'economics tripos'
p1876
I1423
sS'interdisciplinary studies'
p1877
I2602
sS'raggaeton'
p1878
I1896
sS'folk jazz'
p1879
I1994
sS'design'
p1880
I128
sS'biological chemistry'
p1881
I3156
sS'information design'
p1882
I2172
sS'argentine tango'
p1883
I541
sS'production design'
p1884
I1851
sS'environmental health'
p1885
I1537
sS'investment'
p1886
I353
sS'birdwatching'
p1887
I459
sS'freebord'
p1888
I2207
sS'kubing'
p1889
I1246
sS'internet marketing'
p1890
I2047
sS'investing'
p1891
I315
sS'american war'
p1892
I2790
sS'movie actor'
p1893
I1592
sS'microbiology'
p1894
I820
sS'fashion design'
p1895
I716
sS'version'
p1896
I927
sS'british rock'
p1897
I1077
sS'materials engineering'
p1898
I3420
sS'dulcian'
p1899
I1785
sS'racing'
p1900
I182
sS'combatives'
p1901
I2872
sS'game show'
p1902
I1946
sS'alternative rock'
p1903
I659
sS'christian'
p1904
I1427
sS'slow jam'
p1905
I2563
sS'anti-zionism'
p1906
I3316
sS'game art'
p1907
I1425
sS'buddhist music'
p1908
I931
sS'sacred music'
p1909
I2534
sS'coco'
p1910
I195
sS'ragtime'
p1911
I3089
sS'san shou'
p1912
I3599
sS'moral psychology'
p1913
I2177
sS'ceilidh'
p1914
I2168
sS"women's studies"
p1915
I2709
sS'tragedy'
p1916
I1720
sS'british history'
p1917
I1296
sS'publisher'
p1918
I811
sS'water aerobics'
p1919
I3297
sS'health sciences'
p1920
I2652
sS'vocal trance'
p1921
I2050
sS'computational neuroscience'
p1922
I2661
sS'vietnamese'
p1923
I946
sS'techno'
p1924
I715
sS'bobsledding'
p1925
I3115
sS'advertising'
p1926
I380
sS'numismatics'
p1927
I192
sS'shuffle'
p1928
I1048
sS'family'
p1929
I26
sS'business administration'
p1930
I2568
sS'system analysis'
p1931
I2918
sS'international marketing'
p1932
I3029
sS'graphic design'
p1933
I314
sS'birding'
p1934
I337
sS'enterprise software'
p1935
I3183
sS'triathalon'
p1936
I1140
sS'food chemistry'
p1937
I1833
sS'semiclassical'
p1938
I2442
sS'township music'
p1939
I2871
sS'metallurgy'
p1940
I1704
sS'mountain bike racing'
p1941
I3139
sS'kabak kemane'
p1942
I3312
sS'steel-string guitar'
p1943
I3337
sS'vocal harmony'
p1944
I2308
sS'water basketball'
p1945
I2754
sS'quantum mechanics'
p1946
I1157
sS'shinobue'
p1947
I3396
sS'fingerstyle guitar'
p1948
I2929
sS'biochemistry'
p1949
I1154
sS'disc golf'
p1950
I320
sS'nu rave'
p1951
I3087
sS'haidong gumdo'
p1952
I2630
sS'ballad'
p1953
I381
sS'group theory'
p1954
I2343
sS'tumba'
p1955
I3384
sS'oboe'
p1956
I1119
sS'radio documentary'
p1957
I1717
sS'aves'
p1958
I2243
sS'yuca'
p1959
I1034
sS'instrumental'
p1960
I786
sS'world music'
p1961
I421
sS'hinduism'
p1962
I984
sS'microhistory'
p1963
I1857
sS'minimalist music'
p1964
I749
sS'punctualism'
p1965
I1027
sS'fourth world'
p1966
I2979
sS'film theory'
p1967
I420
sS'breakdance'
p1968
I1152
sS'mathematical game'
p1969
I3606
sS'theater criticism'
p1970
I1784
sS'science'
p1971
I46
sS'bell chimes'
p1972
I3577
sS'food science'
p1973
I1092
sS'tahitian'
p1974
I1664
sS'economics, sociology'
p1975
I2127
sS'jujutsu'
p1976
I1447
sS'performance studies'
p1977
I3104
sS'renaissance literature'
p1978
I1688
sS'vt'
p1979
I2537
sS'history'
p1980
I80
sS'electrogoth'
p1981
I2622
sS'guitar mashing'
p1982
I3589
sS'classic trance'
p1983
I3502
sS'petrology'
p1984
I2987
sS'needlework'
p1985
I1045
sS'ambient'
p1986
I288
sS'andean music'
p1987
I422
sS'darkwave'
p1988
I1285
sS'yiddish'
p1989
I1793
sS'language game'
p1990
I1942
sS'roleplaying game'
p1991
I1300
sS'dendrology'
p1992
I2102
sS'mountain biking'
p1993
I22
sS'biography'
p1994
I424
sS'graphic designer'
p1995
I1524
sS'clinical medicine'
p1996
I2748
sS'triathlon'
p1997
I119
sS'backpacking'
p1998
I103
sS'counseling psychology'
p1999
I3123
sS'lyra'
p2000
I456
sS'breaking'
p2001
I125
sS'duranguense'
p2002
I2370
sS'classical philology'
p2003
I3556
sS'personal computers'
p2004
I2610
sS'food management'
p2005
I1583
sS'plena'
p2006
I2226
sS'nonprofit management'
p2007
I1634
sS'free improvisation'
p2008
I2799
sS'target practice'
p2009
I2589
sS'indian fusion'
p2010
I2548
sS'synthesizer'
p2011
I47
sS'american kenpo'
p2012
I3403
sS'punk rock'
p2013
I228
sS'fly fishing'
p2014
I669
sS'algebra'
p2015
I1398
sS'algebraic combinatorics'
p2016
I3604
sS'lieder'
p2017
I3482
sS'intelligent design'
p2018
I2059
sS'entrepreneurship'
p2019
I940
sS'soundtrack'
p2020
I1284
sS'soil science'
p2021
I1494
sS'adventure'
p2022
I170
sS'softball'
p2023
I53
sS'telecommunications engineering'
p2024
I2271
sS'ethics'
p2025
I121
sS'behavioural sciences'
p2026
I2236
sS'landscape ecology'
p2027
I2391
sS'hip-hop klezmer'
p2028
I3440
sS'remote sensing'
p2029
I508
sS'alternative metal'
p2030
I1809
sS'documentation'
p2031
I1884
sS'volleyball'
p2032
I225
sS'urban design'
p2033
I849
sS'portugu\xc3\xaas'
p2034
I2399
sS'piano pedagogy'
p2035
I3444
sS'chinese philosophy'
p2036
I1382
sS'bocce'
p2037
I1860
sS'ligature'
p2038
I2238
sS'hobby farming'
p2039
I2390
sS'\xd7\xa2\xd7\x91\xd7\xa8\xd7\x99\xd7\xaa'
p2040
I3484
sS'taxonomy'
p2041
I1373
sS'medieval dance'
p2042
I2989
sS'fossil collecting'
p2043
I1677
sS'finacial analysis'
p2044
I3065
sS'active rock'
p2045
I2045
sS'jump rope'
p2046
I1169
sS'clarinet'
p2047
I1123
sS'surgeon'
p2048
I2520
sS'roots'
p2049
I397
sS'astrology'
p2050
I592
sS'normative theory'
p2051
I2479
sS'style'
p2052
I20
sS'string instrument'
p2053
I2600
sS'systema'
p2054
I1445
sS'kumdo'
p2055
I2694
sS'grand piano'
p2056
I733
sS'funky breaks'
p2057
I2598
sS'cryptology'
p2058
I2296
sS'environmentalism'
p2059
I150
sS'information visualization'
p2060
I1912
sS'astrochemistry'
p2061
I3573
sS'education technology'
p2062
I2136
sS'plant pathology'
p2063
I2760
sS'hang gliding'
p2064
I1417
sS'soccer'
p2065
I117
sS'fishing game'
p2066
I2992
sS'rowing exercise'
p2067
I3383
sS'kite construction'
p2068
I1918
sS'brand management'
p2069
I2559
sS'taxidermy'
p2070
I1849
sS'food'
p2071
I27
sS'gwo ka'
p2072
I3246
sS'digital piano'
p2073
I3011
sS'scat singing'
p2074
I3066
sS'futures studies'
p2075
I978
sS'weissenborn'
p2076
I2634
sS'balaban'
p2077
I3277
sS'atmospheric sciences'
p2078
I3222
sS'bollywood'
p2079
I376
sS'kombatan'
p2080
I2197
sS'audio blogs'
p2081
I2996
sS'mystery'
p2082
I91
sS'tro'
p2083
I1972
sS'post-grunge'
p2084
I3034
sS'fantasy'
p2085
I261
sS'central america'
p2086
I717
sS'kayaking'
p2087
I18
sS'philology'
p2088
I1463
sS'triple jump'
p2089
I3390
sS'bass guitar'
p2090
I216
sS'computer music'
p2091
I235
sS'torball'
p2092
I3541
sS'other languages'
p2093
I291
sS'city planning'
p2094
I1277
sS'athletics'
p2095
I109
sS'organetto'
p2096
I2848
sS'classic country'
p2097
I1992
sS'pirates'
p2098
I1440
sS'vielle'
p2099
I526
sS'knowledge management'
p2100
I2581
sS'dance anthem'
p2101
I3461
sS'repetitive music'
p2102
I2417
sS'neurology'
p2103
I622
sS'new pop'
p2104
I2749
sS'nordic combined'
p2105
I1931
sS'blues'
p2106
I454
sS'insurance'
p2107
I1410
sS'harp'
p2108
I455
sS'sustainable design'
p2109
I2115
sS'quantum chemistry'
p2110
I2279
sS'psychology'
p2111
I23
sS'tamburello'
p2112
I2655
sS'latin house'
p2113
I2601
sS'geological engineering'
p2114
I2968
sS'sound collage'
p2115
I2090
sS'piatti'
p2116
I3159
sS'acting'
p2117
I599
sS'computer rock'
p2118
I1760
sS'health'
p2119
I131
sS'delta blues'
p2120
I3260
sS'german language'
p2121
I1132
sS'improvisational comedy'
p2122
I1370
sS'hydraulis'
p2123
I2849
sS'footbag net'
p2124
I3508
sS'chemistry, music'
p2125
I1787
sS'african studies'
p2126
I2161
sS'bass'
p2127
I472
sS'rock blues'
p2128
I776
sS'chemistry & biochemistry'
p2129
I2617
sS'formula one'
p2130
I1732
sS'gaelic music'
p2131
I2519
sS'butter sculpture'
p2132
I2096
sS'freestyle frisbee'
p2133
I1016
sS'table tennis'
p2134
I252
sS'bouldering'
p2135
I912
sS'maths'
p2136
I431
sS'music cognition'
p2137
I2132
sS'automation'
p2138
I1381
sS'polish music'
p2139
I1629
sS'country-rap'
p2140
I1293
sS'pilota'
p2141
I977
sS'ulla'
p2142
I3103
sS'german opera'
p2143
I1694
sS'minimal electronica'
p2144
I3478
sS'construction engineering'
p2145
I3221
sS'snowboarding'
p2146
I81
sS'boccia'
p2147
I2583
sS'shukokai'
p2148
I2316
sS'nu metal'
p2149
I746
sS'botany'
p2150
I962
sS'microfinance'
p2151
I1477
sS'lounge music'
p2152
I888
sS'metaphysical politics'
p2153
I2073
sS'urban acupuncture'
p2154
I2814
sS'happy hardcore'
p2155
I2114
sS'querfl\xc3\xb6te'
p2156
I3460
sS'book burning'
p2157
I3135
sS'tinku'
p2158
I3449
sS'production management'
p2159
I3015
sS'boxe fran\xc3\xa7aise'
p2160
I3037
sS'anonymity'
p2161
I1941
sS'tonette'
p2162
I2888
sS'crocker'
p2163
I2247
sS'wood chopping'
p2164
I2506
sS'pop rock'
p2165
I874
sS'guiro'
p2166
I3584
sS'gamelan'
p2167
I2076
sS'flight medicine'
p2168
I1737
sS'lawn bowls'
p2169
I654
sS'international management'
p2170
I2798
sS'coin collecting'
p2171
I1292
sS'orthopedics'
p2172
I1258
sS'castanet'
p2173
I3008
sS'experimental music'
p2174
I537
sS'lapta'
p2175
I3575
sS'twee pop'
p2176
I2046
sS'pachanga'
p2177
I2762
sS'ethno jazz'
p2178
I3320
sS'pub rock'
p2179
I2433
sS'park'
p2180
I29
sS'goje'
p2181
I2926
sS'foreign affairs'
p2182
I1267
sS'dentist'
p2183
I2069
sS'business informatics'
p2184
I1492
sS'rock\xc2\xb4n\xc2\xb4roll'
p2185
I1803
sS'translation'
p2186
I748
sS'progressive music'
p2187
I2038
sS'american culture'
p2188
I862
sS'wildlife ecology'
p2189
I2361
sS'jesus music'
p2190
I2528
sS'tropical medicine'
p2191
I2730
sS'rugby union'
p2192
I1505
sS'defendo'
p2193
I2874
sS'youth'
p2194
I742
sS'eurodance'
p2195
I1888
sS'hurdling'
p2196
I3110
sS'cultural analytics'
p2197
I2393
sS'application software'
p2198
I2671
sS'grec'
p2199
I2251
sS'avant garde metal'
p2200
I3497
sS'game theory'
p2201
I313
sS'hard trance'
p2202
I2084
sS'stamp collecting'
p2203
I509
sS'storytelling'
p2204
I254
sS'idm music'
p2205
I1927
sS'humppa'
p2206
I2690
sS'djembe'
p2207
I189
sS'cakewalk'
p2208
I3154
sS'graffiti'
p2209
I245
sS'russian rock'
p2210
I1482
sS'golden state'
p2211
I2728
sS'salon music'
p2212
I2295
sS'round dance'
p2213
I1604
sS'cool jazz'
p2214
I3554
sS'complex analysis'
p2215
I2524
sS'britpop'
p2216
I648
sS'speleology'
p2217
I700
sS'classical percussion'
p2218
I3024
sS'kobud\xc5\x8d'
p2219
I3342
sS'complex systems'
p2220
I1251
sS'business history'
p2221
I2491
sS'norwegian rock'
p2222
I2753
sS'steeplechase'
p2223
I2515
sS'lis'
p2224
I1544
sS'hurling'
p2225
I1129
sS'banjo'
p2226
I947
sS'hardtechno'
p2227
I3153
sS'complex system'
p2228
I2816
sS'vacuum cleaner'
p2229
I2012
sS'earth sciences'
p2230
I1003
sS'cello rock'
p2231
I1204
sS'harsh noise'
p2232
I3425
sS'sacred dance'
p2233
I2123
sS'electropop'
p2234
I2411
sS'greek dances'
p2235
I1341
sS'darts'
p2236
I774
sS'violincello'
p2237
I1959
sS'machete'
p2238
I2778
sS'wingtsun'
p2239
I3319
sS'sikaran'
p2240
I2280
sS'tanbur'
p2241
I2434
sS'archery'
p2242
I892
sS'electricity generation'
p2243
I3018
sS'fine arts'
p2244
I535
sS'concept album'
p2245
I3395
sS'mellophone'
p2246
I3215
sS'avantgarde music'
p2247
I2706
sS'kenjutsu'
p2248
I2441
sS'mechatronics'
p2249
I1679
sS'mouth organ'
p2250
I2676
sS'tenor drum'
p2251
I2646
sS'biomedical research'
p2252
I2815
sS'setor'
p2253
I3547
sS'sf'
p2254
I657
sS'physics'
p2255
I295
sS'keyboard instruments'
p2256
I2550
sS'fidget'
p2257
I2427
sS'monkey stick'
p2258
I2475
sS'international relations'
p2259
I791
sS'spoken word'
p2260
I1024
sS'nagara'
p2261
I2878
sS'danza'
p2262
I692
sS'tuned percussion'
p2263
I2991
sS'knife throwing'
p2264
I2623
sS'celebrities'
p2265
I193
sS'jam band'
p2266
I839
sS'new testament'
p2267
I1736
sS'grid computing'
p2268
I2174
sS'woodwind quintet'
p2269
I2839
sS'bodybuilding'
p2270
I566
sS'defender'
p2271
I1579
sS'austrian music'
p2272
I2769
sS'geomatics'
p2273
I1405
sS'veterinary medicine'
p2274
I1271
sS'chimes'
p2275
I1222
sS'ney'
p2276
I2501
sS'famo'
p2277
I3232
sS'timbales'
p2278
I2988
sS'justice'
p2279
I335
sS'striptease'
p2280
I2970
sS'cardiovascular systems'
p2281
I2868
sS'bipa'
p2282
I1937
sS'bass recorder'
p2283
I1517
sS'deep house'
p2284
I1871
sS'development economics'
p2285
I1654
sS"d'n'b"
p2286
I1500
sS'chaquan'
p2287
I926
sS'chaabi'
p2288
I3585
sS'physical chemistry'
p2289
I1641
sS'triangle'
p2290
I1738
sS'riddim'
p2291
I2614
sS'industrial design'
p2292
I866
sS'inline speed skating'
p2293
I3528
sS'short story'
p2294
I2077
sS'sailboarding'
p2295
I1794
sS'harp guitar'
p2296
I2034
sS'whistle'
p2297
I120
sS'college football'
p2298
I473
sS'ukrainian dance'
p2299
I1193
sS'film soundtrack'
p2300
I1868
sS'ninjutsu'
p2301
I1850
sS'isolationism'
p2302
I824
sS'mycology'
p2303
I639
sS'hip hop dance'
p2304
I2650
sS'suizen'
p2305
I2452
sS'digital filmmaking'
p2306
I2668
sS'overclocking'
p2307
I3500
sS'continuum'
p2308
I1475
sS'ubiquitous computing'
p2309
I2884
sS'steampunk'
p2310
I1338
sS'padel tennis'
p2311
I2674
sS'obscuro'
p2312
I3189
sS'banking'
p2313
I497
sS'political philosophy'
p2314
I122
sS'power pop'
p2315
I2270
sS'gospel'
p2316
I730
sS'volksmusik'
p2317
I3025
sS'traffic engineering'
p2318
I2146
sS'information architecture'
p2319
I2407
sS"60's"
p2320
I606
sS'sipa'
p2321
I707
sS'systems management'
p2322
I3430
sS'intelligence'
p2323
I253
sS'sexology'
p2324
I1110
sS'real aikido'
p2325
I3367
sS'surrealist game'
p2326
I3245
sS'black ambient'
p2327
I3424
sS'culture'
p2328
I3
sS'stoner metal'
p2329
I2379
sS'political economics'
p2330
I386
sS'migration'
p2331
I1238
sS'biological engineering'
p2332
I1788
sS'origami'
p2333
I266
sS'applied arts'
p2334
I1759
sS'formal science'
p2335
I1899
sS'gothic novel'
p2336
I2322
sS'musical improvisation'
p2337
I1230
sS'cosplay'
p2338
I1893
sS'spirits'
p2339
I1039
sS'asian languages'
p2340
I1401
sS'rock fran\xc3\xa7ais'
p2341
I2327
sS'didgeridoo'
p2342
I260
sS'movie'
p2343
I137
sS'soul jazz'
p2344
I1201
sS'pencak silat'
p2345
I3539
sS'music hall'
p2346
I3076
sS'cyclocross'
p2347
I1291
sS'automotive technology'
p2348
I3378
sS'gandingan'
p2349
I2660
sS'latin soul'
p2350
I1346
sS'applied physics'
p2351
I2950
sS'organization development'
p2352
I2765
sS'latin'
p2353
I755
sS'hooter'
p2354
I1771
sS'axe throwing'
p2355
I2335
sS'pop folk'
p2356
I1460
sS'guatemalan rock'
p2357
I3329
sS'molecular genetics'
p2358
I2011
sS'physiological science'
p2359
I2198
sS'chemical physics'
p2360
I1563
sS'pagode'
p2361
I753
sS'film scoring'
p2362
I3317
sS'biological psychology'
p2363
I1550
sS'hacking'
p2364
I114
sS'deep soul'
p2365
I3397
sS'novelty song'
p2366
I3284
sS'docudrama'
p2367
I3197
sS'chinese history'
p2368
I1936
sS'industrial rock'
p2369
I2070
sS'vietnamese language'
p2370
I2712
sS'pradal serey'
p2371
I3516
sS'gospel music'
p2372
I1485
sS'creative studies'
p2373
I2478
sS'christian theology'
p2374
I2052
sS'fraternity'
p2375
I1939
sS'goverment'
p2376
I1733
sS'toxicology'
p2377
I3228
sS'baroque guitar'
p2378
I3408
sS'experimental'
p2379
I419
sS'electronic music'
p2380
I415
sS'environmental history'
p2381
I2134
sS'linked data'
p2382
I3365
sS'underground music'
p2383
I1371
sS'comparative literature'
p2384
I2180
sS'bell'
p2385
I200
sS'composting'
p2386
I554
sS'gabber'
p2387
I1700
sS'celesta'
p2388
I1514
sS'wind instruments'
p2389
I1506
sS'badminton'
p2390
I166
sS'ranchera'
p2391
I3431
sS'social analytics'
p2392
I3405
sS'enology'
p2393
I1873
sS'irish music'
p2394
I506
sS'horticulture'
p2395
I941
sS'jazz rap'
p2396
I144
sS'weaving'
p2397
I936
sS'publishing'
p2398
I1168
sS'post-apocalypse'
p2399
I2703
sS'dub'
p2400
I723
sS'satire'
p2401
I545
sS'strategy'
p2402
I1326
sS'pc'
p2403
I442
sS'songo music'
p2404
I750
sS'endocrinology'
p2405
I1156
sS'industrial music'
p2406
I1084
sS'pk'
p2407
I693
sS'operations research'
p2408
I2378
sS'baguazhang'
p2409
I2340
sS'nuclear fusion'
p2410
I1312
sS'musical saw'
p2411
I1072
sS'classick rock'
p2412
I2942
sS'musicology'
p2413
I1211
sS'orchestral'
p2414
I2349
sS'american handball'
p2415
I3172
sS'gar'
p2416
I801
sS'group processes'
p2417
I2984
sS'orchestral jazz'
p2418
I3346
sS'folklore'
p2419
I783
sS'dystopia'
p2420
I1177
sS't\xc3\xbcrkisch'
p2421
I2596
sS'instructor'
p2422
I807
sS'funk'
p2423
I142
sS'shooting sports'
p2424
I1699
sS'experimental physics'
p2425
I1199
sS'physical geography'
p2426
I1955
sS'merengue'
p2427
I520
sS'holocaust'
p2428
I1347
sS'euro-trance'
p2429
I2635
sS'\xc5\x93nology'
p2430
I3391
sS'literary criticism'
p2431
I1255
sS'maxixe'
p2432
I2772
sS"punk 'n' roll"
p2433
I3002
sS'behavior'
p2434
I690
sS'setar'
p2435
I1513
sS'animated'
p2436
I613
sS'biking'
p2437
I93
sS'aeronautical engineering'
p2438
I3399
sS'loop'
p2439
I1578
sS'japanese literature'
p2440
I2398
sS'political sociology'
p2441
I698
sS'tchoukball'
p2442
I2206
sS'participation dance'
p2443
I3512
sS'bluegrass'
p2444
I1044
sS'xiao'
p2445
I1996
sS'insect collecting'
p2446
I3496
sS'sitar'
p2447
I1532
sS'sirum'
p2448
I1589
sS'latinistic'
p2449
I1007
sS'flying trapeze'
p2450
I2685
sS'continental philosophy'
p2451
I617
sS'sufi rock'
p2452
I2497
sS'doom metal'
p2453
I2093
sS'longa'
p2454
I3540
sS'general studies'
p2455
I2752
sS'electro house'
p2456
I1466
sS'goblet drum'
p2457
I1853
sS'synthpop'
p2458
I1287
sS'textile'
p2459
I805
sS'theremin'
p2460
I2020
sS'block flute'
p2461
I2780
sS'viola'
p2462
I457
sS'chinese literature'
p2463
I825
sS'composition'
p2464
I331
sS'lovers rock'
p2465
I1322
sS'pop culture'
p2466
I745
sS'literature'
p2467
I45
sS'knitting'
p2468
I154
sS'kizomba'
p2469
I2035
sS'postmodern literature'
p2470
I1988
sS'pallone'
p2471
I3518
sS'art song'
p2472
I2464
sS'slide whistle'
p2473
I3073
sS'rockabilly'
p2474
I650
sS'cardmaking'
p2475
I1377
sS'roma music'
p2476
I1697
sS'generative music'
p2477
I481
sS'mass communications'
p2478
I2048
sS'lacrosse'
p2479
I1227
sS'information systems'
p2480
I703
sS'rhythmic gymnastics'
p2481
I1798
sS'international development'
p2482
I515
sS'punk cabaret'
p2483
I3483
sS'dancing'
p2484
I15
sS'ski cross'
p2485
I1903
sS'theology'
p2486
I480
sS'user experience'
p2487
I2023
sS'psychobilly'
p2488
I649
sS'greek literature'
p2489
I3144
sS'geobiology'
p2490
I2714
sS'small business'
p2491
I668
sS'visual art'
p2492
I1080
sS'media studies'
p2493
I2281
sS'chemistry'
p2494
I446
sS'collegiate wrestling'
p2495
I3530
sS'cajon'
p2496
I1531
sS'osteopathic medicine'
p2497
I3569
sS'learning sciences'
p2498
I1056
sS'choro'
p2499
I1906
sS'blues ballad'
p2500
I2995
sS'tranverse flute'
p2501
I2821
sS'caj\xc3\xb3n'
p2502
I447
sS'kung fu'
p2503
I679
sS'javelin throw'
p2504
I3295
sS'legal history'
p2505
I2701
sS'stickball'
p2506
I3529
sS'kite building'
p2507
I1718
sS'marvel comics'
p2508
I2495
sS'avionics'
p2509
I3255
sS'alternative'
p2510
I49
sS'ba\xc4\x9flama'
p2511
I1306
sS'ping pong'
p2512
I610
sS'machine translation'
p2513
I3274
sS'hiking'
p2514
I4
sS'pedology'
p2515
I928
sS'math rock'
p2516
I2536
sS'public affairs'
p2517
I953
sS'guaracha'
p2518
I3122
sS'ancient greek'
p2519
I1995
sS'public radio'
p2520
I64
sS'chinlone'
p2521
I2242
sS'contra dance'
p2522
I841
sS'tenor violin'
p2523
I3247
sS'flower pressing'
p2524
I1264
sS'limnology'
p2525
I3220
sS'butoh'
p2526
I1561
sS'romantic music'
p2527
I1845
sS'australia'
p2528
I469
sS'rope jumping'
p2529
I1864
sS'glass harmonica'
p2530
I3171
sS'yoseikan budo'
p2531
I3578
sS'psychedelic pop'
p2532
I3413
sS'phenomenology'
p2533
I1687
sS'product design'
p2534
I1357
sS'spoof'
p2535
I3109
sS'tel aviv'
p2536
I1582
sS'amateur boxing'
p2537
I1297
sS'melodic music'
p2538
I2931
sS'symphonic metal'
p2539
I872
sS'wireless network'
p2540
I2658
sS'mathematical biology'
p2541
I2910
sS'development studies'
p2542
I1538
sS'krav'
p2543
I2846
sS'spelunking'
p2544
I990
sS'freestyle rap'
p2545
I809
sS'latin pop'
p2546
I1876
sS'chorus'
p2547
I462
sS'communications'
p2548
I1221
sS'biology,chemistry'
p2549
I1155
sS'motion picture'
p2550
I3071
sS'kaval'
p2551
I2355
sS'architectural engineering'
p2552
I2031
sS'ecology'
p2553
I372
sS'partying'
p2554
I92
sS'western music'
p2555
I1728
sS'ancient philosophy'
p2556
I1828
sS'surface science'
p2557
I3481
sS'rheumatology'
p2558
I3581
sS'mathematical economics'
p2559
I3402
sS'canso'
p2560
I2958
sS'sprint'
p2561
I1139
sS'biology/immunology'
p2562
I2565
sS'show tune'
p2563
I2766
sS'jitterbug'
p2564
I2744
sS'hip hop music'
p2565
I859
sS'reggae rock'
p2566
I672
sS'country blues'
p2567
I1870
sS'ambient music'
p2568
I832
sS'physiotherapy'
p2569
I810
sS'kakaki'
p2570
I3108
sS'dombra'
p2571
I3069
sS'religion'
p2572
I466
sS'outlaw country'
p2573
I2004
sS'oenology'
p2574
I1516
sS'finswimming'
p2575
I3143
sS'contrabass'
p2576
I517
sS'olfaction'
p2577
I2795
sS'current events'
p2578
I369
sS'neurosciences'
p2579
I1442
sS'flute'
p2580
I231
sS'tabor'
p2581
I714
sS'the jacksons'
p2582
I3548
sS'fresco'
p2583
I2157
sS'morsing'
p2584
I2605
sS'symphonic rock'
p2585
I2967
sS'alternating current'
p2586
I2140
sS'mongolian wrestling'
p2587
I2928
sS'guban'
p2588
I3116
sS'informatics'
p2589
I1385
sS'shamisen'
p2590
I441
sS'downtempo'
p2591
I1095
sS'barbat'
p2592
I2109
sS'woodwind instrument'
p2593
I1276
sS'equestrian vaulting'
p2594
I3007
sS'violone'
p2595
I1179
sS'urban running'
p2596
I3203
sS'ids'
p2597
I212
sS'graduation'
p2598
I492
sS'drama'
p2599
I349
sS'korfball'
p2600
I1749
sS'idm'
p2601
I818
sS'dramaturgy'
p2602
I2416
sS'doodle'
p2603
I1174
sS'commercial law'
p2604
I3542
sS'mixed media'
p2605
I1218
sS'italian'
p2606
I83
sS'geosciences'
p2607
I593
sS'block'
p2608
I370
sS'valencia cf'
p2609
I2870
sS'turntablism'
p2610
I1469
sS'deep funk'
p2611
I2857
sS'bodhr\xc3\xa1n'
p2612
I2810
sS'chicken scratch'
p2613
I3098
sS'concert dance'
p2614
I831
sS'beatboxing'
p2615
I1390
sS'guitar banjo'
p2616
I1616
sS'thrash metal'
p2617
I1826
sS'smelly'
p2618
I1715
sS'iranian languages'
p2619
I1806
sS'2 tone'
p2620
I2542
sS'theoretical ecology'
p2621
I1065
sS'scuba diving'
p2622
I65
sS'social dance'
p2623
I816
sS'interactivity'
p2624
I444
sS'sonny'
p2625
I2807
sS'statistics'
p2626
I1555
sS'horror novel'
p2627
I2892
sS'russian literature'
p2628
I1897
sS'spam'
p2629
I804
sS'ancient music'
p2630
I2057
sS'general relativity'
p2631
I2129
sS'uk garage'
p2632
I3059
sS'ixd'
p2633
I2817
sS'baggy'
p2634
I2144
sS'pharmaceuticals'
p2635
I2641
sS"pumpin' house"
p2636
I3538
sS'islam'
p2637
I958
sS'mystery novel'
p2638
I2570
sS'patch collecting'
p2639
I1969
sS'hawaiian'
p2640
I1663
sS'jewish'
p2641
I1122
sS'pop rap'
p2642
I2608
sS'danzon'
p2643
I2731
sS'medieval literature'
p2644
I2253
sS'arkan'
p2645
I2580
sS'cloth'
p2646
I963
sS'expressionist dance'
p2647
I2182
sS'russian'
p2648
I756
sS'line'
p2649
I19
sS'kundi'
p2650
I2444
sS'life sciences'
p2651
I836
sS'water volleyball'
p2652
I3224
sS'ux'
p2653
I2818
sS'piri'
p2654
I2705
sS'agroecology'
p2655
I1435
sS'massage therapy'
p2656
I1433
sS'skacore'
p2657
I2825
sS'miniaturization'
p2658
I1112
sS'management engineering'
p2659
I3471
sS'foresight'
p2660
I3054
sS'taiwanese pop'
p2661
I2841
sS'web service'
p2662
I3572
sS'metal detector'
p2663
I1528
sS'mozambique'
p2664
I2294
sS'planetary science'
p2665
I2081
sS'czech studies'
p2666
I2938
sS'electronic engineering'
p2667
I1606
sS'dependency theory'
p2668
I2235
sS'kiiking'
p2669
I759
sS'metal'
p2670
I350
sS'human resources'
p2671
I2461
sS'gypsy punk'
p2672
I921
sS'engineering'
p2673
I605
sS'aircraft spotting'
p2674
I2948
sS'jianzi'
p2675
I2030
sS'equestrianism'
p2676
I2141
sS'ocean drum'
p2677
I2303
sS'russian language'
p2678
I894
sS'anthology'
p2679
I2823
sS'humanities'
p2680
I835
sS'blues rock'
p2681
I488
sS'country music'
p2682
I611
sS'wallyball'
p2683
I3120
sS'econometrics'
p2684
I2209
sS'bridge engineering'
p2685
I3612
sS'synthetic biology'
p2686
I1158
sS'environmental studies'
p2687
I2214
sS'electrical'
p2688
I1503
sS'kickboxing'
p2689
I236
sS'zither'
p2690
I2274
sS'gatka'
p2691
I2750
sS'five animals'
p2692
I1127
sS'bongos'
p2693
I1406
sS'graphic artist'
p2694
I133
sS'kora'
p2695
I2631
sS'background music'
p2696
I2307
sS'soca music'
p2697
I792
sS'wakeboarding'
p2698
I275
sS'accordian'
p2699
I2196
sS'caribbean'
p2700
I1021
sS'tin whistle'
p2701
I1259
sS'broomball'
p2702
I1625
sS'structure'
p2703
I399
sS'pottery'
p2704
I530
sS'lyrical dance'
p2705
I1795
sS'floorball'
p2706
I904
sS'architectural pattern'
p2707
I1967
sS'pankration'
p2708
I3257
sS'kenpo karate'
p2709
I3404
sS'art education'
p2710
I1353
sS'foosball'
p2711
I1046
sS'vocoder'
p2712
I923
sS'social work'
p2713
I557
sS'psychiatry'
p2714
I1426
sS'zydeco'
p2715
I924
sS'religious studies'
p2716
I1508
sS'balafon'
p2717
I2137
sS't\xc3\xbcrk\xc3\xa7e'
p2718
I3062
sS'folk rock'
p2719
I619
sS'tai chi'
p2720
I363
sS'pre medicine'
p2721
I2847
sS'marxist philosophy'
p2722
I3503
sS'bellydance'
p2723
I666
sS'latin metal'
p2724
I2285
sS'edm'
p2725
I1739
sS'economics, mathematics'
p2726
I2898
sS'musical keyboard'
p2727
I1976
sS'bounce music'
p2728
I2983
sS'golf'
p2729
I96
sS'electro pop'
p2730
I1053
sS'behavioral economics'
p2731
I1278
sS'bock'
p2732
I2194
sS'japanology'
p2733
I3155
sS'classic rock'
p2734
I1268
sS'vocal improvisation'
p2735
I2374
sS'language geography'
p2736
I851
sS'turkish'
p2737
I436
sS'dice game'
p2738
I2240
sS'vovinam'
p2739
I2300
sS'communication sciences'
p2740
I2665
sS'makossa'
p2741
I2371
sS'french history'
p2742
I1839
sS'languages'
p2743
I38
sS'transverse flute'
p2744
I2138
sS'ivrit'
p2745
I2680
sS'rainstick'
p2746
I3394
sS'set design'
p2747
I1644
sS'premed'
p2748
I377
sS'dancehall'
p2749
I1125
sS'dhrupad'
p2750
I3199
sS'visual design'
p2751
I2058
sS'drum kit'
p2752
I2104
sS'ukulele'
p2753
I704
sS'hihat'
p2754
I2013
sS'piano rock'
p2755
I2595
sS'automotive'
p2756
I744
sS'fretless guitar'
p2757
I3486
sS'snowshoe'
p2758
I336
sS'spoon'
p2759
I1294
sS'western movie'
p2760
I2126
sS'amish music'
p2761
I854
sS'operations management'
p2762
I3030
sS'physiological biology'
p2763
I1675
sS'drinking'
p2764
I202
sS'strategic planning'
p2765
I1660
sS'recorder'
p2766
I1848
sS'recreation'
p2767
I222
sS'magic'
p2768
I324
sS'fantasy sport'
p2769
I3318
sS'acoustic guitar'
p2770
I382
sS'gender'
p2771
I329
sS'triple swing'
p2772
I3543
sS'whittling'
p2773
I2147
sS'live electronics'
p2774
I1542
sS'thumb piano'
p2775
I2922
sS'singing game'
p2776
I2010
sS'exercise physiology'
p2777
I3495
sS'sport kite'
p2778
I1724
sS'shito ryu'
p2779
I3289
sS'hulusi'
p2780
I2853
sS'film directing'
p2781
I1574
sS'cfd'
p2782
I3588
sS'baritone saxophone'
p2783
I3534
sS'wrestling'
p2784
I909
sS'sakara music'
p2785
I2418
sS'mural'
p2786
I1023
sS'generative design'
p2787
I988
sS'wiffleball'
p2788
I1804
sS'hip hop soul'
p2789
I2002
sS'video'
p2790
I165
sS'traveling'
p2791
I25
sS'lirone'
p2792
I3188
sS'carillon'
p2793
I3340
sS'folk'
p2794
I183
sS'voluntary organizations'
p2795
I2389
sS'sport fishing'
p2796
I1526
sS'garage rock'
p2797
I2544
sS'business'
p2798
I357
sS'portuguese guitar'
p2799
I3558
sS'medieval reenactment'
p2800
I1336
sS'multimedia'
p2801
I338
sS'paddle'
p2802
I994
sS'costing'
p2803
I3454
sS'general surgery'
p2804
I2518
sS'bird'
p2805
I631
sS'celtic punk'
p2806
I2507
sS'dub music'
p2807
I1778
sS'american politics'
p2808
I1275
sS'pediatrics'
p2809
I2406
sS'dance education'
p2810
I1356
sS'italo disco'
p2811
I2397
sS'eastern swing'
p2812
I3624
sS'poverty'
p2813
I626
sS'salsa music'
p2814
I176
sS'metalcore'
p2815
I2511
sS'party game'
p2816
I1162
sS'coasteering'
p2817
I741
sS'tricordia'
p2818
I3160
sS'physiology'
p2819
I7
sS'darwinism'
p2820
I1240
sS'photochemistry'
p2821
I2556
sS'epigenetics'
p2822
I2924
sS'motogp'
p2823
I1383
sS'respiration'
p2824
I907
sS'photojournalism'
p2825
I1093
sS'chant'
p2826
I1263
sS'eurythmy'
p2827
I1734
sS'glam metal'
p2828
I2960
sS'organic farming'
p2829
I843
sS'storm chasing'
p2830
I2718
sS'new media'
p2831
I583
sS'plant biologist'
p2832
I740
sS'virtual band'
p2833
I3568
sS'video game'
p2834
I1225
sS'political theatre'
p2835
I980
sS'ice climbing'
p2836
I325
sS'kabaddi'
p2837
I3132
sS'other music'
p2838
I623
sS'telecom'
p2839
I1744
sS'speech recognition'
p2840
I3614
sS'hawaiian music'
p2841
I3507
sS'jewish music'
p2842
I2311
sS'visual communication'
p2843
I1650
sS'theme music'
p2844
I1260
sS'english horn'
p2845
I3313
sS'classic punk'
p2846
I2579
sS'earth science'
p2847
I1030
sS'swing music'
p2848
I1459
sS'lottery'
p2849
I1735
sS'tar'
p2850
I1397
sS'neurobiology'
p2851
I1973
sS'rackett'
p2852
I1358
sS'devotional'
p2853
I1213
sS'squash tennis'
p2854
I1597
sS'chr'
p2855
I2337
sS'camera'
p2856
I257
sS'country soul'
p2857
I2097
sS'katsa'
p2858
I3048
sS'zil'
p2859
I2060
sS'braindance'
p2860
I1431
sS'finnish language'
p2861
I1766
sS'bureaucracy'
p2862
I443
sS'indiepop'
p2863
I2663
sS'folk metal'
p2864
I2546
sS'computational creativity'
p2865
I2720
sS'hurban'
p2866
I2439
sS'econ'
p2867
I2131
sS'enshin karate'
p2868
I3356
sS'bandura'
p2869
I3133
sS'sepak takraw'
p2870
I2675
sS'computing science'
p2871
I2028
sS'emigration'
p2872
I1615
sS'maloya'
p2873
I3258
sS'dentistry'
p2874
I865
sS'contemporary blues'
p2875
I3450
sS'sword dance'
p2876
I3000
sS'powerboating'
p2877
I3035
sS'project management'
p2878
I1109
sS'women'
p2879
I300
sS'grindcore'
p2880
I1013
sS'hungarian folk music'
p2881
I3552
sS'animals'
p2882
I62
sS'pop music'
p2883
I889
sS'hindu music'
p2884
I3182
sS'sumerian music'
p2885
I1236
sS'applied mathematics'
p2886
I2365
sS'american civilization'
p2887
I2178
sS'vinification'
p2888
I496
sS'theatre design'
p2889
I1613
sS'psychedelic soul'
p2890
I3335
sS'latin literature'
p2891
I1621
sS'publications'
p2892
I1689
sS'dark ambient'
p2893
I2508
sS'indie pop'
p2894
I1761
sS'pedagogy'
p2895
I722
sS'group sounds'
p2896
I2751
sS'cornet'
p2897
I2332
sS'ballo'
p2898
I3134
sS'lucha libre'
p2899
I1991
sS'agribusiness'
p2900
I3105
sS'beach handball'
p2901
I2098
sS'reeds'
p2902
I1289
sS'crustacean'
p2903
I2858
sS'critical psychology'
p2904
I2648
sS'germanism'
p2905
I1328
sS'lathi'
p2906
I1874
sS'batucada'
p2907
I752
sS'french literature'
p2908
I1681
sS'jump blues'
p2909
I2994
sS'volcanology'
p2910
I1921
sS'cognitive science'
p2911
I1107
sS'engineering mathematics'
p2912
I806
sS'electronic drum'
p2913
I2410
sS'bones'
p2914
I67
sS'flamenco'
p2915
I450
sS'trumpet'
p2916
I709
sS'neural network'
p2917
I2039
sS'autobiography'
p2918
I1000
sS'experimental medicine'
p2919
I2667
sS'embodiment'
p2920
I1504
sS'varied'
p2921
I1100
sS'latin american history'
p2922
I2529
sS'sanshin'
p2923
I2980
sS'paleobiology'
p2924
I2585
sS'power soccer'
p2925
I1636
sS'boxing'
p2926
I140
sS'poetry'
p2927
I12
sS'film actor'
p2928
I1522
sS'social welare'
p2929
I2015
sS'animal'
p2930
I99
sS'comedy'
p2931
I428
sS'business communications'
p2932
I2547
sS'organum'
p2933
I1605
sS'bass pedals'
p2934
I2808
sS'duduk'
p2935
I2642
sS'kenpo'
p2936
I2438
sS'inspirational music'
p2937
I2119
sS'philosophy'
p2938
I6
sS'russian pop'
p2939
I2688
sS'modern literature'
p2940
I1559
sS'paintball'
p2941
I1015
sS'structural engineering'
p2942
I2455
sS'folk music'
p2943
I502
sS'computational mathematics'
p2944
I655
sS'psychedelia'
p2945
I1418
sS'psychedelic'
p2946
I734
sS'npr'
p2947
I1223
sS'new flamenco'
p2948
I3093
sS'indie music'
p2949
I1103
sS'human genetics'
p2950
I2339
sS'human swimming'
p2951
I1909
sS'wwii'
p2952
I1345
sS'dobro'
p2953
I3017
sS'sports radio'
p2954
I3016
sS'applied science'
p2955
I2321
sS'grunge music'
p2956
I1364
sS'red dirt'
p2957
I2934
sS'swimming'
p2958
I224
sS'material science'
p2959
I2107
sS'aerospace engineering'
p2960
I2881
sS'movie art'
p2961
I283
sS'caribbean music'
p2962
I1985
sS'social science'
p2963
I1376
sS'christmas day'
p2964
I1308
sS'minimal techno'
p2965
I1262
sS'electric guitar'
p2966
I220
sS'canadian football'
p2967
I2017
sS'byzantine music'
p2968
I3628
sS'ragga jungle'
p2969
I2290
sS'beach music'
p2970
I1047
sS'portuguese language'
p2971
I2540
sS'obstetrics'
p2972
I3625
sS'naban'
p2973
I2160
sS'astrobiology'
p2974
I471
sS'nihilism'
p2975
I1844
sS'instrumental rock'
p2976
I2745
sS'personal journals'
p2977
I3593
sS'linguistics'
p2978
I241
sS'parallel computing'
p2979
I3276
sS'glee'
p2980
I1248
sS'social class'
p2981
I2219
sS'jodo'
p2982
I2319
sS'electropunk'
p2983
I1977
sS'fortepiano'
p2984
I3004
sS'darkstep'
p2985
I3421
sS'hypersensitivity'
p2986
I3240
sS'clinical psychology'
p2987
I2323
sS'hobby'
p2988
I100
sS'christmas music'
p2989
I1638
sS'human\xe2\x80\x93computer interaction'
p2990
I3180
sS'electro acoustic'
p2991
I2149
sS'cultural history'
p2992
I327
sS'biodiversity conservation'
p2993
I781
sS'daf'
p2994
I2420
sS'danger music'
p2995
I2937
sS'tech trance'
p2996
I2735
sS'material'
p2997
I638
sS'geological sciences'
p2998
I2121
sS'docu'
p2999
I1018
sS'art pop'
p3000
I2164
sS'immigration law'
p3001
I2787
sS'kiss'
p3002
I768
sS'taijutsu'
p3003
I1620
sS'hollands'
p3004
I1392
sS'computer studies'
p3005
I2469
sS'strategy game'
p3006
I785
sS'professional wrestling'
p3007
I1669
sS'international health'
p3008
I1859
sS'violoncello'
p3009
I1657
sS'fiddle'
p3010
I712
sS'futuribles'
p3011
I3053
sS'paddling'
p3012
I539
sS'violoncelle'
p3013
I938
sS'tropical fish'
p3014
I1796
sS'emo'
p3015
I1926
sS'domra'
p3016
I3163
sS'buddhist studies'
p3017
I2352
sS'ultimate frisbee'
p3018
I61
sS'bandurria'
p3019
I2396
sS'abstract photography'
p3020
I3145
sS'doina'
p3021
I1493
sS'oud'
p3022
I2212
sS'society'
p3023
I398
sS'books'
p3024
I55
sS'filmmaking'
p3025
I501
sS'musique concrete'
p3026
I3598
sS'programmer'
p3027
I493
sS'track cycling'
p3028
I2075
sS'agriculture'
p3029
I510
sS'international law'
p3030
I1875
sS'organized crime'
p3031
I2811
sS'electric blues'
p3032
I3198
sS'bajiquan'
p3033
I1607
sS'extreme poverty'
p3034
I2171
sS'cell biology'
p3035
I1580
sS'entertainment'
p3036
I110
sS'electronica'
p3037
I817
sS'jazz violin'
p3038
I3409
sS'mine exploration'
p3039
I1025
sS'social anthropology'
p3040
I177
sS'computer engineering'
p3041
I2026
sS'psychrometry'
p3042
I3616
sS'model aircraft'
p3043
I2369
sS'charanga'
p3044
I3522
sS'social networks'
p3045
I1464
sS'public law'
p3046
I2237
sS'electronics'
p3047
I43
sS'calif'
p3048
I1730
sS'windsurfing'
p3049
I98
sS'math'
p3050
I551
sS'architecture'
p3051
I139
sS'zarzuela'
p3052
I1674
sS'keyboard bass'
p3053
I2055
sS'drum solo'
p3054
I2788
sS'ang\xc3\xa9lique'
p3055
I1395
sS'english literature'
p3056
I1917
sS'wing tsun'
p3057
I1117
sS'cowbell'
p3058
I1552
sS'african reggae'
p3059
I2293
sS'hapkido'
p3060
I1834
sS'yodeling'
p3061
I1557
sS'music composition'
p3062
I706
sS'spanish rock'
p3063
I1670
sS'morris dance'
p3064
I747
sS'candombe'
p3065
I2405
sS'crm'
p3066
I2474
sS'austin'
p3067
I890
sS'cumbus'
p3068
I3040
sS'natural science'
p3069
I1585
sS'danish language'
p3070
I3265
sS'welfare state'
p3071
I2921
sS'maracas'
p3072
I1960
sS'web services'
p3073
I1570
sS'emotivism'
p3074
I203
sS'taijiquan'
p3075
I766
sS'biomedical science'
p3076
I3475
sS'art'
p3077
I72
sS'polyphony'
p3078
I1757
sS'digital art'
p3079
I1189
sS'conga'
p3080
I1281
sS'deathcore'
p3081
I3562
sS'abstract hip hop'
p3082
I1367
sS'social club'
p3083
I1411
sS'management'
p3084
I884
sS'publication'
p3085
I2582
sS'classics'
p3086
I218
sS'nutrition science'
p3087
I2154
sS'street game'
p3088
I2496
sS'percussion'
p3089
I146
sS'roots rock'
p3090
I2553
sS'austus'
p3091
I571
sS'palaeontology'
p3092
I1343
sS'naturopathy'
p3093
I761
sS'jingle'
p3094
I2743
sS'string band'
p3095
I2101
sS'yiddish language'
p3096
I3235
sS'human development'
p3097
I1835
sS'reggaeton'
p3098
I763
sS'udu'
p3099
I2850
sS'xylophone'
p3100
I1507
sS'quantitative methods'
p3101
I3305
sS'printmaking'
p3102
I848
sS'platformer'
p3103
I2436
sS'nu jazz'
p3104
I2472
sS'freestyle wrestling'
p3105
I3517
sS'veritism'
p3106
I1190
sS'scrapbooking'
p3107
I453
sS'bicycle racing'
p3108
I2545
sS'model rocket'
p3109
I2936
sS'suomi'
p3110
I1462
sS'qanun'
p3111
I3324
sS'food industry'
p3112
I3055
sS'performance arts'
p3113
I1317
sS'ski mountaineering'
p3114
I908
sS'the pit'
p3115
I3462
sS'science fiction'
p3116
I230
sS'international folk dance'
p3117
I3043
sS'japanese pop'
p3118
I2275
sS'suling'
p3119
I1521
sS'lion dance'
p3120
I2386
sS'doctorate'
p3121
I1108
sS'sculpture'
p3122
I394
sS'emarketing'
p3123
I3618
sS'collecting'
p3124
I90
sS'eai'
p3125
I3070
sS'pole vault'
p3126
I2008
sS'balalaika'
p3127
I1520
sS'wildlife conservation'
p3128
I1379
sS'country folk'
p3129
I1993
sS'analytical chemistry'
p3130
I3269
sS'college baseball'
p3131
I3388
sS'agronomy'
p3132
I630
sS'angampora'
p3133
I3165
sS'metaphysics'
p3134
I132
sS'occupational health'
p3135
I3209
sS'biguine'
p3136
I3605
sS'instrumentation'
p3137
I17
sS'microphone'
p3138
I1971
sS'british opera'
p3139
I3254
sS'russians'
p3140
I2330
sS'downtown music'
p3141
I2312
sS'bassoon'
p3142
I1288
sS'allergies'
p3143
I1511
sS'billiards'
p3144
I609
sS'ngoni'
p3145
I3186
sS'cuatro'
p3146
I2186
sS'water resources'
p3147
I2241
sS'art rock'
p3148
I418
sS'mis'
p3149
I290
sS'latino'
p3150
I684
sS'wheelchair basketball'
p3151
I1553
sS'electronic hip hop'
p3152
I3341
sS'urban contemporary'
p3153
I2894
sS'worldwide'
p3154
I323
sS'ichthyology'
p3155
I3357
sS'optometry'
p3156
I3314
sS'european history'
p3157
I790
sS'sewing'
p3158
I206
sS'third reich'
p3159
I2105
sS'mining engineering'
p3160
I3298
sS'parenting'
p3161
I292
sS'oceania'
p3162
I1591
sS'middle east'
p3163
I620
sS'cognitive synonymy'
p3164
I3208
sS'radio astronomy'
p3165
I1443
sS'engineering sciences'
p3166
I3117
sS'medical anthropology'
p3167
I2689
sS'lithuanian music'
p3168
I2061
sS'argentine rock'
p3169
I2882
sS'hot box'
p3170
I2283
sS'software engineering'
p3171
I1146
sS'buk'
p3172
I2299
sS'downbeat'
p3173
I3322
sS'critical geography'
p3174
I949
sS'outdoor recreation'
p3175
I1432
sS'latin american music'
p3176
I993
sS'pipe'
p3177
I1054
sS'cross-country skiing'
p3178
I1454
sS'pipa'
p3179
I2387
sS'gesture'
p3180
I898
sS'databases'
p3181
I813
sS'investment management'
p3182
I1966
sS'short stories'
p3183
I697
sS'swingball'
p3184
I3187
sS'latin jazz'
p3185
I914
sS'sports medicine'
p3186
I1509
sS'kite'
p3187
I624
sS'beat music'
p3188
I2401
sS'medical physics'
p3189
I2588
sS'russian people'
p3190
I2103
sS'electric folk'
p3191
I2377
sS'spanish language'
p3192
I1181
sS'kwela'
p3193
I2733
sS'were music'
p3194
I3051
sS'ancient greece'
p3195
I1712
sS'space science'
p3196
I1429
sS'photography/film'
p3197
I893
sS'area studies'
p3198
I2905
sS'camogie'
p3199
I3249
sS'backyard astronomy'
p3200
I2388
sS'classical piano'
p3201
I869
sS'footbag'
p3202
I720
sS'plant physiology'
p3203
I2649
sS'tap dance'
p3204
I1104
sS'web engineering'
p3205
I3021
sS'manjur'
p3206
I1261
sS'gynecology'
p3207
I2231
sS'general management'
p3208
I2429
sS'beer pong'
p3209
I1089
sS'riding'
p3210
I76
sS'piano'
p3211
I251
sS'local'
p3212
I368
sS'box kite'
p3213
I3537
sS'shooto'
p3214
I3603
sS'pharmacology'
p3215
I1474
sS'public health'
p3216
I853
sS'malunga'
p3217
I3268
sS'neuroimaging'
p3218
I3309
sS'silat'
p3219
I199
sS'taido'
p3220
I3026
sS'ophthalmology'
p3221
I3280
sS'los che'
p3222
I2836
sS'music history'
p3223
I285
sS'praxeology'
p3224
I2408
sS'operating system'
p3225
I2632
sS'litterature'
p3226
I533
sS'evolution'
p3227
I106
sS'wife carrying'
p3228
I3333
sS'asian studies'
p3229
I2169
sS'organ'
p3230
I1241
sS'dance music'
p3231
I423
sS'political ecology'
p3232
I1603
sS'celtic music'
p3233
I711
sS'organizational psychology'
p3234
I1812
sS'current affairs'
p3235
I852
sS'verdiales'
p3236
I636
sS'shot put'
p3237
I2447
sS'powerlifting'
p3238
I1081
sS'medical informatics'
p3239
I2272
sS'drag racing'
p3240
I844
sS'sevillanas'
p3241
I764
sS'temple dance'
p3242
I3102
sS'artificial creativity'
p3243
I1121
sS'communication arts'
p3244
I2153
sS'ebm'
p3245
I1705
sS'national'
p3246
I743
sS'militaria'
p3247
I2626
sS'game design'
p3248
I352
sS'sea shanty'
p3249
I3386
sS'cyberpunk'
p3250
I1877
sS'skateboarding'
p3251
I274
sS'water polo'
p3252
I317
sS'biology/english'
p3253
I3423
sS'turku'
p3254
I1645
sS'lur'
p3255
I2734
sS'maya music'
p3256
I2229
sS'hospitality management'
p3257
I3216
sS'german literature'
p3258
I1083
sS'beading'
p3259
I899
sS'information management'
p3260
I2042
sS'yass'
p3261
I3412
sS'geochemistry'
p3262
I3041
sS'supernatural'
p3263
I675
sS'plant sciences'
p3264
I1997
sS'policy studies'
p3265
I2162
sS'timba'
p3266
I1041
sS'\xd8\xb9\xd8\xb1\xd8\xa8\xd9\x8a'
p3267
I2022
sS'wine clubs'
p3268
I1468
sS'turki'
p3269
I2628
sS'ken'
p3270
I1234
sS'animalia'
p3271
I906
sS'cristiano'
p3272
I3267
sS'free funk'
p3273
I2590
sS'database design'
p3274
I2773
sS'sho'
p3275
I2717
sS'zouk'
p3276
I1118
sS'star trek'
p3277
I973
sS'electric instrument'
p3278
I3567
sS'castillian'
p3279
I3226
sS'modern soul'
p3280
I3451
sS'pump organ'
p3281
I3205
sS'pragmatics'
p3282
I2223
sS'habanera'
p3283
I3523
sS'evolutionary ecology'
p3284
I2708
sS'international finance'
p3285
I2428
sS'drum'
p3286
I219
sS'pit fighting'
p3287
I3551
sS'career'
p3288
I1004
sS'trova'
p3289
I1656
sS'union pipes'
p3290
I2952
sS'gusli'
p3291
I3476
sS'indoor soccer'
p3292
I1404
sS'disco polo'
p3293
I2502
sS'parody music'
p3294
I2903
sS'venu'
p3295
I868
sS'chiptune'
p3296
I2554
sS'early christianity'
p3297
I1924
sS'industrial economics'
p3298
I2974
sS'fishkeeping'
p3299
I1428
sS'ca'
p3300
I522
sS'podiatry'
p3301
I2909
sS'urban sprawl'
p3302
I2024
sS'cx'
p3303
I2891
sS'physical oceanography'
p3304
I3494
sS'rpg'
p3305
I1305
sS'cs'
p3306
I498
sS'artistic gymnastics'
p3307
I1576
sS'tabla'
p3308
I1472
sS'michael jackson'
p3309
I1141
sS'epigraphy'
p3310
I1880
sS'street dance'
p3311
I765
sS'developmental biology'
p3312
I2233
sS'quena'
p3313
I1726
sS'mechanical engineering'
p3314
I2036
sS'transportation design'
p3315
I2221
sS'hindu'
p3316
I1496
sS'polka'
p3317
I1598
sS'bookbinding'
p3318
I845
sS'quiz'
p3319
I1299
sS'everyday life'
p3320
I645
sS'mathematics'
p3321
I354
sS'alternative country'
p3322
I2483
sS'viticulture'
p3323
I1750
sS'business marketing'
p3324
I1257
sS'latin american studies'
p3325
I2722
sS'process control'
p3326
I3201
sS'measure theory'
p3327
I995
sS'inline hockey'
p3328
I2409
sS'boules'
p3329
I2284
sS'special functions'
p3330
I3090
sS'russian history'
p3331
I1335
sS'funk metal'
p3332
I3151
sS'cellular biology'
p3333
I2900
sS'balinese dance'
p3334
I3376
sS'graphics'
p3335
I303
sS'toasting'
p3336
I937
sS'race walking'
p3337
I2883
sS'piguaquan'
p3338
I3445
sS'cyberpunk music'
p3339
I3130
sS'oriental languages'
p3340
I2669
sS'bombarde'
p3341
I778
sS'university studies'
p3342
I302
sS'rapper sword'
p3343
I2999
sS'percussion instrument'
p3344
I2890
sS'rope skipping'
p3345
I2257
sS'greco'
p3346
I2414
sS'caving'
p3347
I242
sS'limbo'
p3348
I2567
sS'v50'
p3349
I3587
sS'slr photography'
p3350
I1881
sS'west indies'
p3351
I2906
sS'  electronic instruments'
p3352
I1758
sS'bolero'
p3353
I1303
sS'tango music'
p3354
I879
sS'aesthetics'
p3355
I1116
sS"jew's harp"
p3356
I968
sS'strength training'
p3357
I558
sS'ornithology'
p3358
I435
sS'hardware'
p3359
I1530
sS'letterboxing'
p3360
I1407
sS'sportfishing'
p3361
I2911
sS'brain teaser'
p3362
I2175
sS'electronic piano'
p3363
I2383
sS'arabic'
p3364
I387
sS'austin, texas'
p3365
I2629
sS'interactive arts'
p3366
I1633
sS'enumerative combinatorics'
p3367
I3594
sS'ringette'
p3368
I1686
sS'tattoo'
p3369
I149
sS'education'
p3370
I294
sS'student movement'
p3371
I2065
sS'podcasting'
p3372
I2726
sS'jug band'
p3373
I2758
sS'buddhist'
p3374
I408
sS'housing development'
p3375
I3366
sS'romance'
p3376
I332
sS'urban planning'
p3377
I621
sS'buddhism'
p3378
I171
sS'hospital administration'
p3379
I3465
sS'electric mandolin'
p3380
I3176
sS'geographical'
p3381
I957
sS'eclectic'
p3382
I585
sS'terrorism'
p3383
I691
sS'bodhran'
p3384
I1889
sS'castellano'
p3385
I1813
sS'highlife'
p3386
I3510
sS'web development'
p3387
I670
sS'fan fiction'
p3388
I3379
sS'quality management'
p3389
I2064
sS'drink'
p3390
I56
sS'phd'
p3391
I233
sS'multimedia design'
p3392
I1566
sS'digital hardcore'
p3393
I2946
sS'miniten'
p3394
I2966
sS'spitting'
p3395
I269
sS'amigurumi'
p3396
I2095
sS'mosaic'
p3397
I1235
sS'herpetology'
p3398
I2263
sS'tenpin bowling'
p3399
I2813
sS'educational psychology'
p3400
I736
sS'science news'
p3401
I474
sS'college rock'
p3402
I2486
sS'information theory'
p3403
I2820
sS'motorcycling'
p3404
I246
sS'studio art'
p3405
I2647
sS'kiteboarding'
p3406
I187
sS'cycle ball'
p3407
I3586
sS'computer programming'
p3408
I1019
sS'english'
p3409
I57
sS'riot grrrl'
p3410
I2503
sS'boha'
p3411
I2443
sS'drawing'
p3412
I164
sS'theatre organ'
p3413
I1333
sS'anarchist gardener'
p3414
I3251
sS'musical composition'
p3415
I3263
sS'eurogame'
p3416
I2959
sS'ndi'
p3417
I3398
sS'romanian rock'
p3418
I3576
sS'neurolinguistics'
p3419
I2331
sS'baroque music'
p3420
I2367
sS'search engines'
p3421
I1088
sS'fishing'
p3422
I11
sS'antisemitism'
p3423
I2876
sS'medical psychology'
p3424
I1195
sS'grappling'
p3425
I1836
sS'hardcore hip hop'
p3426
I3565
sS'gongs'
p3427
I3231
sS'chorinho'
p3428
I3057
sS'phylogenetics'
p3429
I2329
sS'thermodynamics'
p3430
I2415
sS'bobsleigh'
p3431
I3553
sS'managerial economics'
p3432
I3097
sS'ska'
p3433
I281
sS'medical genetics'
p3434
I2609
sS'historical sociology'
p3435
I596
sS'experimental rock'
p3436
I2336
sS'war crime'
p3437
I3056
sS'mathematics-economics'
p3438
I1628
sS'government'
p3439
I1232
sS'bass trombone'
p3440
I3458
sS'testa'
p3441
I1226
sS'historia'
p3442
I286
sS'avant-garde'
p3443
I814
sS'creation spirituality'
p3444
I965
sS'indoor football'
p3445
I1059
sS'ra\xc3\xaf'
p3446
I2923
sS'nanotechnology'
p3447
I1052
sS'chelys'
p3448
I358
sS'symphonic techno'
p3449
I3387
sS'print journalism'
p3450
I2729
sS'country rock'
p3451
I1930
sS'immunology'
p3452
I819
sS'finnish'
p3453
I979
sS'punjabi dances'
p3454
I3136
sS'poetics'
p3455
I837
sS'alegrias'
p3456
I2907
sS'naval architecture'
p3457
I2454
sS'journalism'
p3458
I264
sS'garage'
p3459
I262
sS'kyudo'
p3460
I2512
sS'psychedelic rock'
p3461
I227
sS'marching percussion'
p3462
I1480
sS'uilleann pipes'
p3463
I2526
sS'paragliding'
p3464
I365
sS'mathematical finance'
p3465
I3334
sS'old timey'
p3466
I1856
sS'installation art'
p3467
I855
sS'darbuka'
p3468
I449
sS'garage punk'
p3469
I2261
sS'drop'
p3470
I997
sS'german rock'
p3471
I2552
sS'goaltimate'
p3472
I3406
sS'european music'
p3473
I1599
sS'theatrical design'
p3474
I1523
sS'physical anthropology'
p3475
I1846
sS'nutritional sciences'
p3476
I2715
sS'gymnastics'
p3477
I591
sS'       bells'
p3478
I66
sS'dermatology'
p3479
I2571
sS'biblical studies'
p3480
I2945
sS'public policy'
p3481
I1573
sS'progressive rock'
p3482
I1349
sS'enka'
p3483
I1096
sS'transport'
p3484
I158
sS'vocal house'
p3485
I2056
sS'jurisprudence'
p3486
I2249
sS'gregorian chant'
p3487
I3175
sS'choral music'
p3488
I1115
sS'archeology'
p3489
I278
sS'industrial engineering'
p3490
I2797
sS'rattlesnake'
p3491
I2805
sS'qa engineering'
p3492
I2875
sS'mathematical statistics'
p3493
I2828
sS'financial management'
p3494
I2423
sS'taiko'
p3495
I1114
sS'balboa'
p3496
I1962
sS'radio drama'
p3497
I1348
sS'kliningan'
p3498
I2117
sS'biology'
p3499
I410
sS'noise'
p3500
I780
sS'medical research'
p3501
I2513
sS'rock'
p3502
I280
sS'self-organization'
p3503
I2301
sS'epidemiology'
p3504
I1935
sS'disco rock'
p3505
I1094
sS'janggu'
p3506
I3610
sS'mechanical sciences'
p3507
I2108
sS'bulgarian music'
p3508
I3509
sS'rara'
p3509
I107
sS'electroacoustic music'
p3510
I1678
sS'contra bass'
p3511
I3217
sS'e-marketing'
p3512
I2935
sS'computer game'
p3513
I259
sS'calypso music'
p3514
I2973
sS'nde'
p3515
I2018
sS'futurism'
p3516
I411
sS'mainstream rock'
p3517
I3393
sS'berimbau'
p3518
I2657
sS'comparative religion'
p3519
I464
sS'instrumental guitar'
p3520
I910
sS'hardcore punk'
p3521
I478
sS'documentary'
p3522
I981
sS'papermaking'
p3523
I1780
sS'software'
p3524
I803
sS'bugle'
p3525
I2292
sS'mineralogy'
p3526
I1239
sS'creativity'
p3527
I34
sS'hornpipe'
p3528
I2664
sS'ashiko'
p3529
I3580
sS'concertina'
p3530
I1807
sS'british invasion'
p3531
I3259
sS'praise song'
p3532
I3064
sS'neo soul'
p3533
I3148
sS'zoology'
p3534
I682
sS'comparative politics'
p3535
I3428
sS'political game'
p3536
I2451
sS'fender stratocaster'
p3537
I2578
sS'orthopedic surgery'
p3538
I3531
sS'macroeconomics'
p3539
I1038
sS'advert'
p3540
I2448
sS'jing'
p3541
I3075
sS'retail management'
p3542
I2560
sS'extreme music'
p3543
I2066
sS'meditation music'
p3544
I1310
sS'figure skating'
p3545
I966
sS'working out'
p3546
I384
sS'community development'
p3547
I1076
sS'soap opera'
p3548
I1602
sS'horror movie'
p3549
I603
sS'other percussion'
p3550
I2456
sS'artificial intelligence'
p3551
I886
sS'systems engineering'
p3552
I2306
sS'cricket'
p3553
I374
sS'percussion instruments'
p3554
I1731
sS'synth'
p3555
I1439
sS'human biology'
p3556
I2342
sS'space music'
p3557
I1075
sS'bouzouki'
p3558
I1789
sS'neoclassicism'
p3559
I2930
sS'nordic skiing'
p3560
I971
sS'wind chime'
p3561
I2083
sS'production engineering'
p3562
I2698
sS'santoor'
p3563
I1320
sS'psychedelic trance'
p3564
I1082
sS'road cycling'
p3565
I1456
sS'digital photography'
p3566
I967
sS'russian studies'
p3567
I2345
sS'environmental ethics'
p3568
I1567
sS'places'
p3569
I63
sS'regional planning'
p3570
I2806
sS'geocaching'
p3571
I586
sS'developmental psychology'
p3572
I1915
sS'library science'
p3573
I2037
sS'ice skating'
p3574
I499
sS'rumba'
p3575
I1040
sS'environmental sciences'
p3576
I1458
sS'cello'
p3577
I234
sS'philately'
p3578
I661
sS'bartitsu'
p3579
I3432
sS'mechanics'
p3580
I540
sS'health science'
p3581
I1742
sS'dancesport'
p3582
I1727
sS'classic hits'
p3583
I2835
sS'twist'
p3584
I239
sS'web science'
p3585
I3039
sS'alternative folk'
p3586
I2072
sS'business economics'
p3587
I1422
sS'airsoft'
p3588
I1078
sS'horror film'
p3589
I870
sS'business analysis'
p3590
I1659
sS'key instruments'
p3591
I3515
sS'taekwondo'
p3592
I1017
sS'hydrology'
p3593
I1519
sS'variety'
p3594
I272
sS'fencing'
p3595
I340
sS'southern rock'
p3596
I2971
sS"women's history"
p3597
I3210
sS'forestry'
p3598
I1069
sS'space western'
p3599
I3415
sS'documentary film'
p3600
I628
sS'sport climbing'
p3601
I972
sS'minimal wave'
p3602
I3347
sS'team handball'
p3603
I1170
sS'kemenche'
p3604
I3472
sS'stav'
p3605
I2473
sS'dhol'
p3606
I2774
sS"children's games"
p3607
I3416
sS'yuman music'
p3608
I3281
sS'detroit techno'
p3609
I2297
sS'shorinji kempo'
p3610
I1943
sS'pole dance'
p3611
I1854
sS'american football'
p3612
I343
sS'astronomy'
p3613
I310
sS'communications management'
p3614
I2747
sS'jawbone'
p3615
I3583
sS'atheist'
p3616
I871
sS'biostatistics'
p3617
I3149
sS'microelectronics'
p3618
I3470
sS'cpu'
p3619
I2193
sS'atheism'
p3620
I553
sS'labor history'
p3621
I1209
sS'morna'
p3622
I3068
sS'tomoi'
p3623
I2659
sS'western painting'
p3624
I3372
sS'porro'
p3625
I1304
sS'dominoes'
p3626
I1020
sS'biotechnology'
p3627
I1145
sS'letter game'
p3628
I2561
sS'medical sociology'
p3629
I2636
sS'treble recorder'
p3630
I2467
s.