(dp1
S'bagpipe'
p2
I1986
sS'electro hop'
p3
I2035
sS'power metal'
p4
I2708
sS'synth metal'
p5
I2346
sS'hotel design'
p6
I3949
sS'concrete structures'
p7
I3075
sS'korg ms-2000'
p8
I3115
sS'irish flute'
p9
I2965
sS'tropicalismo'
p10
I2957
sS'heavy metal'
p11
I594
sS'classical acting'
p12
I2765
sS'kecer'
p13
I3407
sS'skeleton'
p14
I2475
sS'relationships'
p15
I134
sS'orthopaedics'
p16
I3617
sS'criminal law'
p17
I1164
sS'electricity'
p18
I286
sS'ektara'
p19
I3274
sS'stone skipping'
p20
I2103
sS'parlour music'
p21
I1999
sS'metamorphic'
p22
I3685
sS'glam rock'
p23
I1685
sS'technical sciences'
p24
I3096
sS'web service'
p25
I3693
sS'novelty song'
p26
I1952
sS'goa trance'
p27
I1958
sS'nippon kempo'
p28
I3747
sS'west africa'
p29
I741
sS'regal'
p30
I3378
sS'liuqin'
p31
I4037
sS'br\xc3\xa4nnboll'
p32
I3638
sS'zarzuela'
p33
I3770
sS'engineering science'
p34
I1440
sS'rap metal'
p35
I2682
sS'marimba'
p36
I1414
sS'geology'
p37
I782
sS'regional'
p38
I24
sS'computer networking'
p39
I662
sS'nuclear chemistry'
p40
I2820
sS'eugenics'
p41
I1672
sS'capoeira'
p42
I465
sS'formal logic'
p43
I3590
sS'computational design'
p44
I2319
sS'washboard'
p45
I2295
sS'high jump'
p46
I2850
sS'general science'
p47
I2195
sS'power violence'
p48
I3664
sS'chinese opera'
p49
I546
sS'experimental physics'
p50
I1268
sS'aviation engineering'
p51
I2366
sS'acid house'
p52
I3135
sS'urban anthropology'
p53
I2726
sS'israeli theatre'
p54
I2875
sS'singing bowl'
p55
I1984
sS'decima'
p56
I2348
sS'dwarf tossing'
p57
I2738
sS'computational geometry'
p58
I4044
sS'hardcore techno'
p59
I3209
sS'curtal'
p60
I1902
sS'baryton'
p61
I3436
sS'financial services'
p62
I3468
sS'soundtracks'
p63
I1021
sS'rowing exercise'
p64
I2927
sS'auto racing'
p65
I520
sS'normative ethics'
p66
I3799
sS'hora'
p67
I582
sS'aeronautics'
p68
I2515
sS'rhythm guitar'
p69
I3794
sS'deutsch'
p70
I1692
sS'syd barrett'
p71
I2985
sS'heavy metal music'
p72
I3994
sS'japanese'
p73
I51
sS'horn'
p74
I1188
sS'bongo drum'
p75
I574
sS'noise music'
p76
I2150
sS'discourse analysis'
p77
I999
sS'figure painting'
p78
I3935
sS'pungmul'
p79
I3967
sS'nanga'
p80
I3718
sS'home economics'
p81
I2740
sS'cooking'
p82
I23
sS'kus'
p83
I3230
sS'asia'
p84
I432
sS'pop funk'
p85
I1972
sS'ans synthesizer'
p86
I3062
sS'orienteering'
p87
I599
sS'experimental hip hop'
p88
I3850
sS'reconstruction'
p89
I1462
sS'qigong'
p90
I178
sS'surdo'
p91
I2720
sS'fly tying'
p92
I3156
sS'skiffle'
p93
I3502
sS'mathematical chemistry'
p94
I2556
sS'roller skating'
p95
I328
sS'zamba'
p96
I1541
sS'zhongruan'
p97
I4043
sS'mbira'
p98
I2618
sS'environmental science'
p99
I1419
sS'progressive psytrance'
p100
I3426
sS'historical geology'
p101
I2952
sS'surf music'
p102
I525
sS'anthropology'
p103
I1
sS'ching'
p104
I739
sS'pate'
p105
I836
sS'transportation planning'
p106
I1572
sS'lindy hop'
p107
I565
sS'screamo'
p108
I1236
sS'miniature wargaming'
p109
I3761
sS'mey'
p110
I950
sS'west coast swing'
p111
I1924
sS'information technology'
p112
I1393
sS'etching'
p113
I1539
sS'kids'
p114
I441
sS'shock rock'
p115
I3561
sS'mystery novel'
p116
I1380
sS'economics'
p117
I169
sS'natural horn'
p118
I386
sS'meta-ethics'
p119
I2781
sS'contemporary ballet'
p120
I2469
sS'dizi'
p121
I1611
sS'double bass'
p122
I681
sS'music education'
p123
I1458
sS'neofolk'
p124
I2956
sS'military'
p125
I430
sS'aikido'
p126
I469
sS'rafting'
p127
I32
sS'renaissance dance'
p128
I1602
sS'samba rock'
p129
I1753
sS'human rights'
p130
I162
sS'geotechnical engineering'
p131
I3463
sS'ska jazz'
p132
I1844
sS'frame drum'
p133
I2384
sS'computer architecture'
p134
I2099
sS'metal casting'
p135
I2084
sS'strat'
p136
I1710
sS'population genetics'
p137
I3572
sS'milonga'
p138
I2849
sS'rocksteady'
p139
I1797
sS'unix'
p140
I1362
sS'reproductive health'
p141
I2771
sS'mrdanga'
p142
I2518
sS'modern hebrew'
p143
I3907
sS'greek rock'
p144
I2979
sS'ethnomusicology'
p145
I1279
sS'genomics'
p146
I2860
sS'power electronics'
p147
I3418
sS'scenic design'
p148
I3347
sS'dnb'
p149
I540
sS'systematics'
p150
I2876
sS'cajun music'
p151
I3282
sS'bass trumpet'
p152
I2454
sS'political realism'
p153
I2594
sS'shredding'
p154
I1671
sS'music'
p155
I10
sS'rock climbing'
p156
I281
sS'hiplife'
p157
I1045
sS'irish harp'
p158
I3422
sS'transportation management'
p159
I1872
sS'toy collecting'
p160
I817
sS'cardiology'
p161
I1991
sS'jazz dance'
p162
I563
sS'general engineering'
p163
I2616
sS'kadans'
p164
I2238
sS'frisbee golf'
p165
I1079
sS'glass'
p166
I588
sS'computational linguistics'
p167
I2170
sS'billiard sports'
p168
I3406
sS'french horn'
p169
I1451
sS'cuarteto'
p170
I3672
sS'early christian'
p171
I1536
sS'neurosurgery'
p172
I3332
sS'stickball'
p173
I3179
sS'russian guitar'
p174
I3553
sS'kabbalah'
p175
I362
sS'metazoa'
p176
I3887
sS'beach soccer'
p177
I2438
sS'word'
p178
I825
sS'progressive electro'
p179
I2895
sS'kraut'
p180
I1827
sS'hegelung'
p181
I3661
sS'christmas song'
p182
I3250
sS'double dutch'
p183
I2833
sS'mj'
p184
I1404
sS'urbanism'
p185
I56
sS'category theory'
p186
I2309
sS'political satire'
p187
I1487
sS'climatology'
p188
I2076
sS'motorcycle racing'
p189
I1350
sS'serpent'
p190
I1244
sS'sung poetry'
p191
I1621
sS'indie'
p192
I314
sS'punk'
p193
I449
sS'guarania'
p194
I3286
sS'jam rock'
p195
I2909
sS'choro'
p196
I2795
sS'clapping game'
p197
I2855
sS'gadgets'
p198
I823
sS'euphonium'
p199
I2645
sS'bongo flava'
p200
I1042
sS'chande'
p201
I3035
sS'media arts'
p202
I1090
sS'counseling'
p203
I1170
sS'calva'
p204
I2958
sS'other flutes'
p205
I2902
sS'pure mathematics'
p206
I2447
sS'continental philosophy'
p207
I693
sS'professional boxing'
p208
I3331
sS'east coast swing'
p209
I4060
sS'association football'
p210
I2033
sS'suona'
p211
I1224
sS'travel'
p212
I16
sS'philosophy/psychology'
p213
I463
sS'skate rock'
p214
I1408
sS'yamaha motif'
p215
I4047
sS'anarcho-punk'
p216
I3146
sS'twitching'
p217
I2702
sS'drummer'
p218
I575
sS'ent'
p219
I191
sS'interview'
p220
I1152
sS'martial arts'
p221
I164
sS'funk metal'
p222
I3235
sS'ambient industrial'
p223
I2300
sS'liberal arts'
p224
I1106
sS'computer technology'
p225
I1460
sS'sarod'
p226
I3773
sS'music analysis'
p227
I2426
sS'chinese law'
p228
I4034
sS'beauty'
p229
I129
sS'balada'
p230
I760
sS'tejano music'
p231
I3885
sS'pocket billiards'
p232
I1073
sS"children's literature"
p233
I763
sS'spearfishing'
p234
I1297
sS'bandoneon'
p235
I2892
sS'computer graphics'
p236
I382
sS'cultural studies'
p237
I1107
sS'charleston'
p238
I888
sS'historical linguistics'
p239
I616
sS'salsa'
p240
I212
sS'law'
p241
I320
sS'book binding'
p242
I2201
sS'fusion genre'
p243
I925
sS'fluid mechanics'
p244
I2356
sS'sentir'
p245
I1547
sS'canto nuevo'
p246
I3234
sS'spectralism'
p247
I1365
sS'software programmer'
p248
I2784
sS'fungi'
p249
I708
sS'gothic metal'
p250
I1804
sS'greek'
p251
I878
sS'electronic keyboard'
p252
I2841
sS'process music'
p253
I3345
sS'jungle'
p254
I428
sS'development sociology'
p255
I2997
sS'archaeology'
p256
I1127
sS'musica negra'
p257
I3646
sS'wine'
p258
I34
sS'bossa nova'
p259
I717
sS'astrophilately'
p260
I4028
sS'fife'
p261
I1411
sS'youth crew'
p262
I3618
sS'linguistic typology'
p263
I3338
sS'clapper'
p264
I832
sS'tetherball'
p265
I1928
sS'new rave'
p266
I2406
sS'rope climbing'
p267
I2846
sS'arabic music'
p268
I1912
sS'gaelic handball'
p269
I3735
sS'ibanez'
p270
I2659
sS'free dance'
p271
I1795
sS'stand up comedian'
p272
I3708
sS'synthpop'
p273
I1370
sS'investigative journalism'
p274
I1633
sS'art music'
p275
I206
sS'western philosophy'
p276
I1724
sS'harmonica'
p277
I735
sS'carnatic music'
p278
I2379
sS'canci\xc3\xb3n'
p279
I2583
sS'naturopathic medicine'
p280
I1573
sS'criolla'
p281
I3659
sS'social relations'
p282
I1489
sS'writing'
p283
I52
sS'concept design'
p284
I2253
sS'stoner rock'
p285
I2576
sS'synchronised swimming'
p286
I1891
sS'information engineering'
p287
I3499
sS'church history'
p288
I2487
sS'croquet'
p289
I1449
sS'forest ecology'
p290
I2671
sS'fado'
p291
I417
sS'auction'
p292
I2042
sS'automation engineering'
p293
I3387
sS'sacred harp'
p294
I2027
sS'vocal music'
p295
I1055
sS'labour law'
p296
I3940
sS'amateur boxing'
p297
I3518
sS'lau gar'
p298
I3971
sS'entomology'
p299
I900
sS'erhu'
p300
I1464
sS'beach volleyball'
p301
I578
sS'bojutsu'
p302
I3412
sS'other instruments'
p303
I768
sS'radiobiology'
p304
I3366
sS'iaido'
p305
I1637
sS'tourism'
p306
I405
sS'marching band'
p307
I1213
sS'hermeneutics'
p308
I2141
sS'katsa'
p309
I3902
sS'miami bass'
p310
I4003
sS'home improvement'
p311
I1337
sS'rapper sword'
p312
I3089
sS'oina'
p313
I3258
sS'street basketball'
p314
I2069
sS'cooperative game'
p315
I3169
sS'choir'
p316
I529
sS'folkcore'
p317
I3157
sS'plainsong'
p318
I3534
sS'fitness'
p319
I160
sS'mandocello'
p320
I4046
sS'health physics'
p321
I3163
sS'behavioral finance'
p322
I349
sS'german studies'
p323
I1405
sS'music industry'
p324
I1004
sS'shorinjikempo'
p325
I3640
sS'shagur'
p326
I1683
sS'communication studies'
p327
I1750
sS'aerodynamics'
p328
I2511
sS'japanese studies'
p329
I1910
sS'oriental studies'
p330
I2053
sS'bowls'
p331
I791
sS'chamam\xc3\xa9'
p332
I3611
sS'cueca'
p333
I3297
sS'cultural geography'
p334
I530
sS'video art'
p335
I483
sS'dubstep'
p336
I1012
sS'juggling'
p337
I298
sS'piccolo clarinet'
p338
I3705
sS'pantalon'
p339
I3087
sS'kud\xc3\xbcm'
p340
I3911
sS'particle physics'
p341
I2197
sS'alternative electronic'
p342
I1854
sS'engineering management'
p343
I3675
sS'hochdeutsch'
p344
I3056
sS'network'
p345
I454
sS'rare groove'
p346
I2665
sS'sneakerhead'
p347
I2655
sS'electronic rock'
p348
I1662
sS'high german'
p349
I2751
sS'conga'
p350
I1869
sS'minimal house'
p351
I2452
sS'fellowship'
p352
I960
sS'scurfing'
p353
I3945
sS'medicine'
p354
I243
sS'sanskrit language'
p355
I3507
sS'rn'
p356
I3017
sS'cryptozoology'
p357
I1752
sS'creole'
p358
I2188
sS'guitar pop'
p359
I2132
sS'ska punk'
p360
I846
sS'geology/geophysics'
p361
I2246
sS'hand drum'
p362
I1527
sS'telecommunication'
p363
I990
sS'aussie rules'
p364
I667
sS'anesthesiology'
p365
I3947
sS'technical management'
p366
I3833
sS'extreme metal'
p367
I1968
sS'organology'
p368
I3933
sS'begena'
p369
I4029
sS'nyckelharpa'
p370
I2263
sS'free tekno'
p371
I1563
sS'techno'
p372
I222
sS'thai studies'
p373
I3007
sS'modern language'
p374
I1775
sS'parlour game'
p375
I1946
sS'general education'
p376
I1890
sS'chamber pop'
p377
I2570
sS'traverso flute'
p378
I3448
sS'evolutionary linguistics'
p379
I2727
sS'ethnology'
p380
I690
sS'volksmarching'
p381
I1550
sS'racquetball'
p382
I761
sS'economics, sociology'
p383
I1636
sS'chinese studies'
p384
I3247
sS'refugee'
p385
I316
sS'control engineering'
p386
I3714
sS'needlework'
p387
I865
sS'noise pop'
p388
I3127
sS'fantasy fiction'
p389
I2410
sS'chess boxing'
p390
I2982
sS'gender studies'
p391
I678
sS'fly fishing'
p392
I646
sS'xun'
p393
I2420
sS'record producer'
p394
I2632
sS'sky diving'
p395
I757
sS'digital rock'
p396
I3451
sS'phycology'
p397
I488
sS'classical guitar'
p398
I259
sS'bombard'
p399
I2931
sS'rant'
p400
I1186
sS'spinning'
p401
I265
sS'stylistics'
p402
I707
sS'astronautics'
p403
I2004
sS'community organization'
p404
I193
sS'soren kierkegaard'
p405
I1857
sS'grateful dead'
p406
I1850
sS'talking drum'
p407
I3114
sS'schlager'
p408
I1883
sS'bouldering'
p409
I335
sS'psycho-oncology'
p410
I3555
sS'health services'
p411
I2290
sS'biomathematics'
p412
I1103
sS'blue beat'
p413
I2754
sS'modern history'
p414
I1860
sS'tango'
p415
I356
sS'fiction'
p416
I123
sS'boating'
p417
I27
sS'beach rugby'
p418
I1287
sS'thai boxing'
p419
I1030
sS'business law'
p420
I1524
sS'tom'
p421
I887
sS'table game'
p422
I1421
sS'parlor music'
p423
I3504
sS'farming'
p424
I464
sS'fantasy novel'
p425
I2073
sS'ganza'
p426
I2148
sS'danish'
p427
I413
sS'instrumental hip hop'
p428
I3067
sS'contemporary folk'
p429
I2569
sS'applied art'
p430
I2200
sS'landscape architecture'
p431
I1074
sS'brushes'
p432
I1635
sS'korean language'
p433
I453
sS'physics/biology'
p434
I558
sS'palestine'
p435
I1865
sS'radio broadcasting'
p436
I1162
sS'weightlifting'
p437
I641
sS'western'
p438
I149
sS'biniou'
p439
I2930
sS'boarding'
p440
I657
sS'technical communication'
p441
I3450
sS'atonal music'
p442
I3128
sS'embryology'
p443
I2453
sS'blues music'
p444
I249
sS'shoot wrestling'
p445
I3334
sS'futurology'
p446
I1618
sS'meteorology'
p447
I1609
sS'canadian studies'
p448
I3281
sS'trap shooting'
p449
I3105
sS'environmental biology'
p450
I2089
sS'science education'
p451
I2260
sS'historical'
p452
I111
sS'jai alai'
p453
I3390
sS'economic policy'
p454
I1676
sS'hacking'
p455
I1056
sS'show jumping'
p456
I1848
sS'para para'
p457
I2065
sS'hauntology'
p458
I3857
sS'fashion'
p459
I78
sS'french kickboxing'
p460
I3612
sS'plasma physics'
p461
I3095
sS'rattle'
p462
I769
sS'mina'
p463
I96
sS'rai'
p464
I1050
sS'xaphoon'
p465
I2676
sS'theoretical astronomy'
p466
I1548
sS'system integration'
p467
I4048
sS'street piano'
p468
I3018
sS'biological sciences'
p469
I957
sS'local knowledge'
p470
I2823
sS'theology'
p471
I333
sS'marine geology'
p472
I2259
sS'sinology'
p473
I2709
sS'theater arts'
p474
I299
sS'art song'
p475
I2166
sS'emo violence'
p476
I3854
sS'modal jazz'
p477
I2946
sS'ashiko'
p478
I3706
sS'bass clarinet'
p479
I1715
sS'flash mob'
p480
I1153
sS'classic salsa'
p481
I3273
sS'ncaa basketball'
p482
I2109
sS'chess'
p483
I509
sS'handclaps'
p484
I3372
sS'steam punk'
p485
I2224
sS'environmental biotechnology'
p486
I3879
sS'hun'
p487
I862
sS'new beat'
p488
I2127
sS'koke'
p489
I1395
sS'stabule'
p490
I3268
sS'kanun'
p491
I2690
sS'handbells'
p492
I3292
sS'new country'
p493
I60
sS'anatomy'
p494
I0
sS'microfinancing'
p495
I2549
sS'wallyball'
p496
I3428
sS'free-diving'
p497
I359
sS'wood block'
p498
I3166
sS'coin'
p499
I746
sS'media studies'
p500
I1531
sS'thriller'
p501
I671
sS'southern soul'
p502
I3951
sS'business finance'
p503
I2471
sS'bokator'
p504
I2255
sS'alphorn'
p505
I2265
sS'lituus'
p506
I3514
sS'systems ecology'
p507
I2686
sS'systematic theology'
p508
I3878
sS'popular culture'
p509
I1130
sS'metal'
p510
I324
sS'slipknot'
p511
I2746
sS'cumbia'
p512
I967
sS'gothabilly'
p513
I1369
sS'tech'
p514
I586
sS'search engine'
p515
I1477
sS'world game'
p516
I1998
sS'cricket spitting'
p517
I4033
sS'kankl\xc4\x97s'
p518
I2612
sS'rabab'
p519
I3220
sS'aircraft spotting'
p520
I3045
sS'astrologie'
p521
I1553
sS'supply chain'
p522
I3238
sS'phytopathology'
p523
I3865
sS'josephus'
p524
I751
sS'western swing'
p525
I3288
sS'fretless guitar'
p526
I2796
sS'bossaball'
p527
I3710
sS'syntax'
p528
I1262
sS"women's lacrosse"
p529
I3898
sS'\xe6\x97\xa5\xe6\x9c\xac\xe8\xaa\x9e'
p530
I2581
sS'accounting'
p531
I1119
sS'no wave'
p532
I1836
sS'radio'
p533
I347
sS'business studies'
p534
I410
sS'automobile racing'
p535
I2697
sS'plant morphology'
p536
I3597
sS'tambura'
p537
I3785
sS'speed badminton'
p538
I2545
sS'aleatoric music'
p539
I387
sS'italo disco'
p540
I2468
sS'divinity'
p541
I766
sS'crossfit'
p542
I444
sS'classical latin'
p543
I2280
sS'cinema-television'
p544
I2060
sS'theatre studies'
p545
I1483
sS'guidance'
p546
I431
sS'symphonic'
p547
I1880
sS'web marketing'
p548
I2321
sS'soul rock'
p549
I541
sS'brass band'
p550
I720
sS'eastern philosophy'
p551
I611
sS'russian rock'
p552
I2333
sS'dietetics'
p553
I2186
sS'harness racing'
p554
I3987
sS'bluegrass music'
p555
I1407
sS'breakcore'
p556
I2085
sS'college basketball'
p557
I1331
sS'shidokan karate'
p558
I3782
sS'graph theory'
p559
I1239
sS'cryptography'
p560
I1199
sS'gothic music'
p561
I2376
sS"children's music"
p562
I1780
sS'ney'
p563
I1742
sS'board game'
p564
I1399
sS'hematology'
p565
I3119
sS'structural engineering'
p566
I2272
sS'islamic music'
p567
I4045
sS'neoclassical'
p568
I1109
sS'danso'
p569
I3825
sS'discus throw'
p570
I3585
sS'fistball'
p571
I2182
sS'dansk'
p572
I3928
sS'genge'
p573
I1044
sS'breakbeat'
p574
I21
sS'gayo'
p575
I4053
sS'kung fu'
p576
I189
sS'critical geography'
p577
I3753
sS'santur'
p578
I282
sS'underwater archaeology'
p579
I1617
sS'resonator guitar'
p580
I3944
sS'industrial hip-hop'
p581
I4016
sS'scottish literature'
p582
I2567
sS'cover band'
p583
I1905
sS'rowing'
p584
I475
sS'disco'
p585
I246
sS'stomp box'
p586
I3439
sS"children's"
p587
I1037
sS'hardstyle'
p588
I1655
sS'architecture'
p589
I142
sS'marine engineering'
p590
I3324
sS'victorian era'
p591
I2766
sS'worship music'
p592
I1751
sS'aquatics swimming'
p593
I2928
sS'electronic technology'
p594
I2331
sS'outsider music'
p595
I1422
sS'parranda'
p596
I3739
sS'weight training'
p597
I1267
sS'guzheng'
p598
I2455
sS'furniture design'
p599
I986
sS'performance arts'
p600
I651
sS'uplifting trance'
p601
I3423
sS'plant biochemistry'
p602
I3980
sS'jiujitsu'
p603
I2009
sS'hourglass drum'
p604
I3993
sS'record collecting'
p605
I1587
sS'fine art'
p606
I533
sS'virology'
p607
I2745
sS'acid trance'
p608
I3425
sS'fiddlesticks'
p609
I2699
sS'design management'
p610
I3326
sS'oceania'
p611
I1675
sS'knowledge discovery'
p612
I3194
sS'turkology'
p613
I3402
sS'anglo-saxon literature'
p614
I4005
sS'criminal justice'
p615
I2162
sS'sludge metal'
p616
I3370
sS'dark cabaret'
p617
I3159
sS'ethnic studies'
p618
I2807
sS'vocals'
p619
I228
sS'biomechanics'
p620
I2731
sS'basque dance'
p621
I3501
sS'pirate'
p622
I1025
sS'rudible'
p623
I1725
sS'social planning'
p624
I3221
sS'political hip hop'
p625
I3299
sS'suka'
p626
I2866
sS'nature'
p627
I15
sS'bridge design'
p628
I2429
sS'doonee'
p629
I2879
sS'medieval studies'
p630
I3222
sS'romantic drama'
p631
I1988
sS'aviation medicine'
p632
I2081
sS"women's music"
p633
I2008
sS'decathlon'
p634
I2370
sS'censorship'
p635
I753
sS'news'
p636
I285
sS'angling'
p637
I1712
sS'indoor climbing'
p638
I1518
sS'topology'
p639
I2530
sS'visual arts'
p640
I176
sS'classical period'
p641
I3478
sS'european studies'
p642
I2737
sS'flute traversi\xc3\xa8re'
p643
I3363
sS'conch'
p644
I2662
sS'country'
p645
I131
sS'scramble band'
p646
I3962
sS'mariachi'
p647
I1075
sS'linguistic anthropology'
p648
I1660
sS'german-style'
p649
I1936
sS'argul'
p650
I491
sS'games'
p651
I415
sS'logic'
p652
I636
sS'communication artist'
p653
I472
sS'folk pop'
p654
I2396
sS'button collecting'
p655
I3957
sS'motorcycle speedway'
p656
I3923
sS'theoretical mathematics'
p657
I2054
sS'negotiation'
p658
I2093
sS'big drum'
p659
I3251
sS'rounders'
p660
I645
sS'kosmische musik'
p661
I3027
sS'physical therapy'
p662
I593
sS'guaracha'
p663
I3211
sS'yamaha mo'
p664
I3193
sS'statistical physics'
p665
I2817
sS'mathematical education'
p666
I1258
sS'comprehension'
p667
I1123
sS'pole vault'
p668
I2100
sS'piano accordion'
p669
I970
sS'trust'
p670
I742
sS'telecommunications'
p671
I1253
sS'wind instrument'
p672
I2786
sS'noise rock'
p673
I2262
sS'bingo'
p674
I1837
sS'oceanography'
p675
I1841
sS'chinese language'
p676
I336
sS'galgo'
p677
I3377
sS'matching game'
p678
I3924
sS'dahu'
p679
I3532
sS'asian music'
p680
I326
sS'dark industrial'
p681
I3619
sS'power noise'
p682
I3999
sS'advert'
p683
I1185
sS'submarine'
p684
I1302
sS'txistu'
p685
I3916
sS'home repair'
p686
I1111
sS'psaltery'
p687
I3414
sS'danzan ryu'
p688
I3755
sS'elevator music'
p689
I3862
sS'mineral collecting'
p690
I3226
sS'skate punk'
p691
I3257
sS'modern creative'
p692
I4058
sS'screen-print'
p693
I1305
sS'brassband'
p694
I1907
sS'international business'
p695
I998
sS'qanun'
p696
I3965
sS'hebrew language'
p697
I2816
sS'cosmetology'
p698
I2056
sS'chuk'
p699
I3829
sS'racquets'
p700
I1760
sS'koto'
p701
I2901
sS'soft rock'
p702
I1913
sS'aquatics diving'
p703
I3396
sS'kali sikaran'
p704
I3440
sS'italian rock'
p705
I2986
sS'catch'
p706
I139
sS'aviation'
p707
I232
sS'personal growth'
p708
I827
sS'punk funk'
p709
I2143
sS'spin'
p710
I1581
sS'cambo'
p711
I3798
sS'american history'
p712
I1229
sS'chill'
p713
I156
sS'commerce'
p714
I517
sS'flower pressing'
p715
I3757
sS'drumset'
p716
I1704
sS'lifting weights'
p717
I497
sS'economic statistics'
p718
I3815
sS'alesis ion'
p719
I3979
sS'amateur theatre'
p720
I391
sS'thrash'
p721
I2495
sS'voice'
p722
I686
sS'electroacoustics'
p723
I1967
sS'eskrima'
p724
I2936
sS'mathematical sciences'
p725
I2382
sS'intellectual history'
p726
I2780
sS'electronic opera'
p727
I3525
sS'canoeing'
p728
I157
sS'planking'
p729
I3002
sS"50's"
p730
I642
sS'keyboard controller'
p731
I1979
sS'ir'
p732
I398
sS'kankles'
p733
I2610
sS'romantic music'
p734
I1948
sS'alpine skiing'
p735
I1101
sS'music theory'
p736
I1011
sS'viennese waltz'
p737
I2336
sS'hebrew'
p738
I1248
sS'violin'
p739
I543
sS'pathology'
p740
I1177
sS'snare drum'
p741
I2306
sS'rock and roll'
p742
I3108
sS'christian music'
p743
I918
sS'geomorphology'
p744
I2912
sS'hot box'
p745
I3806
sS'mbalax'
p746
I1049
sS'financial economics'
p747
I1484
sS'go go'
p748
I1873
sS'surf rock'
p749
I1214
sS'occupational therapy'
p750
I2531
sS'visual anthropology'
p751
I1791
sS'ccna'
p752
I3998
sS'design thinking'
p753
I2002
sS'bharatanatyam'
p754
I2294
sS'electro'
p755
I219
sS'model mugging'
p756
I3385
sS"70's"
p757
I780
sS'modern arnis'
p758
I2147
sS'business news'
p759
I2236
sS'american government'
p760
I3847
sS'woodwind instrument'
p761
I3595
sS'ocean engineering'
p762
I2220
sS'hang'
p763
I294
sS'managment'
p764
I2270
sS'norwegian'
p765
I557
sS'dark psytrance'
p766
I3917
sS'flood geology'
p767
I3574
sS'jkd'
p768
I3438
sS'christian rock'
p769
I3734
sS'neoclassicism'
p770
I1110
sS'fue'
p771
I2310
sS'vermont'
p772
I608
sS'salsa cubana'
p773
I1389
sS'water organ'
p774
I2919
sS'acoustics'
p775
I590
sS'image analysis'
p776
I2427
sS'english language'
p777
I604
sS'steel guitar'
p778
I2669
sS'pandore'
p779
I1680
sS'big band'
p780
I1616
sS'roller hockey'
p781
I2039
sS'fistfight'
p782
I3958
sS'physician assistant'
p783
I3112
sS'melodica'
p784
I1566
sS'experimental psychology'
p785
I1678
sS'kinship'
p786
I1353
sS'film editing'
p787
I1768
sS'pianoforte'
p788
I2237
sS'sarangi'
p789
I3086
sS'jazz fusion'
p790
I1843
sS'officer training'
p791
I2207
sS'lock picking'
p792
I1785
sS'american literature'
p793
I815
sS'psychometrics'
p794
I3615
sS'international affairs'
p795
I504
sS'hobby game'
p796
I2937
sS'personal journals'
p797
I3844
sS'shinkendo'
p798
I4038
sS'trip hop'
p799
I1608
sS'pan pipe'
p800
I2805
sS'box lacrosse'
p801
I3516
sS'hospitality management'
p802
I2945
sS'visualization'
p803
I145
sS'bhangra'
p804
I1569
sS'dutar'
p805
I3524
sS'c\xc3\xa9ilidh'
p806
I2339
sS'cavaquinho'
p807
I2734
sS'japanoise'
p808
I4054
sS'bass flute'
p809
I2538
sS'pharmacy'
p810
I1498
sS'cue sports'
p811
I1276
sS'alchemy'
p812
I631
sS'new romantic'
p813
I2815
sS'pickleball'
p814
I3563
sS'waka music'
p815
I2809
sS'british empire'
p816
I1769
sS'bandone\xc3\xb3n'
p817
I2970
sS'bandy'
p818
I2120
sS'casting'
p819
I931
sS'paleontology'
p820
I209
sS'fluxus'
p821
I1787
sS'tricking'
p822
I795
sS'musica bandera'
p823
I3814
sS'alternative dance'
p824
I2894
sS'fusion'
p825
I69
sS'brazilian jazz'
p826
I3021
sS'bando'
p827
I3650
sS'sorority'
p828
I1923
sS'rock music'
p829
I271
sS'mis'
p830
I715
sS'trip rock'
p831
I2213
sS'latino'
p832
I755
sS'jazz piano'
p833
I561
sS'glitch'
p834
I2215
sS'free jazz'
p835
I2537
sS'kitesurfing'
p836
I84
sS'arabic language'
p837
I1122
sS'bujinkan'
p838
I1717
sS'online marketing'
p839
I2206
sS'mountain boarding'
p840
I1446
sS'riq'
p841
I3174
sS'meringue'
p842
I1461
sS'shibuya-kei'
p843
I3914
sS'music sequencer'
p844
I3207
sS'computer software'
p845
I1008
sS'mystery film'
p846
I3271
sS'agricultural engineering'
p847
I3529
sS'portuguese'
p848
I197
sS'agricultural science'
p849
I2544
sS'sequential art'
p850
I3270
sS'gesture'
p851
I1630
sS'honky tonk'
p852
I1939
sS'big beat'
p853
I1878
sS'pin shooting'
p854
I3285
sS'traditional chinese medicine'
p855
I3986
sS'alternative hip hop'
p856
I3984
sS'latin music'
p857
I876
sS'latin pop'
p858
I1975
sS'dark metal'
p859
I3544
sS'trombone'
p860
I1002
sS'cognitive neuroscience'
p861
I1826
sS'vallenato'
p862
I928
sS'ululation'
p863
I1861
sS'criminology'
p864
I1180
sS'fou'
p865
I1699
sS'sociology'
p866
I8
sS'humor'
p867
I539
sS'veterinary sciences'
p868
I2117
sS'industrial arts'
p869
I1256
sS'digital electronics'
p870
I3101
sS'stand-up comedy'
p871
I1070
sS'gypsy jazz'
p872
I1594
sS'zionism'
p873
I2630
sS'flight dynamics'
p874
I3485
sS'underwater hockey'
p875
I1413
sS'infectious disease'
p876
I3397
sS'christmas'
p877
I700
sS'biochemical engineering'
p878
I3134
sS'pep band'
p879
I3498
sS'shaker'
p880
I2893
sS'english studies'
p881
I2687
sS'gaita'
p882
I2507
sS'cumbia rock'
p883
I3905
sS'marketing'
p884
I733
sS'trampoline'
p885
I468
sS'funk carioca'
p886
I1043
sS'bali dance'
p887
I1625
sS'illustration'
p888
I973
sS'cuong nhu'
p889
I3691
sS'kite buggy'
p890
I1900
sS'kwaito'
p891
I1047
sS'plastic surgery'
p892
I1133
sS'nose flute'
p893
I2617
sS'word game'
p894
I1218
sS'theorbo'
p895
I3721
sS'hydrogen economy'
p896
I2992
sS'horseball'
p897
I2972
sS'volkssport'
p898
I3575
sS'yangqin'
p899
I3989
sS'high school'
p900
I395
sS'genocide'
p901
I1272
sS'anime'
p902
I238
sS'russki'
p903
I2303
sS'mathcore'
p904
I3084
sS'family game'
p905
I2276
sS'melbourne shuffle'
p906
I2631
sS'fran\xc3\xa7ais'
p907
I1318
sS'shred guitar'
p908
I2813
sS'cognitive synonymy'
p909
I3931
sS'bata'
p910
I1472
sS'speed skating'
p911
I908
sS'moto racing'
p912
I1743
sS'mba'
p913
I1522
sS'son'
p914
I11
sS'playground game'
p915
I3455
sS'technical writing'
p916
I2550
sS'steelpan'
p917
I3550
sS'russian opera'
p918
I3625
sS'mathematical logic'
p919
I1665
sS'aguinaldo'
p920
I3719
sS'mambo'
p921
I1840
sS'progressive house'
p922
I1963
sS'gardening'
p923
I45
sS'broadcast journalism'
p924
I3689
sS'personal development'
p925
I1120
sS'internal medicine'
p926
I2179
sS'categorization'
p927
I1024
sS'gis'
p928
I1475
sS'fabric'
p929
I532
sS'flatland bmx'
p930
I2732
sS'combinatorics'
p931
I553
sS'tama'
p932
I570
sS'interior design'
p933
I765
sS'lambada'
p934
I1124
sS'holiday music'
p935
I2677
sS'oneirology'
p936
I3030
sS'geography / meteorology'
p937
I3053
sS'conservation'
p938
I384
sS'novelty piano'
p939
I3019
sS'astrophysics'
p940
I535
sS'gin'
p941
I702
sS'kiting'
p942
I659
sS'banjo guitar'
p943
I2623
sS'congas'
p944
I1387
sS'accountancy'
p945
I868
sS'space technology'
p946
I1382
sS'ice hockey'
p947
I442
sS'amateur'
p948
I542
sS'throwball'
p949
I3832
sS'eventing'
p950
I2330
sS'developmental genetics'
p951
I3511
sS'american kenpo'
p952
I2135
sS'boogie-woogie'
p953
I1309
sS'coal mining'
p954
I3346
sS'banda music'
p955
I187
sS'arab music'
p956
I1881
sS'dark electro'
p957
I3373
sS'ski jumping'
p958
I341
sS'thai rock'
p959
I2868
sS'dumpster diving'
p960
I622
sS'cuban rumba'
p961
I2983
sS'movies collecting'
p962
I2375
sS'paediatrics'
p963
I1349
sS'string instruments'
p964
I1301
sS'boomerang'
p965
I632
sS'zarb'
p966
I2613
sS'document design'
p967
I2428
sS'mandola'
p968
I3680
sS'group theory'
p969
I2898
sS'higher education'
p970
I1209
sS'classic'
p971
I512
sS'nudity'
p972
I531
sS'hardcore hip hop'
p973
I2421
sS'sticke'
p974
I443
sS'downhill cycling'
p975
I3151
sS'theoretical physics'
p976
I1659
sS'prayer'
p977
I1556
sS'manjur'
p978
I1340
sS'religious music'
p979
I1339
sS'petroleum engineering'
p980
I3586
sS'derecho'
p981
I1096
sS'english philology'
p982
I3006
sS'light music'
p983
I1605
sS'microkorg'
p984
I2814
sS'actor'
p985
I1215
sS'social sciences'
p986
I898
sS'rope jumping'
p987
I2123
sS'card game'
p988
I147
sS'computer science'
p989
I339
sS'digital'
p990
I221
sS'radio special'
p991
I3490
sS'social economics'
p992
I1889
sS'smell'
p993
I450
sS'crotales'
p994
I3670
sS'reggae'
p995
I518
sS'sophiology'
p996
I3371
sS'country gospel'
p997
I3608
sS'hammered dulcimer'
p998
I2938
sS'french language'
p999
I673
sS'technology management'
p1000
I3121
sS'traditional music'
p1001
I1243
sS'fantasy football'
p1002
I2688
sS'nonlocality'
p1003
I3805
sS'biomedical science'
p1004
I3242
sS'post-hardcore'
p1005
I1237
sS'nintendocore'
p1006
I3239
sS'belly dance'
p1007
I290
sS'talk radio'
p1008
I853
sS'social studies'
p1009
I959
sS'neuroscience'
p1010
I340
sS's\xc3\xb8ren kierkegaard'
p1011
I2387
sS'hand cricket'
p1012
I668
sS'sephardic music'
p1013
I4042
sS'circus music'
p1014
I1914
sS'jazz guitar'
p1015
I893
sS'male actor'
p1016
I3539
sS'other sports'
p1017
I263
sS'print journalism'
p1018
I2840
sS'painting'
p1019
I53
sS'hammond organ'
p1020
I1747
sS'cognitive psychology'
p1021
I2381
sS'marabi'
p1022
I1783
sS'islamic studies'
p1023
I2037
sS'information integration'
p1024
I2891
sS'american studies'
p1025
I485
sS'nigun'
p1026
I2960
sS'contemporary jazz'
p1027
I2465
sS'film score'
p1028
I2196
sS'hypertext'
p1029
I3473
sS'diplomacy'
p1030
I361
sS'dance'
p1031
I80
sS'professional writing'
p1032
I2873
sS'conservation biology'
p1033
I1933
sS'morin khuur'
p1034
I3741
sS'computer geek'
p1035
I1759
sS'swing hip hop'
p1036
I3716
sS'regional mexican'
p1037
I3375
sS'manager'
p1038
I1544
sS'skiing'
p1039
I20
sS'morphology'
p1040
I1261
sS'world history'
p1041
I490
sS'cancion'
p1042
I2772
sS'american war'
p1043
I2412
sS'materials engineering'
p1044
I2707
sS'physical education'
p1045
I1513
sS'motion pictures'
p1046
I1321
sS'ballet'
p1047
I321
sS'alto clarinet'
p1048
I2942
sS'hoedown'
p1049
I3566
sS'finance management'
p1050
I2776
sS'glockenspiel'
p1051
I2595
sS'netball'
p1052
I911
sS'business psychology'
p1053
I1976
sS'environment'
p1054
I153
sS'scientific visualization'
p1055
I3111
sS'kinnor'
p1056
I2533
sS'abstract photography'
p1057
I2750
sS'frontenis'
p1058
I2790
sS'giga'
p1059
I440
sS'winemaking'
p1060
I758
sS'electric violin'
p1061
I2634
sS'modernization theory'
p1062
I2049
sS'electronics engineering'
p1063
I1904
sS'string'
p1064
I457
sS'computer programmer'
p1065
I1956
sS'ice cricket'
p1066
I3110
sS'espa\xc3\xb1ol'
p1067
I932
sS"00's"
p1068
I2939
sS'alto saxophone'
p1069
I1888
sS'screenwriting'
p1070
I1476
sS'pastoral rock'
p1071
I3828
sS'greyhound racing'
p1072
I2353
sS'filmi pop'
p1073
I2886
sS'bamboo flute'
p1074
I1941
sS'photographic reporting'
p1075
I2097
sS'computability theory'
p1076
I828
sS'gayageum'
p1077
I3973
sS'cum laude'
p1078
I3834
sS'teaching method'
p1079
I3429
sS'judaism'
p1080
I1549
sS'crust punk'
p1081
I2168
sS'concept art'
p1082
I1277
sS'jazz blues'
p1083
I580
sS'standards'
p1084
I82
sS'civil engineering'
p1085
I1705
sS'diy'
p1086
I110
sS'guitars'
p1087
I122
sS'real estate'
p1088
I1178
sS'rock balancing'
p1089
I2608
sS'personnel management'
p1090
I4065
sS"90's"
p1091
I1554
sS'mathematical astronomy'
p1092
I2929
sS'nortec'
p1093
I2432
sS'spiritual'
p1094
I373
sS'revolution'
p1095
I621
sS'design pattern'
p1096
I2578
sS'psycholinguistics'
p1097
I1508
sS'collage'
p1098
I1306
sS'film studies'
p1099
I1577
sS'agroforestry'
p1100
I1887
sS'a cappella'
p1101
I1328
sS'sport studies'
p1102
I1054
sS'hard trance'
p1103
I216
sS'neuropsychiatry'
p1104
I3405
sS'parachuting'
p1105
I121
sS'hymn'
p1106
I2110
sS'pan flute'
p1107
I2340
sS'biometrics'
p1108
I3663
sS'minneapolis sound'
p1109
I3703
sS'indie rock'
p1110
I774
sS'movies'
p1111
I9
sS'soft computing'
p1112
I3988
sS'slavistics'
p1113
I869
sS'underground hip hop'
p1114
I3768
sS'ufo'
p1115
I1493
sS'olifant'
p1116
I1097
sS'fan club'
p1117
I2681
sS'mainland china'
p1118
I2842
sS'seido'
p1119
I2562
sS'country pop'
p1120
I1758
sS'creative writing'
p1121
I777
sS'international'
p1122
I360
sS'mountain biking, downhill'
p1123
I3149
sS'geography'
p1124
I552
sS'vexillology'
p1125
I2694
sS'tabletop game'
p1126
I1379
sS'drum kit'
p1127
I807
sS'oldies'
p1128
I501
sS'social technology'
p1129
I2638
sS'morna'
p1130
I3904
sS'logrolling'
p1131
I3487
sS'chalga'
p1132
I3477
sS'french'
p1133
I277
sS'ausdruckstanz'
p1134
I3795
sS'guitar comedy'
p1135
I2291
sS'baseball'
p1136
I230
sS'comparative literature'
p1137
I985
sS'applied mechanics'
p1138
I3465
sS'child psychology'
p1139
I3153
sS'nonpop'
p1140
I4061
sS'software development'
p1141
I1649
sS'special education'
p1142
I982
sS'scoutball'
p1143
I4018
sS'fidonet'
p1144
I3842
sS'software testing'
p1145
I4032
sS'kwela'
p1146
I2602
sS'boi'
p1147
I1845
sS'baritone horn'
p1148
I3784
sS'freerunning'
p1149
I1151
sS'medieval history'
p1150
I615
sS'scat'
p1151
I1542
sS'finswimming'
p1152
I2257
sS'chemical biology'
p1153
I1935
sS'timpani'
p1154
I3556
sS'humour'
p1155
I620
sS'trad jazz'
p1156
I3913
sS'hard dance'
p1157
I2456
sS'italiano'
p1158
I1003
sS'animal science'
p1159
I966
sS'freestyle bmx'
p1160
I2900
sS'europop'
p1161
I3489
sS'baroque violin'
p1162
I3686
sS'marker'
p1163
I736
sS'semiology'
p1164
I1482
sS'dental surgery'
p1165
I3077
sS'sciences humaines'
p1166
I1772
sS'filmi'
p1167
I119
sS'stair baseball'
p1168
I3552
sS'urology'
p1169
I3687
sS'buno'
p1170
I4063
sS'abstract algebra'
p1171
I3508
sS'sport management'
p1172
I2308
sS'duda'
p1173
I772
sS'future bass'
p1174
I3328
sS'sports'
p1175
I64
sS'healthcare informatics'
p1176
I1681
sS'comic book'
p1177
I624
sS'latin american studies'
p1178
I2831
sS'horse racing'
p1179
I930
sS'background music'
p1180
I2603
sS'beadwork'
p1181
I2249
sS'amateur radio'
p1182
I906
sS'egyptology'
p1183
I1084
sS'bass saxophone'
p1184
I3381
sS'theatre music'
p1185
I81
sS'harsh noise'
p1186
I2916
sS'girl group'
p1187
I2526
sS'chicago blues'
p1188
I2971
sS'dystopia'
p1189
I1441
sS'geophysics'
p1190
I2122
sS'revolutionary war'
p1191
I2543
sS'folktronica'
p1192
I2980
sS'health education'
p1193
I1559
sS'educational music'
p1194
I1579
sS'business admin.'
p1195
I3158
sS'piano'
p1196
I279
sS'applied linguistics'
p1197
I1176
sS'dirty south'
p1198
I2703
sS'organizations'
p1199
I581
sS'lowercase'
p1200
I1990
sS'western movie'
p1201
I1454
sS'judo'
p1202
I369
sS'food engineering'
p1203
I2625
sS'caribbean literature'
p1204
I2716
sS'video games'
p1205
I231
sS'soul'
p1206
I167
sS'electrochemistry'
p1207
I3839
sS'machine learning'
p1208
I1619
sS'printing'
p1209
I275
sS'modern art'
p1210
I170
sS'dream house'
p1211
I3369
sS'krautrock'
p1212
I2984
sS'metalcore'
p1213
I1732
sS'laughter'
p1214
I199
sS'makina'
p1215
I1072
sS'upright bass'
p1216
I716
sS'photojournalism'
p1217
I1157
sS'fullon'
p1218
I3482
sS'post-industrial'
p1219
I1060
sS'world literature'
p1220
I983
sS'avant-garde jazz'
p1221
I3461
sS'powerboating'
p1222
I2271
sS'skydiving'
p1223
I97
sS'rock collecting'
p1224
I2695
sS'interior decoration'
p1225
I1230
sS'architectural history'
p1226
I310
sS'atmospheric physics'
p1227
I3361
sS'fantasy literature'
p1228
I1356
sS'deathgrind'
p1229
I3609
sS'shinty'
p1230
I2943
sS'medicinal chemistry'
p1231
I2338
sS'organizational behavior'
p1232
I1723
sS'bassline'
p1233
I2296
sS'nihilism'
p1234
I1059
sS'lounge'
p1235
I312
sS'capoeira angola'
p1236
I610
sS'tapestry'
p1237
I1113
sS'fps'
p1238
I968
sS'social psychology'
p1239
I661
sS'drum machine'
p1240
I1693
sS'public health'
p1241
I1613
sS'concert band'
p1242
I958
sS'sports news'
p1243
I1121
sS'kuduro'
p1244
I1046
sS'arm wrestling'
p1245
I1344
sS'freethought'
p1246
I1033
sS'jousting'
p1247
I2639
sS'medical engineering'
p1248
I3368
sS'political science'
p1249
I601
sS'comedy rock'
p1250
I3133
sS'sociolinguistics'
p1251
I1770
sS'zouglou'
p1252
I3623
sS'hip-hop world'
p1253
I3261
sS'surfing'
p1254
I102
sS'ss'
p1255
I2476
sS'visual kei'
p1256
I1800
sS'cosmology'
p1257
I2
sS'trampolining'
p1258
I754
sS'francais'
p1259
I1552
sS'amateur astronomy'
p1260
I1435
sS'dutch language'
p1261
I2474
sS'roller derby'
p1262
I711
sS'tenor recorder'
p1263
I3639
sS'catch wrestling'
p1264
I3091
sS'manga'
p1265
I192
sS'photography/film'
p1266
I484
sS'classical archaeology'
p1267
I2988
sS'oncology'
p1268
I965
sS'pipe'
p1269
I1416
sS'vietnam war'
p1270
I2584
sS'fipple'
p1271
I3723
sS'monoski'
p1272
I1942
sS'coin collecting'
p1273
I864
sS'dj music'
p1274
I1315
sS'portative organ'
p1275
I3921
sS'abstract hip hop'
p1276
I3651
sS'military science'
p1277
I2464
sS'blues dance'
p1278
I1926
sS'veena'
p1279
I2693
sS'social club'
p1280
I1606
sS'habitat conservation'
p1281
I2071
sS'group'
p1282
I133
sS'lied'
p1283
I2604
sS'classic pop'
p1284
I2154
sS'accordion'
p1285
I680
sS'audio technology'
p1286
I3054
sS'board games'
p1287
I146
sS'nuclear engineering'
p1288
I3202
sS'food management'
p1289
I2525
sS'street dance'
p1290
I820
sS'digital media'
p1291
I177
sS'jit'
p1292
I1954
sS'tangos'
p1293
I1833
sS'dance improvisation'
p1294
I1089
sS'urban sociology'
p1295
I1266
sS'indie-electro'
p1296
I794
sS'concert dance'
p1297
I1179
sS'limbo'
p1298
I1523
sS'chamber music'
p1299
I2204
sS'beekeeping'
p1300
I576
sS'earthquake engineering'
p1301
I3427
sS'finance'
p1302
I350
sS'guajira'
p1303
I3656
sS'indie folk'
p1304
I1706
sS'mainstream jazz'
p1305
I3983
sS'variety show'
p1306
I1731
sS'regency dance'
p1307
I2924
sS'chemistry;mathematics'
p1308
I2926
sS'diva house'
p1309
I2812
sS'semiotics'
p1310
I929
sS'aqua aerobics'
p1311
I2503
sS'acid rock'
p1312
I2968
sS'occult'
p1313
I1134
sS'teen pop'
p1314
I3692
sS'pommer'
p1315
I1425
sS'sonification'
p1316
I3720
sS'language acquisition'
p1317
I1426
sS'opera'
p1318
I397
sS'set theory'
p1319
I1359
sS'drop'
p1320
I226
sS'ethnobotany'
p1321
I1182
sS'orpharion'
p1322
I514
sS'fiction writing'
p1323
I1430
sS'political ecology'
p1324
I1697
sS'ssireum'
p1325
I3351
sS'rock'
p1326
I103
sS'violon alto'
p1327
I3884
sS'bebop'
p1328
I1776
sS'turtle'
p1329
I235
sS'pungi'
p1330
I3717
sS'soul music'
p1331
I1035
sS'electric piano'
p1332
I2568
sS'alternative 90s'
p1333
I2146
sS'kane'
p1334
I747
sS'directing'
p1335
I1102
sS'high fantasy'
p1336
I2834
sS'skicross'
p1337
I3724
sS'krav'
p1338
I3359
sS'social institutions'
p1339
I3400
sS'hacker'
p1340
I1670
sS'renaissance music'
p1341
I2566
sS'inorganic chemistry'
p1342
I2286
sS'player piano'
p1343
I105
sS'grime'
p1344
I2095
sS'alarm clock'
p1345
I1862
sS'african rap'
p1346
I3950
sS'dance mix'
p1347
I979
sS'gaida'
p1348
I3886
sS'doumbek'
p1349
I2391
sS'dutch'
p1350
I556
sS'medical ethics'
p1351
I2680
sS'lima lama'
p1352
I1703
sS'elementary education'
p1353
I2047
sS'human dimensions'
p1354
I3975
sS'jazz band'
p1355
I682
sS'hula'
p1356
I289
sS'theory'
p1357
I72
sS'uptempo'
p1358
I3804
sS'existentialism'
p1359
I1010
sS'czech literature'
p1360
I2629
sS'freestyle music'
p1361
I2489
sS'danz\xc3\xb3n'
p1362
I3419
sS'snooker'
p1363
I729
sS'california'
p1364
I851
sS'euro disco'
p1365
I3737
sS'rebec'
p1366
I3341
sS'biophysics'
p1367
I1201
sS'medieval latin'
p1368
I3132
sS'training'
p1369
I266
sS'natural resources'
p1370
I2885
sS'language'
p1371
I184
sS'soul blues'
p1372
I2355
sS'viet'
p1373
I2313
sS'programming'
p1374
I489
sS'clarion'
p1375
I1565
sS'ethology'
p1376
I1322
sS'institutional economics'
p1377
I3443
sS'vaccination'
p1378
I3024
sS'industrial technology'
p1379
I2589
sS'microlending'
p1380
I2721
sS'tai chi chuan'
p1381
I3051
sS'swing'
p1382
I357
sS'tulum'
p1383
I2044
sS'partner dancing'
p1384
I1265
sS'gangsta rap'
p1385
I1832
sS'arts administration'
p1386
I2297
sS'acoustic music'
p1387
I916
sS'cheese'
p1388
I288
sS'tennis'
p1389
I17
sS'americana'
p1390
I692
sS'bioinformatics'
p1391
I1136
sS'media technology'
p1392
I1778
sS'fen skating'
p1393
I2380
sS'kantele'
p1394
I2231
sS'vehicle dynamics'
p1395
I3447
sS'cybernetics'
p1396
I547
sS'ixd'
p1397
I3589
sS'family history'
p1398
I1856
sS'spanish'
p1399
I498
sS'goregrind'
p1400
I3750
sS'shuai jiao'
p1401
I2401
sS'hard rock'
p1402
I381
sS'search marketing'
p1403
I3889
sS'data mapping'
p1404
I4012
sS'folk punk'
p1405
I1627
sS'city'
p1406
I36
sS'chanson'
p1407
I704
sS'daytime drama'
p1408
I3583
sS'modern pentathlon'
p1409
I2797
sS'phonetics'
p1410
I2131
sS'jewish studies'
p1411
I3356
sS'living poetry'
p1412
I1937
sS'critical theory'
p1413
I694
sS'arghul'
p1414
I1638
sS'organizational studies'
p1415
I2216
sS'bicycle collecting'
p1416
I2643
sS'acid jazz'
p1417
I1167
sS'drum n bass'
p1418
I2176
sS'microhouse'
p1419
I3963
sS'nutrition'
p1420
I329
sS'mining'
p1421
I1232
sS'popular music'
p1422
I857
sS'kutiyapi'
p1423
I3660
sS'naginata'
p1424
I3543
sS'taxation'
p1425
I1205
sS'shawm'
p1426
I2843
sS'vocal jazz'
p1427
I3142
sS'cheerleading'
p1428
I952
sS'chemical sciences'
p1429
I1736
sS'indian music'
p1430
I1533
sS'ethnohistory'
p1431
I3233
sS'progg'
p1432
I721
sS'table football'
p1433
I1061
sS'bal-musette'
p1434
I3339
sS'semantics'
p1435
I257
sS'ceramics'
p1436
I628
sS'art history'
p1437
I183
sS'theatre arts'
p1438
I414
sS'television'
p1439
I458
sS'forensic chemistry'
p1440
I4013
sS'slow food'
p1441
I627
sS'sailing'
p1442
I98
sS'visual analytics'
p1443
I3523
sS'remote sensing'
p1444
I3388
sS'historical reenactment'
p1445
I1634
sS'typography'
p1446
I909
sS'family laws'
p1447
I2948
sS'metabolism'
p1448
I1817
sS'karate'
p1449
I712
sS'kinesiology'
p1450
I1294
sS'computer'
p1451
I90
sS'political economy'
p1452
I1352
sS'desert rock'
p1453
I2739
sS'cymbals'
p1454
I1502
sS'trash rock'
p1455
I3327
sS'luge'
p1456
I660
sS'math rock'
p1457
I1688
sS'marrabenta'
p1458
I1048
sS'rumba flamenca'
p1459
I3088
sS'drum set'
p1460
I1238
sS'military history'
p1461
I1463
sS'piccolo'
p1462
I2394
sS'persian literature'
p1463
I3100
sS'ancient philosophy'
p1464
I2591
sS'crossover'
p1465
I2414
sS'saz'
p1466
I787
sS'merengue music'
p1467
I3493
sS'wing chun'
p1468
I1348
sS'nazi'
p1469
I1514
sS'sema'
p1470
I2880
sS'marathon'
p1471
I322
sS'belgian rock'
p1472
I3811
sS'field hockey'
p1473
I596
sS'italian language'
p1474
I1197
sS'corporate finance'
p1475
I3314
sS'hung gar'
p1476
I2521
sS'home decor'
p1477
I1722
sS'keirin'
p1478
I2887
sS'acoustic rock'
p1479
I2062
sS'sciences'
p1480
I372
sS'rudra veena'
p1481
I1427
sS'animation'
p1482
I268
sS'nota'
p1483
I2963
sS'mobb music'
p1484
I4057
sS'sport rowing'
p1485
I1607
sS'performance'
p1486
I203
sS'tambourine'
p1487
I1561
sS'burmese boxing'
p1488
I2436
sS'marine science'
p1489
I1495
sS'tecno brega'
p1490
I1052
sS'tape music'
p1491
I3342
sS'denistry'
p1492
I1041
sS'computer applications'
p1493
I1906
sS'theatre'
p1494
I49
sS'finnish tango'
p1495
I2493
sS'border morris'
p1496
I3475
sS'shanson'
p1497
I3671
sS'murder mystery'
p1498
I2111
sS'crochet'
p1499
I526
sS'cb radio'
p1500
I3938
sS'systems integration'
p1501
I3601
sS'modern music'
p1502
I840
sS'olympic games'
p1503
I1943
sS'electro rock'
p1504
I771
sS'camping'
p1505
I35
sS'transnationality'
p1506
I1960
sS'queercore'
p1507
I2466
sS'psychodynamic psychotherapy'
p1508
I1645
sS'koras'
p1509
I3602
sS'gothic rock'
p1510
I2599
sS'metalworking'
p1511
I1251
sS'change ringing'
p1512
I2005
sS'southern rap'
p1513
I3401
sS'pop standards'
p1514
I3606
sS'professional'
p1515
I172
sS"80's"
p1516
I412
sS'cultural anthropology'
p1517
I1131
sS'freestyle skiing'
p1518
I1001
sS'laws'
p1519
I1639
sS'nlp'
p1520
I208
sS'walking'
p1521
I185
sS'claves'
p1522
I2211
sS'industrial techno'
p1523
I3927
sS'german'
p1524
I213
sS'computational statistics'
p1525
I3143
sS'kendo'
p1526
I713
sS'wind machine'
p1527
I2343
sS'shoa'
p1528
I437
sS'haptics'
p1529
I3592
sS'norwegian language'
p1530
I3588
sS'scale model'
p1531
I1930
sS'contemporary country'
p1532
I3043
sS'ocarina'
p1533
I2034
sS'mexican rock'
p1534
I2431
sS'trot'
p1535
I654
sS'deportation'
p1536
I625
sS'positive organ'
p1537
I3570
sS'eisa'
p1538
I4000
sS'pandeiro'
p1539
I1859
sS'extreme ironing'
p1540
I2325
sS'continuum mechanics'
p1541
I3272
sS'crime'
p1542
I568
sS'spirituality'
p1543
I18
sS'omnichord'
p1544
I3546
sS'hockey'
p1545
I389
sS'tibetan music'
p1546
I3349
sS'colloid chemistry'
p1547
I3576
sS'relational database'
p1548
I3255
sS'punk blues'
p1549
I2199
sS'informatique'
p1550
I614
sS'tiple'
p1551
I2782
sS'hailes'
p1552
I1632
sS'pipe organ'
p1553
I1343
sS'modern dance'
p1554
I564
sS'personal computer'
p1555
I3160
sS'jazz'
p1556
I346
sS'homebrewing'
p1557
I684
sS'slide guitar'
p1558
I1590
sS'electrojazz'
p1559
I1734
sS'pharmacogenomics'
p1560
I4014
sS'framing'
p1561
I913
sS'singer-songwriter'
p1562
I847
sS'systems biology'
p1563
I2792
sS'mysticism'
p1564
I1095
sS'paleoanthropology'
p1565
I2000
sS'surbahar'
p1566
I1428
sS'blends'
p1567
I1166
sS'bomba'
p1568
I1098
sS'gibson sg'
p1569
I3538
sS'naker'
p1570
I538
sS'keyboards'
p1571
I738
sS'morning'
p1572
I447
sS'incidental music'
p1573
I3562
sS'theoretical chemistry'
p1574
I3580
sS'toy piano'
p1575
I3185
sS'international economics'
p1576
I2191
sS'basic medicine'
p1577
I3315
sS'torban'
p1578
I3500
sS'bachata'
p1579
I812
sS'biogeography'
p1580
I1433
sS'great books'
p1581
I1067
sS'classical funk'
p1582
I2606
sS'moog synthesizer'
p1583
I3803
sS'economic development'
p1584
I1329
sS'liturgical dance'
p1585
I3881
sS'trail riding'
p1586
I2019
sS'new wave'
p1587
I1346
sS'mellotron'
p1588
I3123
sS'college'
p1589
I394
sS'jump rope'
p1590
I1898
sS'surgery'
p1591
I1614
sS'sport'
p1592
I73
sS'clarinet'
p1593
I562
sS'free funk'
p1594
I3849
sS'new blues'
p1595
I3496
sS'dressage'
p1596
I406
sS'italian jazz'
p1597
I3022
sS'health informatics'
p1598
I3959
sS'siter'
p1599
I182
sS'urban studies'
p1600
I1406
sS'kempul'
p1601
I3702
sS'farfisa'
p1602
I3316
sS'gaga'
p1603
I1473
sS'bass drum'
p1604
I1316
sS'klezmer'
p1605
I848
sS'hamburger schule'
p1606
I3812
sS'shoegazing'
p1607
I2217
sS'psychedelic music'
p1608
I800
sS'bata drums'
p1609
I3354
sS'kite culture'
p1610
I3509
sS'street organ'
p1611
I3082
sS'punto'
p1612
I1620
sS'guitar'
p1613
I237
sS'chacha'
p1614
I2080
sS'dixieland'
p1615
I3155
sS'conscious hip hop'
p1616
I3295
sS'electrical engineering'
p1617
I1691
sS'jugger'
p1618
I863
sS'comb'
p1619
I881
sS'shintaido'
p1620
I3835
sS'foxtrot'
p1621
I1687
sS'rugby'
p1622
I58
sS'data visualization'
p1623
I1669
sS'film actress'
p1624
I3353
sS'gothic fiction'
p1625
I3011
sS'seishinkai'
p1626
I2962
sS'yiquan'
p1627
I3245
sS'chromatic harmonica'
p1628
I3779
sS'residency'
p1629
I951
sS'probability theory'
p1630
I1115
sS'software engineer'
p1631
I1234
sS'rhodes piano'
p1632
I2535
sS'pop punk'
p1633
I2287
sS'greek language'
p1634
I2153
sS'legal studies'
p1635
I3421
sS'cancer'
p1636
I831
sS'kazoo'
p1637
I2090
sS'robotics'
p1638
I905
sS'web science'
p1639
I3778
sS'pop'
p1640
I214
sS'romaic'
p1641
I3903
sS'base jumping'
p1642
I756
sS'data warehousing'
p1643
I3874
sS'learning'
p1644
I5
sS'data mining'
p1645
I3076
sS'polo'
p1646
I1009
sS'information science'
p1647
I2192
sS'guitarron'
p1648
I2167
sS'virtual reality'
p1649
I2334
sS'golf fitness'
p1650
I2261
sS'textile technology'
p1651
I3061
sS'epistemology'
p1652
I619
sS'arts'
p1653
I76
sS'cycling'
p1654
I13
sS'fender rhodes'
p1655
I2536
sS'international education'
p1656
I1944
sS'bansuri'
p1657
I2422
sS'tropical'
p1658
I26
sS'uv astronomy'
p1659
I2722
sS'son montuno'
p1660
I3683
sS'shakers'
p1661
I987
sS'davul'
p1662
I225
sS'biochemical sciences'
p1663
I2856
sS'serious game'
p1664
I1371
sS'chicago house'
p1665
I3491
sS'direction'
p1666
I602
sS'charango'
p1667
I1150
sS'shopping'
p1668
I220
sS'battojutsu'
p1669
I3140
sS'molecular biology'
p1670
I1830
sS'work song'
p1671
I3530
sS'squash'
p1672
I515
sS'nordic walking'
p1673
I915
sS'classical music'
p1674
I399
sS'soapbox'
p1675
I3457
sS'cloud watching'
p1676
I1355
sS'brass instrument'
p1677
I2086
sS'futsal'
p1678
I427
sS'virginals'
p1679
I609
sS'bendir'
p1680
I3232
sS'political management'
p1681
I2223
sS'early music'
p1682
I1707
sS'deltiology'
p1683
I3817
sS'real tennis'
p1684
I1499
sS'northern soul'
p1685
I1184
sS'serialism'
p1686
I699
sS'port engineering'
p1687
I3192
sS'seggae'
p1688
I2485
sS'sci-fi music'
p1689
I3216
sS'language courses'
p1690
I2240
sS'trance music'
p1691
I1138
sS'world news'
p1692
I939
sS'xingyiquan'
p1693
I2322
sS'newspaper'
p1694
I433
sS'underground rap'
p1695
I2711
sS'samba funk'
p1696
I3176
sS'mass communication'
p1697
I1423
sS'avantgarde music'
p1698
I2918
sS'roller sport'
p1699
I1790
sS'viking metal'
p1700
I3074
sS'post-grunge'
p1701
I3677
sS'international security'
p1702
I2419
sS'management science'
p1703
I1394
sS'ambient'
p1704
I551
sS'analytic philosophy'
p1705
I1640
sS'rugby football'
p1706
I806
sS'berimbau'
p1707
I2043
sS'technology'
p1708
I22
sS'classical philology'
p1709
I2392
sS'basic sciences'
p1710
I3449
sS'furniture music'
p1711
I2324
sS'electronic organ'
p1712
I1466
sS'pepa'
p1713
I308
sS'media'
p1714
I409
sS'finacial analysis'
p1715
I2653
sS'nuevo tango'
p1716
I2862
sS'speech'
p1717
I1598
sS'aerobics'
p1718
I473
sS'futures studies'
p1719
I1032
sS'kajukenbo'
p1720
I3161
sS'circle dance'
p1721
I1241
sS'punk jazz'
p1722
I3164
sS'model building'
p1723
I1332
sS'environmental planning'
p1724
I2955
sS'space rock'
p1725
I2996
sS'drone music'
p1726
I3227
sS'house music'
p1727
I577
sS'disco music'
p1728
I829
sS'drum programming'
p1729
I2826
sS'zooarchaeology'
p1730
I3215
sS'mountain unicycling'
p1731
I2724
sS'running'
p1732
I89
sS'alt-country'
p1733
I2075
sS'lute'
p1734
I1249
sS'special interests'
p1735
I1015
sS'advertisement'
p1736
I1231
sS'cantonese opera'
p1737
I3867
sS'techno music'
p1738
I1945
sS'climbing'
p1739
I38
sS'tonbak'
p1740
I3974
sS'electrical engineer'
p1741
I2016
sS'freak folk'
p1742
I3217
sS'control systems'
p1743
I2030
sS'melodic funk'
p1744
I4022
sS'theater'
p1745
I61
sS'gaelic football'
p1746
I1729
sS'bagpipes'
p1747
I1512
sS'biwa'
p1748
I1773
sS'semantic web'
p1749
I2730
sS'relief'
p1750
I1273
sS'concert march'
p1751
I3584
sS'behaviorism'
p1752
I1507
sS'film music'
p1753
I274
sS'glass art'
p1754
I1031
sS'environmental engineering'
p1755
I1855
sS'mashup'
p1756
I3047
sS'electrical science'
p1757
I3231
sS'ballroom dance'
p1758
I849
sS'digital marketing'
p1759
I2187
sS'performing arts'
p1760
I644
sS'outdoor'
p1761
I87
sS'natural sciences'
p1762
I891
sS'rock polishing'
p1763
I3995
sS'charanga'
p1764
I3644
sS'flugelhorn'
p1765
I2399
sS'actress'
p1766
I2058
sS'brazillian music'
p1767
I416
sS'bertsolaritza'
p1768
I1987
sS'speedrock'
p1769
I3919
sS'glaciology'
p1770
I2899
sS'african electronica'
p1771
I3637
sS'heuristic'
p1772
I524
sS'samba'
p1773
I418
sS'public administration'
p1774
I2794
sS'mandolin'
p1775
I767
sS'yu'
p1776
I1784
sS'neo-medieval'
p1777
I3210
sS'chapman stick'
p1778
I3430
sS'sambo'
p1779
I2067
sS'musical theater'
p1780
I989
sS'contesting'
p1781
I652
sS'foreign relations'
p1782
I2342
sS'biomedical sciences'
p1783
I3283
sS'sampler'
p1784
I194
sS'funk music'
p1785
I1250
sS'evolutionary systematics'
p1786
I2232
sS'peteca'
p1787
I3420
sS'careers'
p1788
I2580
sS'architectural engineering'
p1789
I2373
sS'steeldrum'
p1790
I3494
sS'agricultural economics'
p1791
I2877
sS'jazz manouche'
p1792
I1918
sS'shakuhachi'
p1793
I2758
sS'general chemistry'
p1794
I3049
sS'sumo'
p1795
I2173
sS'geriatrics'
p1796
I1195
sS'brake house'
p1797
I3937
sS'electro-industrial'
p1798
I2108
sS'parody'
p1799
I1980
sS'rugby league'
p1800
I1288
sS'railroad'
p1801
I1601
sS'international folk dance'
p1802
I3726
sS'mod'
p1803
I224
sS'irish bouzouki'
p1804
I3802
sS'dog agility'
p1805
I2266
sS'mathematical biology'
p1806
I1982
sS'chinese society'
p1807
I4008
sS'musical performance'
p1808
I1400
sS'space physics'
p1809
I2293
sS'bungee jumping'
p1810
I648
sS'biathlon'
p1811
I606
sS'cinema studies'
p1812
I2483
sS'contemporary dance'
p1813
I474
sS'wine tasting'
p1814
I323
sS'ehealth'
p1815
I2932
sS'demography'
p1816
I1535
sS'jazz keyboard'
p1817
I2908
sS'pop soul'
p1818
I2579
sS'cancer biology'
p1819
I3171
sS'fives'
p1820
I569
sS'bass violin'
p1821
I2500
sS'public relations'
p1822
I792
sS'dilbert'
p1823
I1977
sS'alternative health'
p1824
I195
sS'ambulatory care'
p1825
I3293
sS'classical studies'
p1826
I2219
sS'information retrieval'
p1827
I3117
sS'proteomics'
p1828
I3470
sS'gerontology'
p1829
I2635
sS'chacarera'
p1830
I3020
sS'diving'
p1831
I40
sS'kyokushin'
p1832
I1459
sS'triple jump'
p1833
I3097
sS'public service'
p1834
I3015
sS'afro pop'
p1835
I4004
sS'korg karma'
p1836
I3322
sS'square dance'
p1837
I1163
sS'pilates'
p1838
I731
sS'caribbean'
p1839
I584
sS'symbolic anthropology'
p1840
I3289
sS'moog'
p1841
I1410
sS'modern rock'
p1842
I2335
sS'afrobeat'
p1843
I2329
sS"children's books"
p1844
I1892
sS'tuba'
p1845
I255
sS'economic geology'
p1846
I3679
sS'parasitology'
p1847
I2523
sS'keytar'
p1848
I1689
sS'pentathlon'
p1849
I600
sS'medical microbiology'
p1850
I2184
sS'melodic hardcore'
p1851
I3627
sS'autoharp'
p1852
I1335
sS'sousaphone'
p1853
I2267
sS'urban folk'
p1854
I3417
sS'diplomatics'
p1855
I3943
sS'programming language'
p1856
I1515
sS'birdfeeding'
p1857
I3319
sS'jewelry design'
p1858
I1118
sS'football'
p1859
I74
sS'business'
p1860
I14
sS'legal philosophy'
p1861
I355
sS'river running'
p1862
I2995
sS'manufacturing engineering'
p1863
I2652
sS'secondary education'
p1864
I2437
sS'jazz studies'
p1865
I2066
sS'comparative government'
p1866
I1994
sS'racial inequality'
p1867
I3688
sS'drums'
p1868
I132
sS'us news'
p1869
I1740
sS'biomedical engineering'
p1870
I830
sS'hollands'
p1871
I1088
sS'emeiquan'
p1872
I3434
sS'rogaining'
p1873
I2208
sS'organic chemistry'
p1874
I2245
sS'conducting'
p1875
I1202
sS'hungarian folk music'
p1876
I3681
sS'mathematics'
p1877
I404
sS'broken beat'
p1878
I2118
sS'chronobiology'
p1879
I3652
sS'chamberlin'
p1880
I4001
sS'security studies'
p1881
I2114
sS'ideology'
p1882
I1728
sS'preventive medicine'
p1883
I3358
sS'exotica'
p1884
I643
sS'folk music'
p1885
I478
sS'ligature'
p1886
I2115
sS'portfolio management'
p1887
I3505
sS'oncology nursing'
p1888
I2178
sS'ecommerce'
p1889
I2706
sS'curling'
p1890
I305
sS'old salsa'
p1891
I3838
sS'systems science'
p1892
I2966
sS'communication'
p1893
I109
sS'smooth jazz'
p1894
I2615
sS'group dance'
p1895
I2050
sS'film production'
p1896
I1140
sS'bjj'
p1897
I1788
sS'tenor saxophone'
p1898
I2165
sS'italian opera'
p1899
I2775
sS'mathematical physics'
p1900
I1679
sS'warr guitar'
p1901
I4023
sS'digital synthesizer'
p1902
I2810
sS'yacht racing'
p1903
I1528
sS'music visualization'
p1904
I1038
sS'lead guitar'
p1905
I2600
sS'other games'
p1906
I1443
sS'rap music'
p1907
I1834
sS'semba'
p1908
I2572
sS'racquet'
p1909
I2194
sS'transportation engineering'
p1910
I3549
sS'radiology'
p1911
I2801
sS'emergency medicine'
p1912
I2278
sS'crunk'
p1913
I2586
sS'candombe'
p1914
I1529
sS'communication design'
p1915
I1254
sS'ultramarathon'
p1916
I1281
sS'christianity'
p1917
I935
sS'endocrinology'
p1918
I1220
sS'wargaming'
p1919
I2229
sS'harpsichord'
p1920
I1664
sS'underwater rugby'
p1921
I2119
sS'valencia'
p1922
I1741
sS'psychopharmacology'
p1923
I2883
sS'wine making'
p1924
I244
sS'human relations'
p1925
I1057
sS'industrial metal'
p1926
I2282
sS'interfaith'
p1927
I1971
sS'grunge'
p1928
I833
sS'jug'
p1929
I3252
sS'european history'
p1930
I1304
sS'remix'
p1931
I2415
sS'booty house'
p1932
I3780
sS'indian rock'
p1933
I1682
sS'indian dance'
p1934
I1191
sS'astrolog\xc3\xada'
p1935
I3180
sS'electroclash'
p1936
I2667
sS'chemical engineering'
p1937
I1455
sS'computer security'
p1938
I1789
sS'drum and bass'
p1939
I3649
sS'mummers play'
p1940
I3557
sS'podcast'
p1941
I462
sS'audio production'
p1942
I2341
sS'squash rackets'
p1943
I2369
sS'kite flying'
p1944
I1557
sS'cytology'
p1945
I3060
sS'miniature golf'
p1946
I2275
sS'comics'
p1947
I302
sS'electronic rap'
p1948
I2762
sS'harmonica blues'
p1949
I3333
sS'melodeon'
p1950
I2083
sS'spamming'
p1951
I2597
sS'kalimba'
p1952
I1748
sS'computational photography'
p1953
I803
sS'ceng'
p1954
I3610
sS'ambient house'
p1955
I4026
sS'roots reggae'
p1956
I2041
sS'english flute'
p1957
I3901
sS'russ'
p1958
I3116
sS'yiddish'
p1959
I1644
sS'acoustical engineering'
p1960
I3456
sS'the warlocks'
p1961
I2869
sS'beach rock'
p1962
I1496
sS'gong'
p1963
I1211
sS'comparative law'
p1964
I2524
sS'ad'
p1965
I813
sS'cinema'
p1966
I115
sS'ai'
p1967
I895
sS'gouren'
p1968
I2870
sS'hurdy gurdy'
p1969
I2650
sS'sales'
p1970
I567
sS'psych folk'
p1971
I2649
sS'health care'
p1972
I555
sS'organ transplant'
p1973
I3147
sS'hobbies'
p1974
I85
sS'politics'
p1975
I79
sS'surf punk'
p1976
I3626
sS'film'
p1977
I247
sS'french rock'
p1978
I2012
sS'geographic medicine'
p1979
I3008
sS'yoga'
p1980
I57
sS'baglama'
p1981
I1965
sS'bicycling'
p1982
I100
sS'piracy'
p1983
I1323
sS'agricultural chemistry'
p1984
I3213
sS'dramatic literature'
p1985
I1738
sS'hellenistic philosophy'
p1986
I3386
sS'dream pop'
p1987
I3287
sS'penicillin'
p1988
I3512
sS'new age'
p1989
I963
sS'non-associative algebra'
p1990
I3582
sS'storytelling game'
p1991
I2991
sS'beach tennis'
p1992
I1727
sS'gambling'
p1993
I476
sS'goalball'
p1994
I3009
sS'string bass'
p1995
I3004
sS'son jarocho'
p1996
I2548
sS'county collecting'
p1997
I3877
sS'molecular nanotechnology'
p1998
I3855
sS'true metal'
p1999
I3868
sS'parkour'
p2000
I775
sS'spanish guitar'
p2001
I1599
sS'boabom'
p2002
I3906
sS'chorale'
p2003
I705
sS'still photographer'
p2004
I3099
sS'urban exploration'
p2005
I635
sS'nederlands'
p2006
I1068
sS'seismology'
p2007
I1911
sS'mechanical'
p2008
I904
sS'cuica'
p2009
I3700
sS'fluid dynamics'
p2010
I2975
sS'brass'
p2011
I1674
sS'pool'
p2012
I583
sS'economic history'
p2013
I778
sS'marine biology'
p2014
I1511
sS'ball badminton'
p2015
I2250
sS'legong'
p2016
I3437
sS'french boxing'
p2017
I1947
sS'madrigal'
p2018
I2723
sS"rock n' roll"
p2019
I1766
sS'mento'
p2020
I1690
sS'environmental chemistry'
p2021
I2443
sS'combat sport'
p2022
I2174
sS'talking blues'
p2023
I2214
sS'resource economics'
p2024
I3305
sS'mathmatics'
p2025
I3170
sS'duranguense'
p2026
I2445
sS'interaction design'
p2027
I1291
sS'urban education'
p2028
I3302
sS'combinatorial mathematics'
p2029
I3616
sS'turkish music'
p2030
I2514
sS'strings'
p2031
I785
sS'\xd8\xa7\xd9\x84\xd9\x84\xd8\xba\xd8\xa9 \xd8\xa7\xd9\x84\xd8\xb9\xd8\xb1\xd8\xa8\xd9\x8a\xd8\xa9'
p2032
I3208
sS'natural trumpet'
p2033
I4027
sS'internet advertising'
p2034
I1467
sS'engineering technology'
p2035
I658
sS'geoinformatics'
p2036
I2502
sS'speedcore'
p2037
I3648
sS'allergy'
p2038
I1870
sS'gothic funk'
p2039
I3545
sS'mammalogy'
p2040
I3697
sS'dsp'
p2041
I3578
sS'cooperative'
p2042
I797
sS'welfare'
p2043
I112
sS'aggressive inline skating'
p2044
I3831
sS'meditation'
p2045
I117
sS'gemology'
p2046
I2685
sS'chill out music'
p2047
I1992
sS'hardcore'
p2048
I325
sS'speech pathology'
p2049
I2274
sS'folk dance'
p2050
I866
sS'hunting'
p2051
I597
sS'tv'
p2052
I252
sS'ragga'
p2053
I1345
sS'savate'
p2054
I375
sS'bandola'
p2055
I3643
sS'psybient'
p2056
I2666
sS'physical fitness'
p2057
I920
sS'japanese language'
p2058
I821
sS'modernization'
p2059
I2712
sS'ugal'
p2060
I1283
sS'mathematical analysis'
p2061
I3577
sS'organizational dynamics'
p2062
I3767
sS'adani'
p2063
I3310
sS'qawwali'
p2064
I3816
sS'biolinguistics'
p2065
I3853
sS'materials science'
p2066
I2691
sS'semiconductor physics'
p2067
I3776
sS'mpb'
p2068
I856
sS'automobile engineering'
p2069
I1709
sS'horror'
p2070
I50
sS'supercomputer'
p2071
I3843
sS'musica criolla'
p2072
I3658
sS'documentaries'
p2073
I482
sS'british literature'
p2074
I2449
sS'street punk'
p2075
I2837
sS'wushu'
p2076
I1695
sS'foreign service'
p2077
I3614
sS'software developer'
p2078
I1643
sS'infectious diseases'
p2079
I1612
sS'anatolian'
p2080
I1505
sS'castilian'
p2081
I3918
sS'casiotone'
p2082
I2964
sS'shekere'
p2083
I3398
sS'carpet design'
p2084
I3936
sS'medical technology'
p2085
I1545
sS'lisp'
p2086
I2779
sS'evaluation'
p2087
I2244
sS'variety arts'
p2088
I1216
sS'brazilian jiu-jitsu'
p2089
I1885
sS'hammer throw'
p2090
I3458
sS'phonology'
p2091
I2935
sS'art punk'
p2092
I2205
sS'saxophone'
p2093
I345
sS'krav maga'
p2094
I496
sS'norteno'
p2095
I3379
sS'french house'
p2096
I2482
sS'sanj'
p2097
I870
sS'forensic anthropology'
p2098
I3469
sS'music theatre'
p2099
I499
sS'low whistle'
p2100
I3861
sS'economics tripos'
p2101
I1488
sS'interdisciplinary studies'
p2102
I3172
sS'raggaeton'
p2103
I3591
sS'systems analysis'
p2104
I3039
sS'folk jazz'
p2105
I2163
sS'design'
p2106
I144
sS'biological chemistry'
p2107
I3183
sS'information design'
p2108
I2252
sS'argentine tango'
p2109
I629
sS'production design'
p2110
I1708
sS'environmental health'
p2111
I1610
sS'investment'
p2112
I403
sS'birdwatching'
p2113
I554
sS'freebord'
p2114
I2388
sS'kubing'
p2115
I1589
sS'internet marketing'
p2116
I1847
sS'investing'
p2117
I354
sS'canadian rock'
p2118
I3751
sS'movie actor'
p2119
I1000
sS'microbiology'
p2120
I1391
sS'bubblegum pop'
p2121
I3871
sS'fashion design'
p2122
I790
sS'japanese hardcore'
p2123
I3876
sS'version'
p2124
I975
sS'british rock'
p2125
I1137
sS'alto horn'
p2126
I3787
sS'dulcian'
p2127
I1749
sS'igil'
p2128
I4056
sS'racing'
p2129
I234
sS'combatives'
p2130
I2973
sS'game show'
p2131
I2031
sS'alternative rock'
p2132
I727
sS'christian'
p2133
I676
sS'slow jam'
p2134
I2663
sS'anti-zionism'
p2135
I1798
sS'bali silat'
p2136
I3772
sS'game art'
p2137
I1212
sS'buddhist music'
p2138
I978
sS'sacred music'
p2139
I2993
sS'coco'
p2140
I253
sS'ragtime'
p2141
I3184
sS'san shou'
p2142
I3894
sS'moral psychology'
p2143
I2532
sS'ceilidh'
p2144
I1966
sS"women's studies"
p2145
I1278
sS'tragedy'
p2146
I1595
sS'british history'
p2147
I1383
sS'publisher'
p2148
I885
sS'health sciences'
p2149
I2752
sS'vocal trance'
p2150
I1586
sS'computational neuroscience'
p2151
I2181
sS'vietnamese'
p2152
I1320
sS'muay thai'
p2153
I1063
sS'bobsledding'
p2154
I3203
sS'advertising'
p2155
I961
sS'numismatics'
p2156
I251
sS'shuffle'
p2157
I1100
sS'family'
p2158
I254
sS'business administration'
p2159
I2718
sS'system analysis'
p2160
I3248
sS'international marketing'
p2161
I2492
sS'techno bass'
p2162
I3743
sS'graphic design'
p2163
I353
sS'birding'
p2164
I284
sS"women's basketball"
p2165
I3510
sS'enterprise software'
p2166
I3922
sS'triathalon'
p2167
I1207
sS'food chemistry'
p2168
I1899
sS'semiclassical'
p2169
I3822
sS"jew's harp"
p2170
I1839
sS'metallurgy'
p2171
I2074
sS'mountain bike racing'
p2172
I3228
sS'kabak kemane'
p2173
I3389
sS'freakbeat'
p2174
I1696
sS'steel-string guitar'
p2175
I3415
sS'vocal harmony'
p2176
I3152
sS'water basketball'
p2177
I2854
sS'quantum mechanics'
p2178
I456
sS'shinobue'
p2179
I3323
sS'fingerstyle guitar'
p2180
I2534
sS'biochemistry'
p2181
I1219
sS'disc golf'
p2182
I295
sS'nu rave'
p2183
I3820
sS'haidong gumdo'
p2184
I2853
sS'ballad'
p2185
I459
sS'soprano saxophone'
p2186
I2798
sS'tumba'
p2187
I3317
sS'oboe'
p2188
I1754
sS'radio documentary'
p2189
I3190
sS'aves'
p2190
I2628
sS'yuca'
p2191
I2913
sS'instrumental'
p2192
I855
sS'iaijutsu'
p2193
I3141
sS'musique concr\xc3\xa8te'
p2194
I3404
sS'world music'
p2195
I495
sS'hinduism'
p2196
I1034
sS'microhistory'
p2197
I1962
sS'economics, german'
p2198
I3533
sS'minimalist music'
p2199
I804
sS'punctualism'
p2200
I1087
sS'fourth world'
p2201
I3890
sS'film theory'
p2202
I494
sS'breakdance'
p2203
I1155
sS'mathematical game'
p2204
I3622
sS'theater criticism'
p2205
I396
sS'science'
p2206
I70
sS'technical death metal'
p2207
I3277
sS'bell chimes'
p2208
I2374
sS'food science'
p2209
I1156
sS'tahitian'
p2210
I1757
sS'varma kalai'
p2211
I3752
sS'jujutsu'
p2212
I1718
sS'performance studies'
p2213
I2774
sS'renaissance literature'
p2214
I1774
sS'finnish hip hop'
p2215
I1927
sS'vt'
p2216
I2354
sS'country folk'
p2217
I2668
sS'history'
p2218
I127
sS'electrogoth'
p2219
I2729
sS'guitar mashing'
p2220
I3467
sS'dhrupad'
p2221
I3873
sS'petrology'
p2222
I3891
sS'secularism'
p2223
I1403
sS'rave music'
p2224
I217
sS'andean music'
p2225
I365
sS'darkwave'
p2226
I1367
sS'language game'
p2227
I2024
sS'roleplaying game'
p2228
I789
sS'dendrology'
p2229
I2315
sS'mountain biking'
p2230
I46
sS'biography'
p2231
I508
sS'graphic designer'
p2232
I1593
sS'clinical medicine'
p2233
I2848
sS'triathlon'
p2234
I422
sS'boy band'
p2235
I2242
sS'backpacking'
p2236
I366
sS'counseling psychology'
p2237
I3483
sS'diplomatic sciences'
p2238
I2588
sS'lyra'
p2239
I634
sS'breaking'
p2240
I33
sS'lyre'
p2241
I2350
sS'arp 2600'
p2242
I3124
sS'personal computers'
p2243
I2715
sS'diplomatic history'
p2244
I3725
sS'independent music'
p2245
I367
sS'plena'
p2246
I2307
sS'nonprofit management'
p2247
I3769
sS'free improvisation'
p2248
I3294
sS'target practice'
p2249
I2933
sS'indian fusion'
p2250
I2641
sS'synthesizer'
p2251
I71
sS'punk rock'
p2252
I270
sS'designer game'
p2253
I2241
sS'algebra'
p2254
I1468
sS'algebraic combinatorics'
p2255
I3348
sS'lieder'
p2256
I3032
sS'intelligent design'
p2257
I2558
sS'fine art photography'
p2258
I3013
sS'entrepreneurship'
p2259
I116
sS'soundtrack'
p2260
I1366
sS'soil science'
p2261
I2974
sS'adventure'
p2262
I19
sS'softball'
p2263
I239
sS'telecommunications engineering'
p2264
I3801
sS'ethics'
p2265
I378
sS'behavioural sciences'
p2266
I1814
sS'landscape ecology'
p2267
I2258
sS'hip-hop klezmer'
p2268
I3536
sS'italian renaissance'
p2269
I2032
sS'alternative metal'
p2270
I2529
sS'documentation'
p2271
I1908
sS'spoon'
p2272
I1377
sS'volleyball'
p2273
I267
sS'trova'
p2274
I2332
sS'urban design'
p2275
I1324
sS'labor economics'
p2276
I3722
sS'portugu\xc3\xaas'
p2277
I2520
sS'piano pedagogy'
p2278
I3541
sS'method acting'
p2279
I3866
sS'chinese philosophy'
p2280
I2203
sS'bocce'
p2281
I1964
sS'competitive eating'
p2282
I595
sS'hobby farming'
p2283
I3195
sS'\xd7\xa2\xd7\x91\xd7\xa8\xd7\x99\xd7\xaa'
p2284
I3587
sS'taxonomy'
p2285
I1434
sS'medieval dance'
p2286
I2609
sS'fossil collecting'
p2287
I2897
sS"lion's roar"
p2288
I3961
sS'structural biology'
p2289
I3046
sS'active rock'
p2290
I1445
sS'physical science'
p2291
I1504
sS'evolutionary biology'
p2292
I479
sS'surgeon'
p2293
I2029
sS'roots'
p2294
I871
sS'astrology'
p2295
I181
sS'normative theory'
p2296
I2825
sS'style'
p2297
I44
sS'string instrument'
p2298
I2048
sS'systema'
p2299
I2571
sS'kumdo'
p2300
I2799
sS'grand piano'
p2301
I798
sS'funky breaks'
p2302
I2704
sS'cryptology'
p2303
I3023
sS'hindustani music'
p2304
I3424
sS'environmentalism'
p2305
I383
sS'hospital administration'
p2306
I4010
sS'education technology'
p2307
I1983
sS'plant pathology'
p2308
I2859
sS'clarsach'
p2309
I2365
sS'hang gliding'
p2310
I1714
sS'soccer'
p2311
I250
sS'fishing game'
p2312
I2561
sS'kite construction'
p2313
I2006
sS'brand management'
p2314
I2657
sS'taxidermy'
p2315
I1313
sS'drama'
p2316
I664
sS'food'
p2317
I93
sS'gwo ka'
p2318
I3809
sS'digital piano'
p2319
I3106
sS'scat singing'
p2320
I3411
sS'paddle tennis'
p2321
I1392
sS'firebird'
p2322
I3759
sS'weissenborn'
p2323
I2741
sS'balaban'
p2324
I3956
sS'bass pedals'
p2325
I3864
sS'shito ryu'
p2326
I2082
sS'bollywood'
p2327
I446
sS'kombatan'
p2328
I2285
sS'audio blogs'
p2329
I3893
sS'luta livre'
p2330
I3010
sS'mystery'
p2331
I108
sS'contrabass guitar'
p2332
I3186
sS'tro'
p2333
I1223
sS'cantopop'
p2334
I2646
sS'fantasy'
p2335
I278
sS'central america'
p2336
I732
sS'kayaking'
p2337
I42
sS'philology'
p2338
I2038
sS'political methodology'
p2339
I2512
sS'bass guitar'
p2340
I258
sS'pocket trumpet'
p2341
I3522
sS'computer music'
p2342
I276
sS'torball'
p2343
I3312
sS'other languages'
p2344
I420
sS'city planning'
p2345
I1357
sS'athletics'
p2346
I744
sS'organetto'
p2347
I2954
sS'acoustic pop'
p2348
I3352
sS'classic country'
p2349
I2621
sS'hepatology'
p2350
I1165
sS'pirates'
p2351
I1168
sS'vielle'
p2352
I306
sS'knowledge management'
p2353
I2689
sS'dance anthem'
p2354
I3559
sS'repetitive music'
p2355
I2640
sS'peruvian cumbia'
p2356
I2554
sS'neurology'
p2357
I1292
sS'new pop'
p2358
I3070
sS'nordic combined'
p2359
I3137
sS'blues'
p2360
I434
sS'insurance'
p2361
I1503
sS'harp'
p2362
I809
sS'sustainable design'
p2363
I1853
sS'piano blues'
p2364
I3912
sS'quantum chemistry'
p2365
I2351
sS'psychology'
p2366
I47
sS'tamburello'
p2367
I3073
sS'latin house'
p2368
I2773
sS'geological engineering'
p2369
I2728
sS'sound collage'
p2370
I2540
sS'veterary science'
p2371
I3744
sS'piatti'
p2372
I3204
sS'acting'
p2373
I202
sS'future jazz'
p2374
I2473
sS'health'
p2375
I154
sS'bazooka'
p2376
I3745
sS'delta blues'
p2377
I466
sS'german language'
p2378
I1368
sS'improvisational comedy'
p2379
I205
sS'hydraulis'
p2380
I3571
sS'footbag net'
p2381
I3621
sS'chemistry, music'
p2382
I2193
sS'african studies'
p2383
I1809
sS'bass'
p2384
I198
sS'rock blues'
p2385
I835
sS'chemistry & biochemistry'
p2386
I2719
sS'formula one'
p2387
I672
sS'gaelic music'
p2388
I2619
sS'butter sculpture'
p2389
I3791
sS'freestyle frisbee'
p2390
I1081
sS'table tennis'
p2391
I210
sS'basketball'
p2392
I99
sS'patternmaking'
p2393
I1132
sS'maths'
p2394
I516
sS'music cognition'
p2395
I2209
sS'phd'
p2396
I834
sS'latin rock'
p2397
I2036
sS'polish music'
p2398
I1730
sS'conservation-restoration'
p2399
I3851
sS'country-rap'
p2400
I1376
sS'pilota'
p2401
I858
sS'public economics'
p2402
I3383
sS'ulla'
p2403
I3909
sS'german opera'
p2404
I1777
sS'alto violin'
p2405
I3870
sS'minimal electronica'
p2406
I2460
sS'construction engineering'
p2407
I2858
sS'nwobhm'
p2408
I3275
sS'snowboarding'
p2409
I30
sS'boccia'
p2410
I2692
sS'shukokai'
p2411
I2397
sS'nu metal'
p2412
I722
sS'goombay'
p2413
I4025
sS'botany'
p2414
I942
sS'microfinance'
p2415
I1543
sS'lounge music'
p2416
I1916
sS'metaphysical politics'
p2417
I2463
sS'urban acupuncture'
p2418
I4040
sS'happy hardcore'
p2419
I1835
sS'querfl\xc3\xb6te'
p2420
I1540
sS'book burning'
p2421
I2318
sS'dholak'
p2422
I3775
sS'tinku'
p2423
I4006
sS'dramyin'
p2424
I4002
sS'production management'
p2425
I2863
sS'boxe fran\xc3\xa7aise'
p2426
I2177
sS'anonymity'
p2427
I1807
sS'tonette'
p2428
I2987
sS'tribal house'
p2429
I3265
sS'crocker'
p2430
I2326
sS'administrative science'
p2431
I3667
sS'wood chopping'
p2432
I2670
sS'janggu'
p2433
I4055
sS'pop rock'
p2434
I718
sS'guiro'
p2435
I3432
sS'gamelan'
p2436
I1319
sS'flight medicine'
p2437
I1823
sS'lawn bowls'
p2438
I723
sS'international management'
p2439
I3012
sS'shoot boxing'
p2440
I2755
sS'global health'
p2441
I521
sS'orthopedics'
p2442
I1334
sS'castanet'
p2443
I3212
sS'experimental music'
p2444
I623
sS'lapta'
p2445
I3823
sS'twee pop'
p2446
I2159
sS'sintir'
p2447
I2411
sS'woodwind'
p2448
I2922
sS'baggy'
p2449
I1571
sS'new age music'
p2450
I3713
sS'ethno jazz'
p2451
I3394
sS'limnology'
p2452
I3303
sS'snap music'
p2453
I4062
sS'park'
p2454
I55
sS'goje'
p2455
I2541
sS'foreign affairs'
p2456
I1347
sS'dentist'
p2457
I698
sS'dirty blues'
p2458
I3684
sS'assyriology'
p2459
I2218
sS'knife throwing'
p2460
I1851
sS'actuarial science'
p2461
I3738
sS'translation'
p2462
I811
sS'progressive music'
p2463
I1985
sS'american culture'
p2464
I917
sS'wildlife ecology'
p2465
I1726
sS'jesus music'
p2466
I2624
sS'tropical medicine'
p2467
I2614
sS'rugby union'
p2468
I1578
sS'defendo'
p2469
I2977
sS'youth'
p2470
I461
sS'eurodance'
p2471
I2352
sS'hurdling'
p2472
I2212
sS'cultural analytics'
p2473
I3229
sS'application software'
p2474
I2769
sS'grec'
p2475
I2327
sS'harmonium'
p2476
I1532
sS'avant garde metal'
p2477
I3872
sS'contact combat'
p2478
I3932
sS'game theory'
p2479
I351
sS'stamp collecting'
p2480
I1447
sS'storytelling'
p2481
I135
sS'pachanga'
p2482
I2861
sS'mineralogy'
p2483
I3442
sS'humppa'
p2484
I1189
sS'djembe'
p2485
I740
sS'cakewalk'
p2486
I3503
sS'graffiti'
p2487
I352
sS'japanese literature'
p2488
I1271
sS'leslie guitar'
p2489
I3647
sS'general studies'
p2490
I2316
sS'salon music'
p2491
I3808
sS'round dance'
p2492
I1698
sS'cool jazz'
p2493
I3797
sS'complex analysis'
p2494
I3139
sS'britpop'
p2495
I1915
sS'speleology'
p2496
I872
sS'cycle polo'
p2497
I2674
sS'classical percussion'
p2498
I2783
sS'kobud\xc5\x8d'
p2499
I3985
sS'pedology'
p2500
I977
sS'business history'
p2501
I2020
sS'norwegian rock'
p2502
I3535
sS'steeplechase'
p2503
I3836
sS'lis'
p2504
I1615
sS'hurling'
p2505
I901
sS'banjo'
p2506
I1019
sS'dansband'
p2507
I2763
sS'hardtechno'
p2508
I2349
sS'intercrosse'
p2509
I3199
sS'complex system'
p2510
I2915
sS'vacuum cleaner'
p2511
I2129
sS'flute'
p2512
I487
sS'cello rock'
p2513
I1275
sS'shaolin kung fu'
p2514
I1842
sS'osteopathic medicine'
p2515
I3709
sS'sacred dance'
p2516
I630
sS'electropop'
p2517
I976
sS'greek dances'
p2518
I1409
sS'darts'
p2519
I719
sS'violincello'
p2520
I2157
sS'machete'
p2521
I2905
sS'wingtsun'
p2522
I936
sS'sikaran'
p2523
I2857
sS'tanbur'
p2524
I2513
sS'archery'
p2525
I944
sS'electricity generation'
p2526
I3766
sS'fine arts'
p2527
I937
sS'concept album'
p2528
I3481
sS'mellophone'
p2529
I1450
sS'kenjutsu'
p2530
I2317
sS'mechatronics'
p2531
I2092
sS'mouth organ'
p2532
I2778
sS'tenor drum'
p2533
I3150
sS'business management'
p2534
I1076
sS'setor'
p2535
I3600
sS'sf'
p2536
I528
sS'physics'
p2537
I291
sS'keyboard instruments'
p2538
I3118
sS'fidget'
p2539
I2505
sS'monkey stick'
p2540
I1702
sS'golf'
p2541
I124
sS'spoken word'
p2542
I650
sS'nagara'
p2543
I3875
sS'danza'
p2544
I814
sS'apala'
p2545
I4031
sS'tuned percussion'
p2546
I3492
sS'rock\xc2\xb4n\xc2\xb4roll'
p2547
I1894
sS'celebrities'
p2548
I130
sS'jam band'
p2549
I899
sS'new testament'
p2550
I1821
sS'grid computing'
p2551
I3301
sS'shofar'
p2552
I3279
sS'woodwind quintet'
p2553
I2944
sS'bodybuilding'
p2554
I988
sS'defender'
p2555
I1657
sS'austrian music'
p2556
I2664
sS'geomatics'
p2557
I1474
sS'veterinary medicine'
p2558
I1354
sS'chimes'
p2559
I1298
sS'famo'
p2560
I3732
sS'cat\xc3\xb3lica'
p2561
I3830
sS'timbales'
p2562
I2418
sS'justice'
p2563
I421
sS'striptease'
p2564
I2808
sS'cardiovascular systems'
p2565
I2967
sS'stride piano'
p2566
I3191
sS'bipa'
p2567
I2504
sS'bass recorder'
p2568
I1582
sS'deep house'
p2569
I2248
sS'development economics'
p2570
I613
sS"d'n'b"
p2571
I1562
sS'chaquan'
p2572
I1363
sS'chaabi'
p2573
I3711
sS'physical chemistry'
p2574
I1737
sS'triangle'
p2575
I1868
sS'riddim'
p2576
I2800
sS'industrial design'
p2577
I663
sS'inline speed skating'
p2578
I2145
sS'short story'
p2579
I605
sS'sailboarding'
p2580
I2865
sS'harp guitar'
p2581
I2345
sS'easy listening'
p2582
I1995
sS'whistle'
p2583
I750
sS'college football'
p2584
I726
sS'ukrainian dance'
p2585
I1263
sS'film soundtrack'
p2586
I1308
sS'ninjutsu'
p2587
I1955
sS'isolationism'
p2588
I1333
sS'mycology'
p2589
I710
sS'general surgery'
p2590
I3266
sS'suizen'
p2591
I2923
sS'digital filmmaking'
p2592
I2552
sS'overclocking'
p2593
I3665
sS'child health'
p2594
I3376
sS'continuum'
p2595
I1364
sS'banjolin'
p2596
I3113
sS'ubiquitous computing'
p2597
I3130
sS'steampunk'
p2598
I1222
sS'tack piano'
p2599
I3981
sS'padel tennis'
p2600
I2385
sS'electric blues'
p2601
I1397
sS'banking'
p2602
I587
sS'political philosophy'
p2603
I379
sS'upic'
p2604
I3633
sS'entrepreneurial studies'
p2605
I3899
sS'gospel'
p2606
I677
sS'volksmusik'
p2607
I2284
sS'traffic engineering'
p2608
I2221
sS'ang\xc3\xa9lique'
p2609
I3758
sS'information architecture'
p2610
I802
sS"60's"
p2611
I779
sS'sipa'
p2612
I784
sS'systems management'
p2613
I3519
sS'intelligence'
p2614
I301
sS'sexology'
p2615
I1174
sS'triple step'
p2616
I1806
sS'surrealist game'
p2617
I3330
sS'black ambient'
p2618
I3513
sS'culture'
p2619
I3
sS'stoner metal'
p2620
I3205
sS'political economics'
p2621
I343
sS'migration'
p2622
I114
sS'biological engineering'
p2623
I1824
sS'transportation'
p2624
I419
sS'applied arts'
p2625
I1190
sS'formal science'
p2626
I3125
sS'ichthyology'
p2627
I2312
sS'musical improvisation'
p2628
I649
sS'deep funk'
p2629
I3495
sS'cosplay'
p2630
I1803
sS'spirits'
p2631
I867
sS'asian languages'
p2632
I2360
sS'rock fran\xc3\xa7ais'
p2633
I2402
sS'didgeridoo'
p2634
I180
sS'movie'
p2635
I83
sS'soul jazz'
p2636
I1517
sS'pencak silat'
p2637
I1981
sS'music hall'
p2638
I3276
sS'cyclocross'
p2639
I1375
sS'automotive technology'
p2640
I3452
sS'gandingan'
p2641
I3309
sS'latin soul'
p2642
I1418
sS'applied physics'
p2643
I3048
sS'organization development'
p2644
I411
sS'field lacrosse'
p2645
I4041
sS'latin'
p2646
I174
sS'genbukan'
p2647
I3848
sS'hooter'
p2648
I607
sS'axe throwing'
p2649
I1285
sS'pop folk'
p2650
I1437
sS'discrete mathematics'
p2651
I2888
sS'baroque trumpet'
p2652
I4050
sS'guatemalan rock'
p2653
I3403
sS'molecular genetics'
p2654
I559
sS'physiological science'
p2655
I3237
sS'chemical physics'
p2656
I1642
sS'pagode'
p2657
I810
sS'film scoring'
p2658
I3393
sS'biological psychology'
p2659
I1623
sS'vale tudo'
p2660
I3560
sS'tres'
p2661
I1092
sS'deep soul'
p2662
I3416
sS'ba\xc4\x9flama'
p2663
I2656
sS'afox\xc3\xa9'
p2664
I3942
sS'docudrama'
p2665
I3278
sS'chinese history'
p2666
I2021
sS'hyphy'
p2667
I962
sS'industrial rock'
p2668
I2151
sS'vietnamese language'
p2669
I2819
sS'pradal serey'
p2670
I3635
sS'gospel music'
p2671
I1551
sS'creative studies'
p2672
I2626
sS'christian theology'
p2673
I1432
sS'fraternity'
p2674
I2023
sS'goverment'
p2675
I1694
sS'toxicology'
p2676
I2070
sS'baroque guitar'
p2677
I3497
sS'experimental'
p2678
I493
sS'electronic music'
p2679
I196
sS'environmental history'
p2680
I1269
sS'linked data'
p2681
I4015
sS'underground music'
p2682
I1431
sS'boogaloo'
p2683
I2077
sS'bell'
p2684
I1684
sS'composting'
p2685
I638
sS'distributed computing'
p2686
I3300
sS'gabber'
p2687
I1782
sS'celesta'
p2688
I1576
sS'wind instruments'
p2689
I2553
sS'badminton'
p2690
I304
sS'ranchera'
p2691
I2648
sS'social analytics'
p2692
I3367
sS'nazi germany'
p2693
I3399
sS'enology'
p2694
I1509
sS'irish music'
p2695
I1149
sS'horticulture'
p2696
I1274
sS'jazz rap'
p2697
I163
sS'weaving'
p2698
I1091
sS'publishing'
p2699
I455
sS'post-apocalypse'
p2700
I2811
sS'dub'
p2701
I685
sS'satire'
p2702
I639
sS'radio comedy'
p2703
I3479
sS'strategy'
p2704
I1080
sS'meditation music'
p2705
I1093
sS'songo music'
p2706
I805
sS'synth'
p2707
I218
sS'industrial music'
p2708
I1146
sS'pk'
p2709
I1829
sS'operations research'
p2710
I2947
sS'baguazhang'
p2711
I2896
sS'nuclear fusion'
p2712
I2378
sS'musical saw'
p2713
I1126
sS'classick rock'
p2714
I2760
sS'musicology'
p2715
I1282
sS'orchestral'
p2716
I1424
sS'american handball'
p2717
I3254
sS'gar'
p2718
I1555
sS'group processes'
p2719
I2743
sS'orchestral jazz'
p2720
I3380
sS'folklore'
p2721
I843
sS'meat science'
p2722
I2344
sS't\xc3\xbcrkisch'
p2723
I2701
sS'instructor'
p2724
I882
sS'funk'
p2725
I161
sS'shooting sports'
p2726
I2698
sS'musical comedy'
p2727
I1289
sS'physical geography'
p2728
I1978
sS'merengue'
p2729
I445
sS'holocaust'
p2730
I1781
sS'euro-trance'
p2731
I2742
sS'\xc5\x93nology'
p2732
I3982
sS'sexuality'
p2733
I166
sS'maxixe'
p2734
I3859
sS"punk 'n' roll"
p2735
I3093
sS'behavior'
p2736
I426
sS'setar'
p2737
I1574
sS'animated'
p2738
I689
sS'biking'
p2739
I67
sS'aeronautical engineering'
p2740
I2087
sS'loop'
p2741
I1654
sS'bounce music'
p2742
I2222
sS'political sociology'
p2743
I776
sS'tchoukball'
p2744
I2160
sS'participation dance'
p2745
I3774
sS'real aikido'
p2746
I3444
sS'zampogna'
p2747
I3969
sS'bluegrass'
p2748
I29
sS'xiao'
p2749
I2088
sS'insect collecting'
p2750
I1448
sS'sitar'
p2751
I1763
sS'sirum'
p2752
I1260
sS'latinistic'
p2753
I1154
sS'flying trapeze'
p2754
I940
sS'music performance'
p2755
I647
sS'sufi rock'
p2756
I3365
sS'doom metal'
p2757
I2409
sS'longa'
p2758
I3033
sS'kalarippayattu'
p2759
I2636
sS'golden state'
p2760
I2838
sS'electro house'
p2761
I1519
sS'goblet drum'
p2762
I1957
sS'game boy music'
p2763
I1203
sS'textile'
p2764
I655
sS'theremin'
p2765
I1469
sS'block flute'
p2766
I2878
sS'viola'
p2767
I510
sS'chinese literature'
p2768
I1897
sS'pyschedelia'
p2769
I3249
sS'composition'
p2770
I1125
sS'lovers rock'
p2771
I743
sS'pop culture'
p2772
I1040
sS'literature'
p2773
I65
sS'knitting'
p2774
I273
sS'kizomba'
p2775
I992
sS'postmodern literature'
p2776
I3484
sS'ultimate'
p2777
I894
sS'pallone'
p2778
I3642
sS'medieval music'
p2779
I3138
sS'slide whistle'
p2780
I3168
sS'stage design'
p2781
I2152
sS'fastcore'
p2782
I3915
sS'rockabilly'
p2783
I1310
sS'cardmaking'
p2784
I1444
sS'roma music'
p2785
I1779
sS'generative music'
p2786
I993
sS'mass communications'
p2787
I2133
sS'lacrosse'
p2788
I1303
sS'information systems'
p2789
I1402
sS'pattern recognition'
p2790
I3882
sS'rhythmic gymnastics'
p2791
I1802
sS'international development'
p2792
I423
sS'punk cabaret'
p2793
I3824
sS'dancing'
p2794
I39
sS'ski cross'
p2795
I2013
sS'grind'
p2796
I1225
sS'user experience'
p2797
I1925
sS'information visualization'
p2798
I2003
sS'greek literature'
p2799
I2593
sS'geobiology'
p2800
I2821
sS'small business'
p2801
I1812
sS'visual art'
p2802
I513
sS'soukous'
p2803
I1051
sS'chemistry'
p2804
I560
sS'collegiate wrestling'
p2805
I3065
sS'liberal studies'
p2806
I3050
sS'cajon'
p2807
I1805
sS'byzantine music'
p2808
I3728
sS'tech house'
p2809
I2605
sS'learning sciences'
p2810
I2279
sS'bratsche'
p2811
I2491
sS'cornet'
p2812
I2542
sS'blues ballad'
p2813
I3892
sS'tranverse flute'
p2814
I3036
sS'caj\xc3\xb3n'
p2815
I2298
sS'mountaineering'
p2816
I207
sS'javelin throw'
p2817
I2587
sS'hard bop'
p2818
I3392
sS'legal history'
p2819
I3178
sS'kite building'
p2820
I1799
sS'marvel comics'
p2821
I1909
sS'avionics'
p2822
I3754
sS'alternative'
p2823
I31
sS'cabaret'
p2824
I1069
sS'ping pong'
p2825
I392
sS'molecular physics'
p2826
I3321
sS'machine translation'
p2827
I3954
sS'alto flute'
p2828
I3819
sS'hiking'
p2829
I4
sS'complex systems'
p2830
I845
sS'dhak'
p2831
I4049
sS'public affairs'
p2832
I1005
sS'sea shanty'
p2833
I2226
sS'ancient greek'
p2834
I1108
sS'public radio'
p2835
I94
sS'chinlone'
p2836
I2389
sS'contra dance'
p2837
I902
sS'tenor violin'
p2838
I2001
sS'shotokan'
p2839
I1771
sS'butoh'
p2840
I1500
sS'nuclear physics'
p2841
I1801
sS'australia'
p2842
I429
sS'signal processing'
p2843
I1641
sS'glass harmonica'
p2844
I3253
sS'yoseikan budo'
p2845
I2457
sS'psychedelic pop'
p2846
I3869
sS'northwest wind'
p2847
I2359
sS'phenomenology'
p2848
I1828
sS'information graphics'
p2849
I3596
sS'product design'
p2850
I974
sS'spoof'
p2851
I3201
sS'santal music'
p2852
I2498
sS'tel aviv'
p2853
I1668
sS'emergence'
p2854
I233
sS'melodic music'
p2855
I2441
sS'symphonic metal'
p2856
I2479
sS'wireless network'
p2857
I3662
sS'net art'
p2858
I2112
sS'development studies'
p2859
I2018
sS'sled hockey'
p2860
I2829
sS'spelunking'
p2861
I1058
sS'freestyle rap'
p2862
I883
sS'vibraphone'
p2863
I1663
sS'chorus'
p2864
I1023
sS'communications'
p2865
I505
sS'biology,chemistry'
p2866
I1117
sS'montuno'
p2867
I3057
sS'atmospheric sciences'
p2868
I3558
sS'motion picture'
p2869
I1989
sS'kaval'
p2870
I1470
sS'ecology'
p2871
I438
sS'partying'
p2872
I75
sS'western music'
p2873
I1816
sS'lathi'
p2874
I1973
sS'surface science'
p2875
I2225
sS'rheumatology'
p2876
I3466
sS'mathematical economics'
p2877
I2585
sS'histology'
p2878
I3631
sS'canso'
p2879
I3094
sS'sprint'
p2880
I1206
sS'biology/immunology'
p2881
I3846
sS'show tune'
p2882
I2079
sS'crossover thrash'
p2883
I3976
sS'jitterbug'
p2884
I2847
sS'hip hop music'
p2885
I914
sS'garage'
p2886
I511
sS'country blues'
p2887
I3092
sS'ambient music'
p2888
I534
sS'physiotherapy'
p2889
I884
sS'kakaki'
p2890
I3200
sS'dombra'
p2891
I3016
sS'religion'
p2892
I315
sS'outlaw country'
p2893
I2098
sS'oenology'
p2894
I1580
sS'contrabass'
p2895
I1568
sS'earth science'
p2896
I1700
sS'kanjira'
p2897
I3320
sS'olfaction'
p2898
I3109
sS'joropo'
p2899
I3605
sS'current events'
p2900
I435
sS'neurosciences'
p2901
I1895
sS'earth sciences'
p2902
I1940
sS'tabor'
p2903
I786
sS'the jacksons'
p2904
I3673
sS'fresco'
p2905
I2057
sS'morsing'
p2906
I922
sS'tedesco'
p2907
I3696
sS'symphonic rock'
p2908
I3068
sS'mongolian wrestling'
p2909
I3028
sS'guban'
p2910
I3841
sS'informatics'
p2911
I1457
sS'shamisen'
p2912
I179
sS'downtempo'
p2913
I1159
sS'barbat'
p2914
I2190
sS'unicycling'
p2915
I292
sS'equestrian vaulting'
p2916
I2791
sS'barbershop music'
p2917
I3968
sS'violone'
p2918
I1242
sS'urban running'
p2919
I3930
sS'ids'
p2920
I227
sS'graduation'
p2921
I1114
sS'boules'
p2922
I1129
sS'korfball'
p2923
I1196
sS'idm'
p2924
I1917
sS'dramaturgy'
p2925
I2486
sS'rackett'
p2926
I822
sS'khol'
p2927
I3521
sS'mixed media'
p2928
I1295
sS'italian'
p2929
I401
sS'geosciences'
p2930
I2462
sS'block'
p2931
I436
sS'valencia cf'
p2932
I2210
sS'turntablism'
p2933
I1374
sS'ecophysiology'
p2934
I3488
sS'darbuka'
p2935
I2299
sS'chicken scratch'
p2936
I3189
sS'structural linguistics'
p2937
I3263
sS'water skiing'
p2938
I859
sS'beatboxing'
p2939
I1175
sS'cumbia villera'
p2940
I3793
sS'guitar banjo'
p2941
I2072
sS'thrash metal'
p2942
I1764
sS'smelly'
p2943
I1796
sS'iranian languages'
p2944
I2347
sS'2 tone'
p2945
I3041
sS'theoretical ecology'
p2946
I3607
sS'scuba diving'
p2947
I95
sS'social dance'
p2948
I1194
sS'interactivity'
p2949
I477
sS'campanology'
p2950
I3598
sS'sonny'
p2951
I2845
sS'statistics'
p2952
I981
sS'horror novel'
p2953
I2989
sS'russian literature'
p2954
I1485
sS'spam'
p2955
I880
sS'ancient music'
p2956
I2551
sS'general relativity'
p2957
I2484
sS'chr'
p2958
I3318
sS'txalaparta'
p2959
I2976
sS'green design'
p2960
I1534
sS'pharmaceuticals'
p2961
I2788
sS"pumpin' house"
p2962
I4039
sS'islam'
p2963
I1014
sS'patch collecting'
p2964
I2055
sS'hawaiian'
p2965
I737
sS'coldwave'
p2966
I3547
sS'jewish'
p2967
I452
sS'pop rap'
p2968
I2713
sS'danzon'
p2969
I2423
sS'medieval literature'
p2970
I2328
sS'arkan'
p2971
I3064
sS'cloth'
p2972
I1501
sS'expressionist dance'
p2973
I2243
sS'russian'
p2974
I502
sS'line'
p2975
I43
sS'kundi'
p2976
I3311
sS'search engines'
p2977
I3682
sS'life sciences'
p2978
I897
sS'water volleyball'
p2979
I3055
sS'ux'
p2980
I2371
sS'piri'
p2981
I2202
sS'horror punk'
p2982
I3733
sS'agroecology'
p2983
I1494
sS'massage therapy'
p2984
I762
sS'skacore'
p2985
I2925
sS'miniaturization'
p2986
I1932
sS'management engineering'
p2987
I2835
sS'foresight'
p2988
I3042
sS'taiwanese pop'
p2989
I2950
sS'metal detector'
p2990
I1600
sS'mozambique'
p2991
I2364
sS'planetary science'
p2992
I2527
sS'czech studies'
p2993
I3038
sS'electronic engineering'
p2994
I1453
sS'dependency theory'
p2995
I2314
sS'animal physiology'
p2996
I2953
sS'kiiking'
p2997
I3058
sS'water sport'
p2998
I380
sS'human resources'
p2999
I1858
sS'gypsy punk'
p3000
I969
sS'engineering'
p3001
I451
sS'stradivarius'
p3002
I2368
sS'jianzi'
p3003
I3243
sS'japanese rock'
p3004
I2767
sS'equestrianism'
p3005
I1526
sS'ocean drum'
p3006
I2046
sS'russian language'
p3007
I996
sS'anthology'
p3008
I2717
sS'humanities'
p3009
I549
sS'blues rock'
p3010
I579
sS'country music'
p3011
I688
sS'nai'
p3012
I3182
sS'econometrics'
p3013
I2377
sS'bridge engineering'
p3014
I3736
sS'synthetic biology'
p3015
I1221
sS'environmental studies'
p3016
I1257
sS'electrical'
p3017
I903
sS'kickboxing'
p3018
I585
sS'zither'
p3019
I1874
sS'gatka'
p3020
I2851
sS'five animals'
p3021
I1193
sS'bongos'
p3022
I1478
sS'graphic artist'
p3023
I155
sS'keyboard synthesizer'
p3024
I3896
sS'celtic rock'
p3025
I3357
sS'kora'
p3026
I2440
sS'acid techno'
p3027
I2273
sS'soca music'
p3028
I1036
sS'wakeboarding'
p3029
I148
sS'biomedical research'
p3030
I2305
sS'accordian'
p3031
I1438
sS'genetics'
p3032
I1299
sS'tin whistle'
p3033
I1336
sS'broomball'
p3034
I2827
sS'structure'
p3035
I467
sS'cryobiology'
p3036
I2806
sS'pottery'
p3037
I618
sS'lyrical dance'
p3038
I1884
sS'postal history'
p3039
I2442
sS'floorball'
p3040
I1039
sS'architectural pattern'
p3041
I2052
sS'english concertina'
p3042
I3307
sS'pankration'
p3043
I3343
sS'kenpo karate'
p3044
I2136
sS'art education'
p3045
I725
sS'choral music'
p3046
I2372
sS'vocoder'
p3047
I971
sS'social work'
p3048
I368
sS'psychiatry'
p3049
I892
sS'geodesy'
p3050
I2904
sS'zydeco'
p3051
I972
sS'religious studies'
p3052
I1388
sS'balafon'
p3053
I2185
sS't\xc3\xbcrk\xc3\xa7e'
p3054
I2889
sS'folk rock'
p3055
I695
sS'tai chi'
p3056
I342
sS'pre medicine'
p3057
I2478
sS'marxist philosophy'
p3058
I2601
sS'bellydance'
p3059
I745
sS'latin metal'
p3060
I3807
sS'edm'
p3061
I1920
sS'economics, mathematics'
p3062
I850
sS'raga rock'
p3063
I3966
sS'musical keyboard'
p3064
I824
sS'international relations'
p3065
I598
sS'electro pop'
p3066
I1105
sS'behavioral economics'
p3067
I1358
sS'bock'
p3068
I1604
sS'japanology'
p3069
I1094
sS'classic rock'
p3070
I1143
sS'vocal improvisation'
p3071
I3329
sS'language geography'
p3072
I907
sS'turkish'
p3073
I770
sS'dice game'
p3074
I2323
sS'vovinam'
p3075
I3337
sS'communication sciences'
p3076
I1822
sS'makossa'
p3077
I2446
sS'french history'
p3078
I1831
sS'languages'
p3079
I62
sS'transverse flute'
p3080
I2501
sS'ivrit'
p3081
I2785
sS'tenor tuba'
p3082
I3148
sS'rainstick'
p3083
I3144
sS'set design'
p3084
I1647
sS'premed'
p3085
I448
sS'dancehall'
p3086
I788
sS'classic trance'
p3087
I3104
sS'visual design'
p3088
I2045
sS'new flamenco'
p3089
I3187
sS'hipstep'
p3090
I3641
sS'ukulele'
p3091
I679
sS'hihat'
p3092
I2158
sS'piano rock'
p3093
I2700
sS'automotive'
p3094
I2125
sS'snowshoe'
p3095
I175
sS'embossing'
p3096
I1307
sS'aggrotech'
p3097
I2171
sS'amish music'
p3098
I910
sS'operations management'
p3099
I3540
sS'physiological biology'
p3100
I1762
sS'drinking'
p3101
I311
sS'strategic planning'
p3102
I1756
sS'recorder'
p3103
I1896
sS'recreation'
p3104
I264
sS'magic'
p3105
I376
sS'fantasy sport'
p3106
I2871
sS'acoustic guitar'
p3107
I875
sS'gender'
p3108
I764
sS'backyard astronomy'
p3109
I3340
sS'triple swing'
p3110
I3669
sS'black metal'
p3111
I1893
sS'live electronics'
p3112
I2149
sS'thumb piano'
p3113
I3026
sS'singing game'
p3114
I2101
sS'exercise physiology'
p3115
I2917
sS'sport kite'
p3116
I1863
sS'hulusi'
p3117
I1465
sS'film directing'
p3118
I1538
sS'nazism'
p3119
I3382
sS'cfd'
p3120
I3964
sS'baritone saxophone'
p3121
I3445
sS'wrestling'
p3122
I200
sS'sakara music'
p3123
I2490
sS'mural'
p3124
I1085
sS'generative design'
p3125
I1716
sS'wiffleball'
p3126
I2017
sS'hip hop soul'
p3127
I2094
sS'video'
p3128
I12
sS'traveling'
p3129
I48
sS'war crime'
p3130
I4011
sS'lirone'
p3131
I3267
sS'carillon'
p3132
I3476
sS'folk'
p3133
I242
sS'voluntary organizations'
p3134
I1667
sS'sport fishing'
p3135
I1596
sS'garage rock'
p3136
I1597
sS'maritime history'
p3137
I3568
sS'educational theory'
p3138
I1530
sS'portuguese guitar'
p3139
I3746
sS'medieval reenactment'
p3140
I2830
sS'multimedia'
p3141
I385
sS'paddle'
p3142
I1064
sS'commercial law'
p3143
I3666
sS'costing'
p3144
I2882
sS'hip hop dance'
p3145
I2235
sS'genwakai'
p3146
I3674
sS'bird'
p3147
I1510
sS'celtic punk'
p3148
I3308
sS'dub music'
p3149
I1871
sS'american politics'
p3150
I926
sS'pediatrics'
p3151
I2735
sS'dance education'
p3152
I2911
sS'chicano studies'
p3153
I2448
sS'jump blues'
p3154
I3554
sS'eastern swing'
p3155
I2994
sS'poverty'
p3156
I1078
sS'salsa music'
p3157
I1631
sS'bioengineering'
p3158
I2836
sS'party game'
p3159
I1226
sS'coasteering'
p3160
I946
sS'tricordia'
p3161
I3240
sS'physiology'
p3162
I7
sS'darwinism'
p3163
I1099
sS'photochemistry'
p3164
I3594
sS'epigenetics'
p3165
I3167
sS'motogp'
p3166
I2434
sS'respiration'
p3167
I309
sS'ethnic electronica'
p3168
I2654
sS'chant'
p3169
I653
sS'eurythmy'
p3170
I1820
sS'glam metal'
p3171
I3059
sS'main vocals'
p3172
I3528
sS'organic farming'
p3173
I506
sS'storm chasing'
p3174
I2539
sS'new media'
p3175
I669
sS'plant biologist'
p3176
I2320
sS'virtual band'
p3177
I3241
sS'video game'
p3178
I896
sS'political theatre'
p3179
I691
sS'ice climbing'
p3180
I370
sS'kabaddi'
p3181
I3433
sS'other music'
p3182
I879
sS'telecom'
p3183
I1825
sS'speech recognition'
p3184
I3749
sS'hawaiian music'
p3185
I2736
sS'jewish music'
p3186
I2390
sS'visual communication'
p3187
I1713
sS'theme music'
p3188
I1338
sS'english horn'
p3189
I3391
sS'classic punk'
p3190
I2134
sS'nursing'
p3191
I861
sS'swing music'
p3192
I1793
sS'cat piano'
p3193
I4024
sS'lottery'
p3194
I1815
sS'tar'
p3195
I1456
sS'neurobiology'
p3196
I2061
sS'doodle'
p3197
I656
sS'consumer economics'
p3198
I3701
sS'devotional'
p3199
I1284
sS'squash tennis'
p3200
I1584
sS'uk garage'
p3201
I2906
sS'camera'
p3202
I363
sS'country soul'
p3203
I3756
sS'memphis blues'
p3204
I3826
sS'zil'
p3205
I2142
sS'braindance'
p3206
I1492
sS'finnish language'
p3207
I1849
sS'bureaucracy'
p3208
I522
sS'community networking'
p3209
I2747
sS'indiepop'
p3210
I1852
sS'electroacoustic music'
p3211
I1765
sS'hurban'
p3212
I3821
sS'econ'
p3213
I2025
sS'enshin karate'
p3214
I3431
sS'bandura'
p3215
I3223
sS'sepak takraw'
p3216
I2777
sS'computing science'
p3217
I927
sS'emigration'
p3218
I1711
sS'maloya'
p3219
I2499
sS'dentistry'
p3220
I921
sS'contemporary blues'
p3221
I3435
sS'sword dance'
p3222
I3090
sS'project management'
p3223
I1173
sS'women'
p3224
I136
sS'element collecting'
p3225
I4017
sS'grindcore'
p3226
I2169
sS'animals'
p3227
I92
sS'pop music'
p3228
I173
sS'hindu music'
p3229
I3262
sS'sumerian music'
p3230
I1300
sS'technology assessment'
p3231
I1970
sS'applied mathematics'
p3232
I2651
sS'american civilization'
p3233
I2522
sS'vinification'
p3234
I507
sS'theatre design'
p3235
I1996
sS'psychedelic soul'
p3236
I3410
sS'latin literature'
p3237
I1720
sS'publications'
p3238
I1521
sS'computer rock'
p3239
I2661
sS'dark ambient'
p3240
I2301
sS'indie pop'
p3241
I1436
sS'pedagogy'
p3242
I793
sS'group sounds'
p3243
I2852
sS'matkot'
p3244
I3852
sS'ballo'
p3245
I2770
sS'lucha libre'
p3246
I886
sS'agribusiness'
p3247
I3197
sS'korg synthesizer'
p3248
I2450
sS'reeds'
p3249
I1210
sS'crustacean'
p3250
I3177
sS'critical psychology'
p3251
I2748
sS'germanism'
p3252
I759
sS'computational creativity'
p3253
I919
sS'batucada'
p3254
I808
sS'french literature'
p3255
I1650
sS'extreme unicycling'
p3256
I3360
sS'volcanology'
p3257
I2011
sS'cognitive science'
p3258
I683
sS'engineering mathematics'
p3259
I3748
sS'electronic drum'
p3260
I2481
sS'bones'
p3261
I460
sS'flamenco'
p3262
I706
sS'trumpet'
p3263
I152
sS'neural network'
p3264
I2128
sS'autobiography'
p3265
I1007
sS'experimental medicine'
p3266
I2582
sS'embodiment'
p3267
I2269
sS'varied'
p3268
I331
sS'latin american history'
p3269
I3840
sS'sanshin'
p3270
I2921
sS'paleobiology'
p3271
I3005
sS'power soccer'
p3272
I2903
sS'boxing'
p3273
I159
sS'poetry'
p3274
I37
sS'kheyal'
p3275
I3908
sS'film actor'
p3276
I1591
sS'social welare'
p3277
I1506
sS'animal'
p3278
I126
sS'comedy'
p3279
I204
sS'business communications'
p3280
I2844
sS'organum'
p3281
I2560
sS'long jump'
p3282
I2234
sS'physical cosmology'
p3283
I3131
sS'duduk'
p3284
I2803
sS'kenpo'
p3285
I2519
sS'inspirational music'
p3286
I1360
sS'philosophy'
p3287
I6
sS'russian pop'
p3288
I2761
sS'modern literature'
p3289
I1746
sS'paintball'
p3290
I388
sS'soleares'
p3291
I2357
sS'natural medicine'
p3292
I991
sS'computational mathematics'
p3293
I724
sS'psychedelia'
p3294
I2496
sS'psychedelic'
p3295
I537
sS'npr'
p3296
I842
sS'indie music'
p3297
I948
sS'human genetics'
p3298
I3081
sS'human swimming'
p3299
I1997
sS'ndt'
p3300
I2804
sS'wwii'
p3301
I1415
sS'descant recorder'
p3302
I3704
sS'dobro'
p3303
I3103
sS'sports radio'
p3304
I3246
sS'applied science'
p3305
I2559
sS'grunge music'
p3306
I1429
sS'red dirt'
p3307
I3031
sS'radiophysics'
p3308
I3336
sS'swimming'
p3309
I104
sS'material science'
p3310
I1373
sS'aerospace engineering'
p3311
I2458
sS'movie art'
p3312
I327
sS'caribbean music'
p3313
I2078
sS'social science'
p3314
I1471
sS'tap dance'
p3315
I1233
sS'minimal techno'
p3316
I1341
sS'electric guitar'
p3317
I262
sS'canadian football'
p3318
I2744
sS'sanjo'
p3319
I3224
sS'ragga jungle'
p3320
I2361
sS'beach music'
p3321
I666
sS'portuguese language'
p3322
I1673
sS'obstetrics'
p3323
I2546
sS'calliope'
p3324
I3269
sS'naban'
p3325
I2239
sS'astrobiology'
p3326
I2920
sS'maya music'
p3327
I2121
sS'instrumental rock'
p3328
I2311
sS'indology'
p3329
I3764
sS'linguistics'
p3330
I287
sS'editorial journalism'
p3331
I2509
sS'parallel computing'
p3332
I3955
sS'glee'
p3333
I1326
sS'social class'
p3334
I2304
sS'jodo'
p3335
I2400
sS'electropunk'
p3336
I2063
sS'fortepiano'
p3337
I3895
sS'darkstep'
p3338
I3978
sS'hypersensitivity'
p3339
I3792
sS'clinical psychology'
p3340
I2425
sS'hobby'
p3341
I128
sS'christmas music'
p3342
I1735
sS'human\xe2\x80\x93computer interaction'
p3343
I3259
sS'electro acoustic'
p3344
I2227
sS'cultural history'
p3345
I371
sS'biodiversity conservation'
p3346
I3374
sS'daf'
p3347
I2404
sS'danger music'
p3348
I3037
sS'tech trance'
p3349
I2725
sS'material'
p3350
I709
sS'geological sciences'
p3351
I2198
sS'docu'
p3352
I1082
sS'guan'
p3353
I4009
sS'art pop'
p3354
I1786
sS'immigration law'
p3355
I2268
sS'kiss'
p3356
I826
sS'taijutsu'
p3357
I1719
sS'bass trombone'
p3358
I2705
sS'computer studies'
p3359
I2281
sS'strategy game'
p3360
I852
sS'professional wrestling'
p3361
I1381
sS'beach handball'
p3362
I2787
sS'wheelchair rugby'
p3363
I2802
sS'international health'
p3364
I1974
sS'violoncello'
p3365
I1481
sS'fiddle'
p3366
I1020
sS'futuribles'
p3367
I3653
sS'paddling'
p3368
I101
sS'violoncelle'
p3369
I997
sS'tropical fish'
p3370
I1886
sS'emo'
p3371
I425
sS'domra'
p3372
I3699
sS'buddhist studies'
p3373
I2430
sS'ultimate frisbee'
p3374
I313
sS'sanxian'
p3375
I4035
sS'bandurria'
p3376
I2467
sS'union pipes'
p3377
I3883
sS'doina'
p3378
I1417
sS'oud'
p3379
I1877
sS'society'
p3380
I215
sS'books'
p3381
I138
sS'swiss rock'
p3382
I3977
sS'filmmaking'
p3383
I591
sS'intelligent system'
p3384
I3698
sS'musique concrete'
p3385
I3072
sS'programmer'
p3386
I1361
sS'track cycling'
p3387
I2155
sS'agriculture'
p3388
I603
sS'international law'
p3389
I171
sS'yacht rock'
p3390
I3900
sS'obscuro'
p3391
I3925
sS'bajiquan'
p3392
I2254
sS'extreme poverty'
p3393
I2251
sS'computational biology'
p3394
I1921
sS'entertainment'
p3395
I283
sS'electronica'
p3396
I924
sS'jazz violin'
p3397
I2277
sS'mine exploration'
p3398
I1086
sS'social anthropology'
p3399
I1071
sS'computer engineering'
p3400
I2116
sS'psychrometry'
p3401
I2470
sS'model aircraft'
p3402
I2444
sS'psychobilly'
p3403
I2289
sS'hammond b3'
p3404
I571
sS'social networks'
p3405
I796
sS'public law'
p3406
I1866
sS'electronics'
p3407
I68
sS'lando'
p3408
I3760
sS'calif'
p3409
I1818
sS'windsurfing'
p3410
I125
sS'math'
p3411
I337
sS'hip hop'
p3412
I28
sS'urban jazz'
p3413
I3581
sS'keyboard bass'
p3414
I2139
sS'drum solo'
p3415
I2884
sS'jal tarang'
p3416
I3731
sS'english literature'
p3417
I860
sS'speed metal'
p3418
I3098
sS'wing tsun'
p3419
I1181
sS'cowbell'
p3420
I1626
sS'african reggae'
p3421
I2362
sS'm\xc3\xbasica negra'
p3422
I3313
sS'hapkido'
p3423
I1931
sS'yodeling'
p3424
I2040
sS'orchestrion'
p3425
I4019
sS'music composition'
p3426
I783
sS'guitar/synthesizer'
p3427
I3970
sS'spanish rock'
p3428
I2433
sS'morris dance'
p3429
I1520
sS'weimar republic'
p3430
I3236
sS'environmental geology'
p3431
I3052
sS'crm'
p3432
I3810
sS'austin'
p3433
I943
sS'applied statistics'
p3434
I3992
sS'cumbus'
p3435
I3129
sS'natural science'
p3436
I1480
sS'ski mountaineer'
p3437
I3991
sS'danish language'
p3438
I3001
sS'welfare state'
p3439
I3025
sS'maracas'
p3440
I2288
sS'web services'
p3441
I2907
sS'emotivism'
p3442
I486
sS'taijiquan'
p3443
I1959
sS'art'
p3444
I59
sS'polyphony'
p3445
I1846
sS'digital art'
p3446
I545
sS'marketing management'
p3447
I1666
sS'deathcore'
p3448
I3085
sS'organized crime'
p3449
I2068
sS'book collecting'
p3450
I1398
sS'management'
p3451
I408
sS'publication'
p3452
I2164
sS'historical musicology'
p3453
I3409
sS'classics'
p3454
I260
sS'literary criticism'
p3455
I1919
sS'street game'
p3456
I3707
sS'percussion'
p3457
I165
sS'roots rock'
p3458
I2592
sS'austus'
p3459
I318
sS'kite festival'
p3460
I3972
sS'palaeontology'
p3461
I1412
sS'naturopathy'
p3462
I1172
sS'jingle'
p3463
I2949
sS'string band'
p3464
I2180
sS'yiddish language'
p3465
I3789
sS'human development'
p3466
I1624
sS'reggaeton'
p3467
I818
sS'udu'
p3468
I2660
sS'xylophone'
p3469
I1567
sS'quantitative methods'
p3470
I3181
sS'printmaking'
p3471
I890
sS'platformer'
p3472
I1792
sS'nu jazz'
p3473
I2557
sS'freestyle wrestling'
p3474
I2696
sS'yabusame'
p3475
I3527
sS'veritism'
p3476
I1259
sS'scrapbooking'
p3477
I1247
sS'bicycle racing'
p3478
I2818
sS'model rocket'
p3479
I3034
sS'suomi'
p3480
I1290
sS'linear algebra'
p3481
I3800
sS'food industry'
p3482
I3188
sS'death metal'
p3483
I749
sS'mathematical visualization'
p3484
I3818
sS'ski mountaineering'
p3485
I954
sS'other percussion'
p3486
I2678
sS'science fiction'
p3487
I272
sS'mediterranean studies'
p3488
I2413
sS'japanese pop'
p3489
I2233
sS'suling'
p3490
I923
sS'lion dance'
p3491
I2435
sS'doctorate'
p3492
I1171
sS'sculpture'
p3493
I248
sS'emarketing'
p3494
I3742
sS'maroon music'
p3495
I3620
sS'collecting'
p3496
I107
sS'eai'
p3497
I2961
sS'classic metal'
p3498
I2007
sS'balalaika'
p3499
I1588
sS'wildlife conservation'
p3500
I1452
sS'indietronica'
p3501
I1733
sS'yorubeat'
p3502
I2951
sS'analytical chemistry'
p3503
I3446
sS'college baseball'
p3504
I3472
sS'physiological chemistry'
p3505
I2488
sS'supercomputing'
p3506
I2867
sS'origami'
p3507
I150
sS'agronomy'
p3508
I1486
sS'angampora'
p3509
I3244
sS'metaphysics'
p3510
I118
sS'occupational health'
p3511
I3290
sS'biguine'
p3512
I3730
sS'instrumentation'
p3513
I41
sS'microphone'
p3514
I1311
sS'british opera'
p3515
I3948
sS'russians'
p3516
I912
sS'downtown music'
p3517
I2393
sS'bassoon'
p3518
I1372
sS'allergies'
p3519
I701
sS'billiards'
p3520
I687
sS'ngoni'
p3521
I2439
sS'cuatro'
p3522
I2264
sS'water resources'
p3523
I2573
sS'art rock'
p3524
I492
sS'fighter kite'
p3525
I3997
sS'korean'
p3526
I953
sS'trivia'
p3527
I113
sS'wheelchair basketball'
p3528
I1628
sS'electronic hip hop'
p3529
I3298
sS'urban contemporary'
p3530
I2990
sS'worldwide'
p3531
I137
sS'gothic novel'
p3532
I2874
sS'optometry'
p3533
I3952
sS'eurobeat'
p3534
I1629
sS'sewing'
p3535
I317
sS'progressive metal'
p3536
I1879
sS'third reich'
p3537
I2189
sS'mining engineering'
p3538
I2683
sS'parenting'
p3539
I332
sS'middle east'
p3540
I696
sS'nederlandse taal'
p3541
I3515
sS'communicable diseases'
p3542
I2793
sS'radio astronomy'
p3543
I1497
sS'xare'
p3544
I3165
sS'engineering sciences'
p3545
I3206
sS'medical anthropology'
p3546
I2472
sS'lithuanian music'
p3547
I3790
sS'nueva trova'
p3548
I2864
sS'argentine rock'
p3549
I674
sS'military tactics'
p3550
I3063
sS'software engineering'
p3551
I2283
sS'buk'
p3552
I2828
sS'downbeat'
p3553
I3066
sS'developmental linguistics'
p3554
I3564
sS'outdoor recreation'
p3555
I1228
sS'latin american music'
p3556
I1062
sS'moral theory'
p3557
I1227
sS'cross-country skiing'
p3558
I1516
sS'pipa'
p3559
I2459
sS'se'
p3560
I519
sS'databases'
p3561
I889
sS'investment management'
p3562
I2051
sS'short stories'
p3563
I1112
sS'optoelectronics'
p3564
I4030
sS'swingball'
p3565
I3632
sS'latin jazz'
p3566
I1028
sS'sports medicine'
p3567
I1570
sS'kite'
p3568
I854
sS'beat music'
p3569
I3079
sS'medical physics'
p3570
I2881
sS'russian people'
p3571
I2183
sS'psychophysiology'
p3572
I3603
sS'electric folk'
p3573
I3765
sS'spanish language'
p3574
I984
sS'bmx racing'
p3575
I1325
sS'wind chime'
p3576
I2574
sS'ancient greece'
p3577
I1876
sS'space science'
p3578
I1491
sS'astrophysical sciences'
p3579
I2516
sS'top 40'
p3580
I2367
sS'area studies'
p3581
I2999
sS'camogie'
p3582
I3078
sS'guqin'
p3583
I1875
sS'classical piano'
p3584
I1252
sS'deathrock'
p3585
I3526
sS'footbag'
p3586
I334
sS'plant physiology'
p3587
I2749
sS'christmas day'
p3588
I1390
sS'web engineering'
p3589
I3897
sS'engineering drawing'
p3590
I3325
sS'gynecology'
p3591
I2451
sS'general management'
p3592
I2565
sS'beer pong'
p3593
I296
sS'riding'
p3594
I91
sS'international studies'
p3595
I319
sS'local'
p3596
I186
sS'shooto'
p3597
I3727
sS'pharmacology'
p3598
I1200
sS'photography'
p3599
I63
sS'malunga'
p3600
I3953
sS'neuroimaging'
p3601
I3569
sS'silat'
p3602
I256
sS'taido'
p3603
I3120
sS'ophthalmology'
p3604
I3364
sS'los che'
p3605
I3786
sS'music history'
p3606
I424
sS'praxeology'
p3607
I2480
sS'operating system'
p3608
I2175
sS'structural geology'
p3609
I3763
sS'litterature'
p3610
I344
sS'evolution'
p3611
I140
sS'english billiards'
p3612
I2547
sS'places'
p3613
I66
sS'organ'
p3614
I773
sS'dance music'
p3615
I503
sS'synchronized swimming'
p3616
I1575
sS'celtic music'
p3617
I838
sS'organizational psychology'
p3618
I1903
sS'current affairs'
p3619
I300
sS'verdiales'
p3620
I675
sS'shot put'
p3621
I3459
sS'action shooting'
p3622
I3173
sS'powerlifting'
p3623
I1141
sS'medical informatics'
p3624
I2756
sS'drag racing'
p3625
I1029
sS'madal'
p3626
I3880
sS'kompa'
p3627
I3628
sS'sevillanas'
p3628
I819
sS'temple dance'
p3629
I3196
sS'artificial creativity'
p3630
I1187
sS'communication arts'
p3631
I2230
sS'ebm'
p3632
I229
sS'national'
p3633
I781
sS'militaria'
p3634
I2733
sS'game design'
p3635
I402
sS'canoe racing'
p3636
I1439
sS'cyberpunk'
p3637
I407
sS'skateboarding'
p3638
I190
sS'water polo'
p3639
I151
sS'biology/english'
p3640
I3080
sS'turku'
p3641
I1739
sS'lur'
p3642
I844
sS'pandean pipes'
p3643
I3837
sS'german literature'
p3644
I1145
sS'beading'
p3645
I949
sS'information management'
p3646
I2130
sS'yass'
p3647
I3350
sS'geochemistry'
p3648
I2247
sS'supernatural'
p3649
I752
sS'plant sciences'
p3650
I2091
sS'policy studies'
p3651
I3474
sS'timba'
p3652
I1745
sS'\xd8\xb9\xd8\xb1\xd8\xa8\xd9\x8a'
p3653
I3788
sS'wine clubs'
p3654
I1217
sS'plant collecting'
p3655
I2910
sS'turki'
p3656
I1296
sS'eecs'
p3657
I1147
sS'ken'
p3658
I1017
sS'animalia'
p3659
I964
sS'cristiano'
p3660
I1183
sS'yuka'
p3661
I1867
sS'database design'
p3662
I2872
sS'sho'
p3663
I2824
sS'zouk'
p3664
I1053
sS'star trek'
p3665
I280
sS'electric instrument'
p3666
I3690
sS'castillian'
p3667
I2914
sS'modern soul'
p3668
I3946
sS'pump organ'
p3669
I3284
sS'pragmatics'
p3670
I1442
sS'habanera'
p3671
I3645
sS'evolutionary ecology'
p3672
I2383
sS'international finance'
p3673
I2510
sS'drum'
p3674
I261
sS'pit fighting'
p3675
I3676
sS'career'
p3676
I945
sS'torch song'
p3677
I201
sS'box kite'
p3678
I3599
sS'gusli'
p3679
I3413
sS'indoor soccer'
p3680
I801
sS'disco polo'
p3681
I2672
sS'parody music'
p3682
I2998
sS'romance studies'
p3683
I3630
sS'nutrition science'
p3684
I2789
sS'rinkball'
p3685
I3858
sS'venu'
p3686
I566
sS'applied computing'
p3687
I3813
sS'chiptune'
p3688
I3029
sS'early christianity'
p3689
I2014
sS'industrial economics'
p3690
I4007
sS'fishkeeping'
p3691
I1490
sS'ca'
p3692
I734
sS'podiatry'
p3693
I3593
sS'urban sprawl'
p3694
I2113
sS'heredity'
p3695
I3960
sS'cx'
p3696
I2424
sS'physical oceanography'
p3697
I2768
sS'british bulldogs'
p3698
I2890
sS'rpg'
p3699
I1386
sS'cs'
p3700
I364
sS'artistic gymnastics'
p3701
I1651
sS'tabla'
p3702
I1245
sS'michael jackson'
p3703
I1208
sS'epigraphy'
p3704
I2832
sS'control theory'
p3705
I2577
sS'developmental biology'
p3706
I3551
sS'quena'
p3707
I1811
sS'mechanical engineering'
p3708
I1525
sS'transportation design'
p3709
I2969
sS'hindu'
p3710
I1560
sS'rapcore'
p3711
I3781
sS'polka'
p3712
I2408
sS'bookbinding'
p3713
I1246
sS'quiz'
p3714
I1148
sS'everyday life'
p3715
I941
sS'engineering physics'
p3716
I1327
sS'alternative country'
p3717
I3306
sS'viticulture'
p3718
I1351
sS'business marketing'
p3719
I2022
sS'breaking news'
p3720
I1744
sS'warwick'
p3721
I3567
sS'ruan'
p3722
I4036
sS'dixieland jazz'
p3723
I3260
sS'measure theory'
p3724
I1065
sS'inline hockey'
p3725
I439
sS'racketlon'
p3726
I3136
sS'pinpeat'
p3727
I3990
sS'oral surgery'
p3728
I3771
sS'special functions'
p3729
I3796
sS'russian history'
p3730
I1169
sS'musicality'
p3731
I3362
sS'glima'
p3732
I3856
sS'cellular biology'
p3733
I3462
sS'balinese dance'
p3734
I2959
sS'graphics'
p3735
I223
sS'planetary geology'
p3736
I3827
sS'toasting'
p3737
I1378
sS'race walking'
p3738
I2620
sS'piguaquan'
p3739
I3542
sS'video game music'
p3740
I4021
sS'cyberpunk music'
p3741
I3219
sS'oriental languages'
p3742
I3145
sS'bombarde'
p3743
I837
sS'university studies'
p3744
I338
sS'chutney-soca'
p3745
I3777
sS'enumerative combinatorics'
p3746
I4052
sS'percussion instrument'
p3747
I2497
sS'rope skipping'
p3748
I2363
sS'greco'
p3749
I1953
sS'caving'
p3750
I471
sS'turkish language'
p3751
I1767
sS'v50'
p3752
I4051
sS'slr photography'
p3753
I1929
sS'west indies'
p3754
I3453
sS'northern shaolin'
p3755
I3863
sS'newgrass'
p3756
I3280
sS'  electronic instruments'
p3757
I1016
sS'bolero'
p3758
I1384
sS'tango music'
p3759
I938
sS'aesthetics'
p3760
I1066
sS'township music'
p3761
I1819
sS'strength training'
p3762
I640
sS'ornithology'
p3763
I236
sS'hardware'
p3764
I1603
sS'letterboxing'
p3765
I1479
sS'sportfishing'
p3766
I3014
sS'brain teaser'
p3767
I1652
sS'electronic piano'
p3768
I2477
sS'business informatics'
p3769
I2981
sS'arabic'
p3770
I617
sS'austin, texas'
p3771
I1653
sS'interactive arts'
p3772
I1969
sS'philadelphia soul'
p3773
I3460
sS'ringette'
p3774
I2607
sS'tattoo'
p3775
I168
sS'airsoft'
p3776
I120
sS'student movement'
p3777
I2144
sS'podcasting'
p3778
I500
sS'jug band'
p3779
I2839
sS'buddhist'
p3780
I1255
sS'housing development'
p3781
I3441
sS'romance'
p3782
I377
sS'urban planning'
p3783
I697
sS'buddhism'
p3784
I241
sS'astrochemistry'
p3785
I3694
sS'electric mandolin'
p3786
I3920
sS'geographical'
p3787
I934
sS'eclectic'
p3788
I612
sS'american primitivism'
p3789
I3579
sS'terrorism'
p3790
I536
sS'bodhran'
p3791
I2124
sS'castellano'
p3792
I2417
sS'highlife'
p3793
I3624
sS'web development'
p3794
I748
sS'fan fiction'
p3795
I2256
sS'baltimore club'
p3796
I3695
sS'melodic rock'
p3797
I3910
sS'educational toys'
p3798
I3264
sS'quality management'
p3799
I1838
sS'drink'
p3800
I358
sS'process control'
p3801
I3929
sS'automation'
p3802
I1342
sS'multimedia design'
p3803
I1648
sS'digital hardcore'
p3804
I3044
sS'miniten'
p3805
I2684
sS'spitting'
p3806
I1013
sS'amigurumi'
p3807
I2172
sS'mosaic'
p3808
I1314
sS'herpetology'
p3809
I240
sS'tenpin bowling'
p3810
I2302
sS'kobza'
p3811
I3604
sS'educational psychology'
p3812
I1537
sS'science news'
p3813
I1864
sS'petroleum geology'
p3814
I3762
sS'college rock'
p3815
I2647
sS'information theory'
p3816
I2528
sS'motorcycling'
p3817
I88
sS'studio art'
p3818
I2633
sS'kiteboarding'
p3819
I245
sS'cycle ball'
p3820
I3712
sS'computer programming'
p3821
I158
sS'english'
p3822
I374
sS'riot grrrl'
p3823
I2673
sS'boha'
p3824
I2137
sS'drawing'
p3825
I106
sS'theatre organ'
p3826
I1622
sS'anarchist gardener'
p3827
I3335
sS'madchester'
p3828
I3256
sS'musical composition'
p3829
I3214
sS'eurogame'
p3830
I3069
sS'ndi'
p3831
I3486
sS'romanian rock'
p3832
I3531
sS'cretan lira'
p3833
I3939
sS'neurolinguistics'
p3834
I2405
sS'baroque music'
p3835
I1270
sS'power pop'
p3836
I3636
sS'fishing'
p3837
I25
sS'antisemitism'
p3838
I3218
sS'medical psychology'
p3839
I1264
sS'grappling'
p3840
I1934
sS'gongs'
p3841
I2292
sS'chorinho'
p3842
I2107
sS'embaire'
p3843
I3480
sS'phylogenetics'
p3844
I2403
sS'rancheras'
p3845
I3678
sS'thermodynamics'
p3846
I995
sS'bobsleigh'
p3847
I1592
sS'managerial economics'
p3848
I2517
sS'ska'
p3849
I592
sS'medical genetics'
p3850
I2714
sS'historical sociology'
p3851
I1077
sS'drumstep'
p3852
I3613
sS'experimental rock'
p3853
I2934
sS'oceanology'
p3854
I3657
sS'mathematics-economics'
p3855
I2028
sS'government'
p3856
I1330
sS'testa'
p3857
I3395
sS'historia'
p3858
I330
sS'avant-garde'
p3859
I1144
sS'creation spirituality'
p3860
I1018
sS'indoor football'
p3861
I1116
sS'ra\xc3\xaf'
p3862
I3668
sS'nanotechnology'
p3863
I1104
sS'chelys'
p3864
I523
sS'symphonic techno'
p3865
I3471
sS'whittling'
p3866
I1922
sS'country rock'
p3867
I1401
sS'tech news'
p3868
I2506
sS'immunology'
p3869
I1198
sS'finnish'
p3870
I544
sS'punjabi dances'
p3871
I3225
sS'poetics'
p3872
I400
sS'alegrias'
p3873
I3003
sS'naval architecture'
p3874
I3537
sS'journalism'
p3875
I77
sS'radioscience'
p3876
I3296
sS'reggae rock'
p3877
I839
sS'kyudo'
p3878
I2015
sS'psychedelic rock'
p3879
I269
sS'marching percussion'
p3880
I1546
sS'uilleann pipes'
p3881
I2622
sS'rumi maki'
p3882
I3198
sS'paragliding'
p3883
I86
sS'mathematical finance'
p3884
I3941
sS'old timey'
p3885
I1961
sS'installation art'
p3886
I816
sS'bodhr\xc3\xa1n'
p3887
I1128
sS'garage punk'
p3888
I2337
sS'water aerobics'
p3889
I3175
sS'german rock'
p3890
I2644
sS'dhol'
p3891
I3860
sS'european music'
p3892
I1658
sS'theatrical design'
p3893
I2386
sS'physical anthropology'
p3894
I1949
sS'wife carrying'
p3895
I3408
sS'nutritional sciences'
p3896
I2822
sS'gymnastics'
p3897
I670
sS'original cast'
p3898
I3926
sS'       bells'
p3899
I799
sS'dermatology'
p3900
I2138
sS'biblical studies'
p3901
I2358
sS'public policy'
p3902
I1558
sS'progressive rock'
p3903
I1794
sS'enka'
p3904
I1160
sS'transport'
p3905
I188
sS'rock noir'
p3906
I2598
sS'indian pop'
p3907
I1656
sS'vocal house'
p3908
I2140
sS'jurisprudence'
p3909
I2637
sS'gregorian chant'
p3910
I3040
sS'foosball'
p3911
I293
sS'archeology'
p3912
I211
sS'industrial engineering'
p3913
I2575
sS'rattlesnake'
p3914
I3464
sS'qa engineering'
p3915
I2978
sS'mathematical statistics'
p3916
I2627
sS'financial management'
p3917
I3162
sS'taiko'
p3918
I1235
sS'balboa'
p3919
I1951
sS'radio drama'
p3920
I1420
sS'car game'
p3921
I2508
sS'biology'
p3922
I480
sS'noise'
p3923
I550
sS'medical research'
p3924
I2416
sS'bowling'
p3925
I297
sS'self-organization'
p3926
I2494
sS'optical physics'
p3927
I3888
sS'epidemiology'
p3928
I1677
sS'disco rock'
p3929
I1158
sS'doll collecting'
p3930
I3629
sS'mechanical sciences'
p3931
I3729
sS'bulgarian music'
p3932
I3154
sS'rara'
p3933
I141
sS'folk metal'
p3934
I980
sS'contra bass'
p3935
I3934
sS'e-marketing'
p3936
I2590
sS'computer game'
p3937
I633
sS'liquid funk'
p3938
I3291
sS'calypso music'
p3939
I3071
sS'nde'
p3940
I2757
sS'futurism'
p3941
I481
sS'mainstream rock'
p3942
I2407
sS'kliningan'
p3943
I3715
sS'comparative religion'
p3944
I2156
sS'instrumental guitar'
p3945
I1317
sS'hardcore punk'
p3946
I573
sS'suomisaundi'
p3947
I3102
sS'documentary'
p3948
I841
sS'papermaking'
p3949
I1761
sS'salsa gorda'
p3950
I4020
sS'software'
p3951
I873
sS'bugle'
p3952
I1808
sS'bikutsi'
p3953
I4059
sS'screamer'
p3954
I3740
sS'alternating current'
p3955
I2710
sS'creativity'
p3956
I143
sS'hornpipe'
p3957
I2764
sS'concertina'
p3958
I1901
sS'british invasion'
p3959
I3344
sS'praise song'
p3960
I3122
sS'straight edge'
p3961
I2105
sS'neo soul'
p3962
I2679
sS'zoology'
p3963
I714
sS'comparative politics'
p3964
I3000
sS'political game'
p3965
I2675
sS'fender stratocaster'
p3966
I2228
sS'orthopedic surgery'
p3967
I3654
sS'macroeconomics'
p3968
I1882
sS'tax law'
p3969
I2461
sS'jing'
p3970
I2596
sS'retail management'
p3971
I3845
sS'extreme music'
p3972
I3126
sS'pc'
p3973
I572
sS'figure skating'
p3974
I1022
sS'working out'
p3975
I54
sS'community development'
p3976
I1135
sS'soap opera'
p3977
I877
sS'horror movie'
p3978
I1396
sS'the pit'
p3979
I2642
sS'artificial intelligence'
p3980
I548
sS'systems engineering'
p3981
I994
sS'cricket'
p3982
I303
sS'percussion instruments'
p3983
I1583
sS'statistical graphics'
p3984
I2941
sS'reproductive biology'
p3985
I3304
sS'human biology'
p3986
I956
sS'space music'
p3987
I947
sS'bouzouki'
p3988
I1661
sS'mystery fiction'
p3989
I2759
sS'nordic skiing'
p3990
I1026
sS'were music'
p3991
I1204
sS'production engineering'
p3992
I2059
sS'santoor'
p3993
I1993
sS'psychedelic trance'
p3994
I1142
sS'road cycling'
p3995
I730
sS'digital photography'
p3996
I1006
sS'russian studies'
p3997
I3517
sS'environmental ethics'
p3998
I2010
sS'asian studies'
p3999
I1240
sS'regional planning'
p4000
I1938
sS'geocaching'
p4001
I665
sS'developmental psychology'
p4002
I1293
sS'library science'
p4003
I2126
sS'ice skating'
p4004
I589
sS'rumba'
p4005
I955
sS'environmental sciences'
p4006
I1950
sS'dumog'
p4007
I4064
sS'cello'
p4008
I390
sS'philately'
p4009
I728
sS'bartitsu'
p4010
I3996
sS'mechanics'
p4011
I626
sS'chemical neurobiology'
p4012
I3655
sS'health science'
p4013
I1646
sS'dancesport'
p4014
I1686
sS'classic hits'
p4015
I2940
sS'twist'
p4016
I874
sS'idm music'
p4017
I3783
sS'body piercing'
p4018
I1721
sS'alternative folk'
p4019
I2563
sS'business economics'
p4020
I1139
sS'education'
p4021
I527
sS'horror film'
p4022
I1161
sS'business analysis'
p4023
I1755
sS'key instruments'
p4024
I3634
sS'taekwondo'
p4025
I1192
sS'hydrology'
p4026
I1585
sS'variety'
p4027
I307
sS'fencing'
p4028
I470
sS'southern rock'
p4029
I2102
sS"women's history"
p4030
I2395
sS'forestry'
p4031
I933
sS'space western'
p4032
I3506
sS'documentary film'
p4033
I703
sS'sport climbing'
p4034
I1027
sS'baroque dance'
p4035
I2611
sS'pub rock'
p4036
I3565
sS'team handball'
p4037
I1810
sS'kemenche'
p4038
I3573
sS'stav'
p4039
I1701
sS'goaltimate'
p4040
I2398
sS"children's games"
p4041
I2104
sS'korean drum'
p4042
I2753
sS'yuman music'
p4043
I3355
sS'detroit techno'
p4044
I2096
sS'economic simulation'
p4045
I3107
sS'shorinji kempo'
p4046
I2026
sS'pole dance'
p4047
I1564
sS'american football'
p4048
I393
sS'astronomy'
p4049
I348
sS'communications management'
p4050
I1813
sS'cell biology'
p4051
I2161
sS'jawbone'
p4052
I3083
sS'atheist'
p4053
I1312
sS'biostatistics'
p4054
I3520
sS'microelectronics'
p4055
I2564
sS'cpu'
p4056
I3384
sS'atheism'
p4057
I637
sS'labor history'
p4058
I1280
sS'minimal wave'
p4059
I3548
sS'tomoi'
p4060
I2106
sS'western painting'
p4061
I3454
sS'porro'
p4062
I1385
sS'dominoes'
p4063
I1083
sS'biotechnology'
p4064
I1286
sS'letter game'
p4065
I2658
sS'medical sociology'
p4066
I2064
sS'treble recorder'
p4067
I2555
s.